***********************************************************************
*
*	CODE GENERATION LISTING FOR: Simulazione v7_0
*	COMPILER VERSION: 5.22.0.24
*
***********************************************************************

**************************************************
	CODE GENERATOR SUBROUTINES
**************************************************

$$MOD:
005BA4D0  FB90 F3F1		sdiv r3, r0, r1
005BA4D4  4359     		mul r1, r1, r3
005BA4D6  EBC1 0000		rsb r0, r1, r0
005BA4DA  4770     		bx lr

$$MOD_U:
005BA4DC  FBB0 F3F1		udiv r3, r0, r1
005BA4E0  4359     		mul r1, r1, r3
005BA4E2  EBC1 0000		rsb r0, r1, r0
005BA4E6  4770     		bx lr

**************************************************
	List function: eGetBYTE
**************************************************

FUNCTION eGetBYTE : BYTE

	{ DE:"(Sfr108a210) eLLabCommonLib - Get BYTE value from void pointer" }

        VAR_INPUT
RAddress : DWORD;	{ DE:"Read address" }
	END_VAR

        VAR
Ptr : @BYTE;	{ DE:"Auxiliary pointer" }
	END_VAR

END_FUNCTION

	*** Function data allocation

	Par RAddress: CALLER STACK FRAME AT sp+0
	Var Ptr: REGISTER _TMP_32LO

005BA4E8  466F     		mov r7, sp
005BA4EA  B082     		sub sp, sp, #8
005BA4EC  F8CD E000		str lr, [sp]
005BA4F0  E92D 1E50		stmdb sp!, { r4, r6, r9, r10, r11, r12 }
005BA4F4  463E     		mov r6, r7
005BA4F6  2400     		mov r4, #0

005BA4F8  6830     		ldr r0, [r6]
005BA4FA  4681     		mov r9, r0

005BA4FC  46CC     		mov r12, r9
005BA4FE  F89C 0000		ldrb r0, [r12]
005BA502  4604     		mov r4, r0

005BA504  4620     		mov r0, r4
005BA506  E8BD 1E50		ldmia sp!, { r4, r6, r9, r10, r11, r12 }
005BA50A  F8DD E000		ldr lr, [sp]
005BA50E  B002     		add sp, sp, #8

005BA510  4770     		bx lr

END_FUNCTION
**************************************************
	List function: eGetDWORD
**************************************************

FUNCTION eGetDWORD : DWORD

	{ DE:"(Sfr108a210) eLLabCommonLib - Get DWORD value from void pointer" }

        VAR_INPUT
RAddress : DWORD;	{ DE:"Read address" }
	END_VAR

        VAR
Ptr : @DWORD;	{ DE:"Auxiliary pointer" }
	END_VAR

END_FUNCTION

	*** Function data allocation

	Par RAddress: CALLER STACK FRAME AT sp+0
	Var Ptr: REGISTER _TMP_32LO

005BA512  466F     		mov r7, sp
005BA514  B082     		sub sp, sp, #8
005BA516  F8CD E000		str lr, [sp]
005BA51A  E92D 1E50		stmdb sp!, { r4, r6, r9, r10, r11, r12 }
005BA51E  463E     		mov r6, r7
005BA520  2400     		mov r4, #0

005BA522  6830     		ldr r0, [r6]
005BA524  4681     		mov r9, r0

005BA526  46CC     		mov r12, r9
005BA528  F8DC 0000		ldr r0, [r12]
005BA52C  4604     		mov r4, r0

005BA52E  4620     		mov r0, r4
005BA530  E8BD 1E50		ldmia sp!, { r4, r6, r9, r10, r11, r12 }
005BA534  F8DD E000		ldr lr, [sp]
005BA538  B002     		add sp, sp, #8

005BA53A  4770     		bx lr

END_FUNCTION
**************************************************
	List function: eSetBYTE
**************************************************

FUNCTION eSetBYTE : BOOL

	{ DE:"(Sfr108a210) eLLabCommonLib - Set BYTE value to void pointer" }

        VAR_INPUT
WAddress : DWORD;	{ DE:"Write address" }
WValue : BYTE;	{ DE:"Write value" }
	END_VAR

        VAR
Ptr : @BYTE;	{ DE:"Auxiliary pointer" }
	END_VAR

END_FUNCTION

	*** Function data allocation

	Par WAddress: CALLER STACK FRAME AT sp+0
	Par WValue: CALLER STACK FRAME AT sp+4
	Var Ptr: REGISTER _TMP_32LO

005BA53C  466F     		mov r7, sp
005BA53E  B082     		sub sp, sp, #8
005BA540  F8CD E000		str lr, [sp]
005BA544  E92D 1E50		stmdb sp!, { r4, r6, r9, r10, r11, r12 }
005BA548  463E     		mov r6, r7
005BA54A  2400     		mov r4, #0

005BA54C  6830     		ldr r0, [r6]
005BA54E  4681     		mov r9, r0

005BA550  F8DF 701C		ldr r7, [pc, #+28] ; 0x4
005BA554  5DF0     		ldrb r0, [r6, +r7]
005BA556  46CC     		mov r12, r9
005BA558  F88C 0000		strb r0, [r12]

005BA55C  2001     		mov r0, #1 ; 1
005BA55E  4604     		mov r4, r0

005BA560  4620     		mov r0, r4
005BA562  E8BD 1E50		ldmia sp!, { r4, r6, r9, r10, r11, r12 }
005BA566  F8DD E000		ldr lr, [sp]
005BA56A  B002     		add sp, sp, #8

005BA56C  4770     		bx lr

005BA570  00000004		; 0x00000004

END_FUNCTION
**************************************************
	List function: eToPVoid
**************************************************

FUNCTION eToPVoid : DWORD

	{ DE:"(Sfr094b000) eLLabXUnified12Lib - To void pointer cast" }

        VAR_INPUT
In : DWORD;
	END_VAR

END_FUNCTION

	*** Function data allocation

	Par In: CALLER STACK FRAME AT sp+0

005BA574  466F     		mov r7, sp
005BA576  B082     		sub sp, sp, #8
005BA578  F8CD E000		str lr, [sp]
005BA57C  E92D 1E50		stmdb sp!, { r4, r6, r9, r10, r11, r12 }
005BA580  463E     		mov r6, r7
005BA582  2400     		mov r4, #0

005BA584  6830     		ldr r0, [r6]
005BA586  4604     		mov r4, r0

005BA588  4620     		mov r0, r4
005BA58A  E8BD 1E50		ldmia sp!, { r4, r6, r9, r10, r11, r12 }
005BA58E  F8DD E000		ldr lr, [sp]
005BA592  B002     		add sp, sp, #8

005BA594  4770     		bx lr

END_FUNCTION
**************************************************
	List function block: BitToByte
**************************************************

FUNCTION_BLOCK BitToByte

	{ DE:"(Sfr054e010) eLLabUtyLib - Merges 8 BOOL variables into a BYTE" }

        VAR_INPUT
b0 : BOOL;
b1 : BOOL;
b2 : BOOL;
b3 : BOOL;
b4 : BOOL;
b5 : BOOL;
b6 : BOOL;
b7 : BOOL;
	END_VAR

        VAR_OUTPUT
Out : BYTE;	{ DE:"Function result" }
	END_VAR

END_FUNCTION_BLOCK

005BA596  E92D 4040		stmdb sp!, { r6, lr }
005BA59A  462E     		mov r6, r5

005BA59C  2000     		mov r0, #0 ; 0
005BA59E  F8DF 7104		ldr r7, [pc, #+260] ; 0x8
005BA5A2  55F0     		strb r0, [r6, +r7]

005BA5A4  7830     		ldrb r0, [r6]

005BA5A6  2800     		cmp r0, #0
005BA5A8  D008     		beq #16 ; 0x005BA5BC


005BA5AC  F8DF 70F4		ldr r7, [pc, #+244] ; 0x8
005BA5B0  5DF0     		ldrb r0, [r6, +r7]

005BA5B2  2701     		mov r7, #1 ; 1
005BA5B4  4338     		orr r0, r0, r7

005BA5B6  F8DF 70EC		ldr r7, [pc, #+236] ; 0x8
005BA5BA  55F0     		strb r0, [r6, +r7]

005BA5BC  F8DF 70C8		ldr r7, [pc, #+200] ; 0x1
005BA5C0  5DF0     		ldrb r0, [r6, +r7]

005BA5C2  2800     		cmp r0, #0
005BA5C4  D008     		beq #16 ; 0x005BA5D8


005BA5C8  F8DF 70D8		ldr r7, [pc, #+216] ; 0x8
005BA5CC  5DF0     		ldrb r0, [r6, +r7]

005BA5CE  2702     		mov r7, #2 ; 2
005BA5D0  4338     		orr r0, r0, r7

005BA5D2  F8DF 70D0		ldr r7, [pc, #+208] ; 0x8
005BA5D6  55F0     		strb r0, [r6, +r7]

005BA5D8  F8DF 70B0		ldr r7, [pc, #+176] ; 0x2
005BA5DC  5DF0     		ldrb r0, [r6, +r7]

005BA5DE  2800     		cmp r0, #0
005BA5E0  D008     		beq #16 ; 0x005BA5F4


005BA5E4  F8DF 70BC		ldr r7, [pc, #+188] ; 0x8
005BA5E8  5DF0     		ldrb r0, [r6, +r7]

005BA5EA  2704     		mov r7, #4 ; 4
005BA5EC  4338     		orr r0, r0, r7

005BA5EE  F8DF 70B4		ldr r7, [pc, #+180] ; 0x8
005BA5F2  55F0     		strb r0, [r6, +r7]

005BA5F4  F8DF 7098		ldr r7, [pc, #+152] ; 0x3
005BA5F8  5DF0     		ldrb r0, [r6, +r7]

005BA5FA  2800     		cmp r0, #0
005BA5FC  D008     		beq #16 ; 0x005BA610


005BA600  F8DF 70A0		ldr r7, [pc, #+160] ; 0x8
005BA604  5DF0     		ldrb r0, [r6, +r7]

005BA606  2708     		mov r7, #8 ; 8
005BA608  4338     		orr r0, r0, r7

005BA60A  F8DF 7098		ldr r7, [pc, #+152] ; 0x8
005BA60E  55F0     		strb r0, [r6, +r7]

005BA610  F8DF 7080		ldr r7, [pc, #+128] ; 0x4
005BA614  5DF0     		ldrb r0, [r6, +r7]

005BA616  2800     		cmp r0, #0
005BA618  D008     		beq #16 ; 0x005BA62C


005BA61C  F8DF 7084		ldr r7, [pc, #+132] ; 0x8
005BA620  5DF0     		ldrb r0, [r6, +r7]

005BA622  2710     		mov r7, #16 ; 16
005BA624  4338     		orr r0, r0, r7

005BA626  F8DF 707C		ldr r7, [pc, #+124] ; 0x8
005BA62A  55F0     		strb r0, [r6, +r7]

005BA62C  F8DF 7068		ldr r7, [pc, #+104] ; 0x5
005BA630  5DF0     		ldrb r0, [r6, +r7]

005BA632  2800     		cmp r0, #0
005BA634  D008     		beq #16 ; 0x005BA648


005BA638  F8DF 7068		ldr r7, [pc, #+104] ; 0x8
005BA63C  5DF0     		ldrb r0, [r6, +r7]

005BA63E  2720     		mov r7, #32 ; 32
005BA640  4338     		orr r0, r0, r7

005BA642  F8DF 7060		ldr r7, [pc, #+96] ; 0x8
005BA646  55F0     		strb r0, [r6, +r7]

005BA648  F8DF 7050		ldr r7, [pc, #+80] ; 0x6
005BA64C  5DF0     		ldrb r0, [r6, +r7]

005BA64E  2800     		cmp r0, #0
005BA650  D008     		beq #16 ; 0x005BA664


005BA654  F8DF 704C		ldr r7, [pc, #+76] ; 0x8
005BA658  5DF0     		ldrb r0, [r6, +r7]

005BA65A  2740     		mov r7, #64 ; 64
005BA65C  4338     		orr r0, r0, r7

005BA65E  F8DF 7044		ldr r7, [pc, #+68] ; 0x8
005BA662  55F0     		strb r0, [r6, +r7]

005BA664  F8DF 7038		ldr r7, [pc, #+56] ; 0x7
005BA668  5DF0     		ldrb r0, [r6, +r7]

005BA66A  2800     		cmp r0, #0
005BA66C  D008     		beq #16 ; 0x005BA680


005BA670  F8DF 7030		ldr r7, [pc, #+48] ; 0x8
005BA674  5DF0     		ldrb r0, [r6, +r7]

005BA676  2780     		mov r7, #128 ; 128
005BA678  4338     		orr r0, r0, r7

005BA67A  F8DF 7028		ldr r7, [pc, #+40] ; 0x8
005BA67E  55F0     		strb r0, [r6, +r7]

005BA680  E8BD 4040		ldmia sp!, { r6, lr }

005BA684  4770     		bx lr

005BA688  00000001		; 0x00000001
005BA68C  00000002		; 0x00000002
005BA690  00000003		; 0x00000003
005BA694  00000004		; 0x00000004
005BA698  00000005		; 0x00000005
005BA69C  00000006		; 0x00000006
005BA6A0  00000007		; 0x00000007
005BA6A4  00000008		; 0x00000008


Frame allocation:

	0000 bit  0: VAR b0
	0001 bit  0: VAR b1
	0002 bit  0: VAR b2
	0003 bit  0: VAR b3
	0004 bit  0: VAR b4
	0005 bit  0: VAR b5
	0006 bit  0: VAR b6
	0007 bit  0: VAR b7
	0008       : VAR Out

END_FUNCTION_BLOCK
**************************************************
	List function block: ByteToBit
**************************************************

FUNCTION_BLOCK ByteToBit

	{ DE:"(Sfr054e010) eLLabUtyLib - Splits BYTE variable into 8 BOOL" }

        VAR_INPUT
In : BYTE;	{ DE:"Input data" }
	END_VAR

        VAR_OUTPUT
b0 : BOOL;	{ DE:"Bit 0 result" }
b1 : BOOL;	{ DE:"Bit 1 result" }
b2 : BOOL;	{ DE:"Bit 2 result" }
b3 : BOOL;	{ DE:"Bit 3 result" }
b4 : BOOL;	{ DE:"Bit 4 result" }
b5 : BOOL;	{ DE:"Bit 5 result" }
b6 : BOOL;	{ DE:"Bit 6 result" }
b7 : BOOL;	{ DE:"Bit 7 result" }
	END_VAR

END_FUNCTION_BLOCK

005BA6A8  E92D 4040		stmdb sp!, { r6, lr }
005BA6AC  462E     		mov r6, r5

005BA6AE  7830     		ldrb r0, [r6]

005BA6B0  2701     		mov r7, #1 ; 1
005BA6B2  4038     		and r0, r0, r7

005BA6B4  2800     		cmp r0, #0
005BA6B6  BF18 2001		nemov r0, #1
005BA6BA  BF08 2000		eqmov r0, #0

005BA6BE  F8DF 70A4		ldr r7, [pc, #+164] ; 0x1
005BA6C2  55F0     		strb r0, [r6, +r7]

005BA6C4  7830     		ldrb r0, [r6]

005BA6C6  2702     		mov r7, #2 ; 2
005BA6C8  4038     		and r0, r0, r7

005BA6CA  2800     		cmp r0, #0
005BA6CC  BF18 2001		nemov r0, #1
005BA6D0  BF08 2000		eqmov r0, #0

005BA6D4  F8DF 7090		ldr r7, [pc, #+144] ; 0x2
005BA6D8  55F0     		strb r0, [r6, +r7]

005BA6DA  7830     		ldrb r0, [r6]

005BA6DC  2704     		mov r7, #4 ; 4
005BA6DE  4038     		and r0, r0, r7

005BA6E0  2800     		cmp r0, #0
005BA6E2  BF18 2001		nemov r0, #1
005BA6E6  BF08 2000		eqmov r0, #0

005BA6EA  F8DF 7080		ldr r7, [pc, #+128] ; 0x3
005BA6EE  55F0     		strb r0, [r6, +r7]

005BA6F0  7830     		ldrb r0, [r6]

005BA6F2  2708     		mov r7, #8 ; 8
005BA6F4  4038     		and r0, r0, r7

005BA6F6  2800     		cmp r0, #0
005BA6F8  BF18 2001		nemov r0, #1
005BA6FC  BF08 2000		eqmov r0, #0

005BA700  F8DF 706C		ldr r7, [pc, #+108] ; 0x4
005BA704  55F0     		strb r0, [r6, +r7]

005BA706  7830     		ldrb r0, [r6]

005BA708  2710     		mov r7, #16 ; 16
005BA70A  4038     		and r0, r0, r7

005BA70C  2800     		cmp r0, #0
005BA70E  BF18 2001		nemov r0, #1
005BA712  BF08 2000		eqmov r0, #0

005BA716  F8DF 705C		ldr r7, [pc, #+92] ; 0x5
005BA71A  55F0     		strb r0, [r6, +r7]

005BA71C  7830     		ldrb r0, [r6]

005BA71E  2720     		mov r7, #32 ; 32
005BA720  4038     		and r0, r0, r7

005BA722  2800     		cmp r0, #0
005BA724  BF18 2001		nemov r0, #1
005BA728  BF08 2000		eqmov r0, #0

005BA72C  F8DF 7048		ldr r7, [pc, #+72] ; 0x6
005BA730  55F0     		strb r0, [r6, +r7]

005BA732  7830     		ldrb r0, [r6]

005BA734  2740     		mov r7, #64 ; 64
005BA736  4038     		and r0, r0, r7

005BA738  2800     		cmp r0, #0
005BA73A  BF18 2001		nemov r0, #1
005BA73E  BF08 2000		eqmov r0, #0

005BA742  F8DF 7038		ldr r7, [pc, #+56] ; 0x7
005BA746  55F0     		strb r0, [r6, +r7]

005BA748  7830     		ldrb r0, [r6]

005BA74A  2780     		mov r7, #128 ; 128
005BA74C  4038     		and r0, r0, r7

005BA74E  2800     		cmp r0, #0
005BA750  BF18 2001		nemov r0, #1
005BA754  BF08 2000		eqmov r0, #0

005BA758  F8DF 7024		ldr r7, [pc, #+36] ; 0x8
005BA75C  55F0     		strb r0, [r6, +r7]

005BA75E  E8BD 4040		ldmia sp!, { r6, lr }

005BA762  4770     		bx lr

005BA764  00000001		; 0x00000001
005BA768  00000002		; 0x00000002
005BA76C  00000003		; 0x00000003
005BA770  00000004		; 0x00000004
005BA774  00000005		; 0x00000005
005BA778  00000006		; 0x00000006
005BA77C  00000007		; 0x00000007
005BA780  00000008		; 0x00000008


Frame allocation:

	0000       : VAR In
	0001 bit  0: VAR b0
	0002 bit  0: VAR b1
	0003 bit  0: VAR b2
	0004 bit  0: VAR b3
	0005 bit  0: VAR b4
	0006 bit  0: VAR b5
	0007 bit  0: VAR b6
	0008 bit  0: VAR b7

END_FUNCTION_BLOCK
**************************************************
	List function block: ByteToWord
**************************************************

FUNCTION_BLOCK ByteToWord

	{ DE:"(Sfr054e010) eLLabUtyLib - Merges 2 BYTE variables into a WORD" }

        VAR_INPUT
MSB : BYTE;	{ DE:"MSB Value" }
LSB : BYTE;	{ DE:"LSB Value" }
	END_VAR

        VAR_OUTPUT
Out : WORD;	{ DE:"Function result" }
	END_VAR

END_FUNCTION_BLOCK

005BA784  E92D 4040		stmdb sp!, { r6, lr }
005BA788  462E     		mov r6, r5

005BA78A  7830     		ldrb r0, [r6]

005BA78C  F44F 7780		mov r7, #256 ; 256
005BA790  4378     		mul r0, r0, r7

005BA792  F8DF 7014		ldr r7, [pc, #+20] ; 0x1
005BA796  5DF7     		ldrb r7, [r6, +r7]
005BA798  19C0     		add r0, r0, r7

005BA79A  F8DF 7010		ldr r7, [pc, #+16] ; 0x2
005BA79E  53F0     		strh r0, [r6, +r7]

005BA7A0  E8BD 4040		ldmia sp!, { r6, lr }

005BA7A4  4770     		bx lr

005BA7A8  00000001		; 0x00000001
005BA7AC  00000002		; 0x00000002


Frame allocation:

	0000       : VAR MSB
	0001       : VAR LSB
	0002       : VAR Out

END_FUNCTION_BLOCK
**************************************************
	List function block: R_TRIG
**************************************************

FUNCTION_BLOCK R_TRIG

	{ DE:"(Sfr053c200) eLLabStdLib - Rising edge detector" }

        VAR_INPUT
CLK : BOOL;	{ DE:"Clock signal" }
	END_VAR

        VAR_OUTPUT
Q : BOOL;	{ DE:"Output" }
	END_VAR

        VAR
CLKMemo : BOOL := FALSE;	{ DE:"Clock memo" }
QAux : BOOL;	{ DE:"Auxiliary output" }
	END_VAR

END_FUNCTION_BLOCK

005BA7B0  E92D 4040		stmdb sp!, { r6, lr }
005BA7B4  462E     		mov r6, r5

005BA7B6  F8DF 708C		ldr r7, [pc, #+140] ; 0x3
005BA7BA  5DF0     		ldrb r0, [r6, +r7]

005BA7BC  F8DF 707C		ldr r7, [pc, #+124] ; 0x1
005BA7C0  5DF7     		ldrb r7, [r6, +r7]
005BA7C2  42B8     		cmp r0, r7
005BA7C4  BF18 2000		nemov r0, #0
005BA7C8  BF08 2001		eqmov r0, #1

005BA7CC  2800     		cmp r0, #0
005BA7CE  D004     		beq #8 ; 0x005BA7DA


005BA7D2  2000     		mov r0, #0 ; 0
005BA7D4  F8DF 706C		ldr r7, [pc, #+108] ; 0x3
005BA7D8  55F0     		strb r0, [r6, +r7]

005BA7DA  F8DF 7064		ldr r7, [pc, #+100] ; 0x2
005BA7DE  5DF0     		ldrb r0, [r6, +r7]

005BA7E0  7837     		ldrb r7, [r6]
005BA7E2  42B8     		cmp r0, r7
005BA7E4  BF08 2000		eqmov r0, #0
005BA7E8  BF18 2001		nemov r0, #1

005BA7EC  2800     		cmp r0, #0
005BA7EE  D00E     		beq #28 ; 0x005BA80E


005BA7F2  F8DF 704C		ldr r7, [pc, #+76] ; 0x2
005BA7F6  5DF0     		ldrb r0, [r6, +r7]
005BA7F8  7030     		strb r0, [r6]

005BA7FA  F8DF 7044		ldr r7, [pc, #+68] ; 0x2
005BA7FE  5DF0     		ldrb r0, [r6, +r7]

005BA800  2800     		cmp r0, #0
005BA802  D004     		beq #8 ; 0x005BA80E


005BA806  2001     		mov r0, #1 ; 1
005BA808  F8DF 7038		ldr r7, [pc, #+56] ; 0x3
005BA80C  55F0     		strb r0, [r6, +r7]

005BA80E  F8DF 7034		ldr r7, [pc, #+52] ; 0x3
005BA812  5DF0     		ldrb r0, [r6, +r7]

005BA814  F8DF 7024		ldr r7, [pc, #+36] ; 0x1
005BA818  5DF7     		ldrb r7, [r6, +r7]
005BA81A  42B8     		cmp r0, r7
005BA81C  BF08 2000		eqmov r0, #0
005BA820  BF18 2001		nemov r0, #1

005BA824  2800     		cmp r0, #0
005BA826  D006     		beq #12 ; 0x005BA836


005BA82A  F8DF 7018		ldr r7, [pc, #+24] ; 0x3
005BA82E  5DF0     		ldrb r0, [r6, +r7]
005BA830  F8DF 7008		ldr r7, [pc, #+8] ; 0x1
005BA834  55F0     		strb r0, [r6, +r7]

005BA836  E8BD 4040		ldmia sp!, { r6, lr }

005BA83A  4770     		bx lr

005BA83C  00000001		; 0x00000001
005BA840  00000002		; 0x00000002
005BA844  00000003		; 0x00000003


Frame allocation:

	0000 bit  0: VAR CLKMemo
	0001 bit  0: VAR QAux
	0002 bit  0: VAR CLK
	0003 bit  0: VAR Q

END_FUNCTION_BLOCK
**************************************************
	List function block: eTON
**************************************************

FUNCTION_BLOCK eTON

	{ DE:"(Sfr053c200) eLLabStdLib - On delay timer" }

        VAR_INPUT
IN : BOOL;	{ DE:"Timer input" }
PT : UDINT;	{ DE:"Preset time value (mS)" }
	END_VAR

        VAR_OUTPUT
Q : BOOL;	{ DE:"Delayed output" }
ET : UDINT;	{ DE:"Executing time (mS)" }
	END_VAR

        VAR_EXTERNAL
	{G:"SystemVariables"}
SysTime AT %MB0.320 : UDINT;	{ DE:"System time [mS]" }
	END_VAR

        VAR
TimeBf : UDINT;	{ DE:"Time buffer" }
	END_VAR

END_FUNCTION_BLOCK

005BA848  E92D 4040		stmdb sp!, { r6, lr }
005BA84C  462E     		mov r6, r5

005BA84E  F8DF 70AC		ldr r7, [pc, #+172] ; 0x4
005BA852  5DF0     		ldrb r0, [r6, +r7]

005BA854  2800     		cmp r0, #0
005BA856  BF08 2001		eqmov r0, #1
005BA85A  BF18 2000		nemov r0, #0

005BA85E  2800     		cmp r0, #0
005BA860  D00E     		beq #28 ; 0x005BA880


005BA864  F8DF 70A4		ldr r7, [pc, #+164] ; 0x20419BBC
005BA868  6838     		ldr r0, [r7]
005BA86A  6030     		str r0, [r6]

005BA86C  2000     		mov r0, #0 ; 0
005BA86E  F8DF 7094		ldr r7, [pc, #+148] ; 0xC
005BA872  55F0     		strb r0, [r6, +r7]

005BA874  2000     		mov r0, #0 ; 0
005BA876  F8DF 7090		ldr r7, [pc, #+144] ; 0x10
005BA87A  51F0     		str r0, [r6, +r7]

005BA87C  E03A     		b #116 ; 0x005BA8F4


005BA880  F8DF 7080		ldr r7, [pc, #+128] ; 0xC
005BA884  5DF0     		ldrb r0, [r6, +r7]

005BA886  2800     		cmp r0, #0
005BA888  D014     		beq #40 ; 0x005BA8B4


005BA88C  F8DF 7070		ldr r7, [pc, #+112] ; 0x8
005BA890  59F0     		ldr r0, [r6, +r7]

005BA892  F8DF 7074		ldr r7, [pc, #+116] ; 0x10
005BA896  59F7     		ldr r7, [r6, +r7]
005BA898  42B8     		cmp r0, r7
005BA89A  BF98 2000		lsmov r0, #0
005BA89E  BF88 2001		himov r0, #1

005BA8A2  2800     		cmp r0, #0
005BA8A4  D004     		beq #8 ; 0x005BA8B0


005BA8A8  2000     		mov r0, #0 ; 0
005BA8AA  F8DF 7058		ldr r7, [pc, #+88] ; 0xC
005BA8AE  55F0     		strb r0, [r6, +r7]

005BA8B0  E020     		b #64 ; 0x005BA8F4


005BA8B4  F8DF 7054		ldr r7, [pc, #+84] ; 0x20419BBC
005BA8B8  6838     		ldr r0, [r7]

005BA8BA  6837     		ldr r7, [r6]
005BA8BC  1BC0     		sub r0, r0, r7

005BA8BE  F8DF 7048		ldr r7, [pc, #+72] ; 0x10
005BA8C2  51F0     		str r0, [r6, +r7]

005BA8C4  F8DF 7040		ldr r7, [pc, #+64] ; 0x10
005BA8C8  59F0     		ldr r0, [r6, +r7]

005BA8CA  F8DF 7034		ldr r7, [pc, #+52] ; 0x8
005BA8CE  59F7     		ldr r7, [r6, +r7]
005BA8D0  42B8     		cmp r0, r7
005BA8D2  BF38 2000		lomov r0, #0
005BA8D6  BF28 2001		hsmov r0, #1

005BA8DA  2800     		cmp r0, #0
005BA8DC  D00A     		beq #20 ; 0x005BA8F4


005BA8E0  2001     		mov r0, #1 ; 1
005BA8E2  F8DF 7020		ldr r7, [pc, #+32] ; 0xC
005BA8E6  55F0     		strb r0, [r6, +r7]

005BA8E8  F8DF 7014		ldr r7, [pc, #+20] ; 0x8
005BA8EC  59F0     		ldr r0, [r6, +r7]
005BA8EE  F8DF 7018		ldr r7, [pc, #+24] ; 0x10
005BA8F2  51F0     		str r0, [r6, +r7]

005BA8F4  E8BD 4040		ldmia sp!, { r6, lr }

005BA8F8  4770     		bx lr

005BA8FC  00000004		; 0x00000004
005BA900  00000008		; 0x00000008
005BA904  0000000C		; 0x0000000C
005BA908  00000010		; 0x00000010
005BA90C  20419BBC		; 0x20419BBC


Frame allocation:

	0000       : VAR TimeBf
	0004 bit  0: VAR IN
	0008       : VAR PT
	000C bit  0: VAR Q
	0010       : VAR ET

END_FUNCTION_BLOCK
**************************************************
	List function: ArrayVarTxfer
**************************************************

FUNCTION ArrayVarTxfer : BOOL

	{ DE:"(Sfr108a210) eLLabCommonLib - Variable to big endian array conversion" }

        VAR_INPUT
Endianness : BOOL;	{ DE:"Array endianness" }
Type : DINT := 10;	{ DE:"Variable type" }
Destination : DWORD;	{ DE:"Destination pointer" }
Source : DWORD;	{ DE:"Source pointer" }
	END_VAR

        VAR
i : UDINT;	{ DE:"Auxiliary variable" }
SBuffer : ARRAY[0..7] OF BYTE;	{ DE:"Source buffer" }
BPtr : ARRAY[0..1] OF @BYTE;	{ DE:"BYTE pointer" }
WPtr : ARRAY[0..1] OF @WORD;	{ DE:"WORD pointer" }
DBuffer : ARRAY[0..7] OF BYTE;	{ DE:"Destination buffer" }
DWPtr : ARRAY[0..1] OF @DWORD;	{ DE:"DWORD pointer" }
	END_VAR

END_FUNCTION

	*** Function data allocation

	Par Endianness: CALLER STACK FRAME AT sp+0
	Par Type: CALLER STACK FRAME AT sp+4
	Par Destination: CALLER STACK FRAME AT sp+8
	Par Source: CALLER STACK FRAME AT sp+12
	Var i: REGISTER _TMP_32LO
	Var SBuffer: LOCAL STACK FRAME AT sp-8
	Var BPtr: LOCAL STACK FRAME AT sp-16
	Var WPtr: LOCAL STACK FRAME AT sp-24
	Var DBuffer: LOCAL STACK FRAME AT sp-32
	Var DWPtr: LOCAL STACK FRAME AT sp-40

005BA910  466F     		mov r7, sp
005BA912  B08A     		sub sp, sp, #40
005BA914  B082     		sub sp, sp, #8
005BA916  F8CD E000		str lr, [sp]
005BA91A  E92D 1E50		stmdb sp!, { r4, r6, r9, r10, r11, r12 }
005BA91E  463E     		mov r6, r7
005BA920  2400     		mov r4, #0

005BA922  F8DF 772C		ldr r7, [pc, #+1836] ; 0x4
005BA926  59F0     		ldr r0, [r6, +r7]

005BA928  2716     		mov r7, #22 ; 22
005BA92A  42B8     		cmp r0, r7
005BA92C  BF18 2000		nemov r0, #0
005BA930  BF08 2001		eqmov r0, #1

005BA934  B082     		sub sp, sp, #8
005BA936  F8CD 0000		str r0, [sp]
005BA93A  F8DF 7714		ldr r7, [pc, #+1812] ; 0x4
005BA93E  59F0     		ldr r0, [r6, +r7]

005BA940  2714     		mov r7, #20 ; 20
005BA942  42B8     		cmp r0, r7
005BA944  BF18 2000		nemov r0, #0
005BA948  BF08 2001		eqmov r0, #1

005BA94C  B082     		sub sp, sp, #8
005BA94E  F8CD 0000		str r0, [sp]
005BA952  F8DF 76FC		ldr r7, [pc, #+1788] ; 0x4
005BA956  59F0     		ldr r0, [r6, +r7]

005BA958  270A     		mov r7, #10 ; 10
005BA95A  42B8     		cmp r0, r7
005BA95C  BF18 2000		nemov r0, #0
005BA960  BF08 2001		eqmov r0, #1

005BA964  4607     		mov r7, r0
005BA966  F8DD 0000		ldr r0, [sp]
005BA96A  B002     		add sp, sp, #8
005BA96C  4338     		orr r0, r0, r7

005BA96E  4607     		mov r7, r0
005BA970  F8DD 0000		ldr r0, [sp]
005BA974  B002     		add sp, sp, #8
005BA976  4338     		orr r0, r0, r7

005BA978  2800     		cmp r0, #0
005BA97A  F040 80AE		bne #348 ; 0x005BAADA


005BA97E  F8DF 76D0		ldr r7, [pc, #+1744] ; 0x4
005BA982  59F0     		ldr r0, [r6, +r7]

005BA984  2720     		mov r7, #32 ; 32
005BA986  42B8     		cmp r0, r7
005BA988  BF18 2000		nemov r0, #0
005BA98C  BF08 2001		eqmov r0, #1

005BA990  B082     		sub sp, sp, #8
005BA992  F8CD 0000		str r0, [sp]
005BA996  F8DF 76B8		ldr r7, [pc, #+1720] ; 0x4
005BA99A  59F0     		ldr r0, [r6, +r7]

005BA99C  271F     		mov r7, #31 ; 31
005BA99E  42B8     		cmp r0, r7
005BA9A0  BF18 2000		nemov r0, #0
005BA9A4  BF08 2001		eqmov r0, #1

005BA9A8  B082     		sub sp, sp, #8
005BA9AA  F8CD 0000		str r0, [sp]
005BA9AE  F8DF 76A0		ldr r7, [pc, #+1696] ; 0x4
005BA9B2  59F0     		ldr r0, [r6, +r7]

005BA9B4  271E     		mov r7, #30 ; 30
005BA9B6  42B8     		cmp r0, r7
005BA9B8  BF18 2000		nemov r0, #0
005BA9BC  BF08 2001		eqmov r0, #1

005BA9C0  4607     		mov r7, r0
005BA9C2  F8DD 0000		ldr r0, [sp]
005BA9C6  B002     		add sp, sp, #8
005BA9C8  4338     		orr r0, r0, r7

005BA9CA  4607     		mov r7, r0
005BA9CC  F8DD 0000		ldr r0, [sp]
005BA9D0  B002     		add sp, sp, #8
005BA9D2  4338     		orr r0, r0, r7

005BA9D4  2800     		cmp r0, #0
005BA9D6  F040 809A		bne #308 ; 0x005BAB0E


005BA9DA  F8DF 7674		ldr r7, [pc, #+1652] ; 0x4
005BA9DE  59F0     		ldr r0, [r6, +r7]

005BA9E0  272B     		mov r7, #43 ; 43
005BA9E2  42B8     		cmp r0, r7
005BA9E4  BF18 2000		nemov r0, #0
005BA9E8  BF08 2001		eqmov r0, #1

005BA9EC  B082     		sub sp, sp, #8
005BA9EE  F8CD 0000		str r0, [sp]
005BA9F2  F8DF 765C		ldr r7, [pc, #+1628] ; 0x4
005BA9F6  59F0     		ldr r0, [r6, +r7]

005BA9F8  272A     		mov r7, #42 ; 42
005BA9FA  42B8     		cmp r0, r7
005BA9FC  BF18 2000		nemov r0, #0
005BAA00  BF08 2001		eqmov r0, #1

005BAA04  B082     		sub sp, sp, #8
005BAA06  F8CD 0000		str r0, [sp]
005BAA0A  F8DF 7644		ldr r7, [pc, #+1604] ; 0x4
005BAA0E  59F0     		ldr r0, [r6, +r7]

005BAA10  2729     		mov r7, #41 ; 41
005BAA12  42B8     		cmp r0, r7
005BAA14  BF18 2000		nemov r0, #0
005BAA18  BF08 2001		eqmov r0, #1

005BAA1C  B082     		sub sp, sp, #8
005BAA1E  F8CD 0000		str r0, [sp]
005BAA22  F8DF 762C		ldr r7, [pc, #+1580] ; 0x4
005BAA26  59F0     		ldr r0, [r6, +r7]

005BAA28  2728     		mov r7, #40 ; 40
005BAA2A  42B8     		cmp r0, r7
005BAA2C  BF18 2000		nemov r0, #0
005BAA30  BF08 2001		eqmov r0, #1

005BAA34  4607     		mov r7, r0
005BAA36  F8DD 0000		ldr r0, [sp]
005BAA3A  B002     		add sp, sp, #8
005BAA3C  4338     		orr r0, r0, r7

005BAA3E  4607     		mov r7, r0
005BAA40  F8DD 0000		ldr r0, [sp]
005BAA44  B002     		add sp, sp, #8
005BAA46  4338     		orr r0, r0, r7

005BAA48  4607     		mov r7, r0
005BAA4A  F8DD 0000		ldr r0, [sp]
005BAA4E  B002     		add sp, sp, #8
005BAA50  4338     		orr r0, r0, r7

005BAA52  2800     		cmp r0, #0
005BAA54  F040 8138		bne #624 ; 0x005BACC8


005BAA58  F8DF 75F4		ldr r7, [pc, #+1524] ; 0x4
005BAA5C  59F0     		ldr r0, [r6, +r7]

005BAA5E  273F     		mov r7, #63 ; 63
005BAA60  42B8     		cmp r0, r7
005BAA62  BF18 2000		nemov r0, #0
005BAA66  BF08 2001		eqmov r0, #1

005BAA6A  B082     		sub sp, sp, #8
005BAA6C  F8CD 0000		str r0, [sp]
005BAA70  F8DF 75DC		ldr r7, [pc, #+1500] ; 0x4
005BAA74  59F0     		ldr r0, [r6, +r7]

005BAA76  273E     		mov r7, #62 ; 62
005BAA78  42B8     		cmp r0, r7
005BAA7A  BF18 2000		nemov r0, #0
005BAA7E  BF08 2001		eqmov r0, #1

005BAA82  B082     		sub sp, sp, #8
005BAA84  F8CD 0000		str r0, [sp]
005BAA88  F8DF 75C4		ldr r7, [pc, #+1476] ; 0x4
005BAA8C  59F0     		ldr r0, [r6, +r7]

005BAA8E  273D     		mov r7, #61 ; 61
005BAA90  42B8     		cmp r0, r7
005BAA92  BF18 2000		nemov r0, #0
005BAA96  BF08 2001		eqmov r0, #1

005BAA9A  B082     		sub sp, sp, #8
005BAA9C  F8CD 0000		str r0, [sp]
005BAAA0  F8DF 75AC		ldr r7, [pc, #+1452] ; 0x4
005BAAA4  59F0     		ldr r0, [r6, +r7]

005BAAA6  273C     		mov r7, #60 ; 60
005BAAA8  42B8     		cmp r0, r7
005BAAAA  BF18 2000		nemov r0, #0
005BAAAE  BF08 2001		eqmov r0, #1

005BAAB2  4607     		mov r7, r0
005BAAB4  F8DD 0000		ldr r0, [sp]
005BAAB8  B002     		add sp, sp, #8
005BAABA  4338     		orr r0, r0, r7

005BAABC  4607     		mov r7, r0
005BAABE  F8DD 0000		ldr r0, [sp]
005BAAC2  B002     		add sp, sp, #8
005BAAC4  4338     		orr r0, r0, r7

005BAAC6  4607     		mov r7, r0
005BAAC8  F8DD 0000		ldr r0, [sp]
005BAACC  B002     		add sp, sp, #8
005BAACE  4338     		orr r0, r0, r7

005BAAD0  2800     		cmp r0, #0
005BAAD2  F040 81D6		bne #940 ; 0x005BAE82


005BAAD6  E29C     		b #1336 ; 0x005BB012


005BAADA  F8DF 7578		ldr r7, [pc, #+1400] ; 0x8
005BAADE  59F0     		ldr r0, [r6, +r7]
005BAAE0  F8DF 7560		ldr r7, [pc, #+1376] ; 0xFFFFFFF0
005BAAE4  51F0     		str r0, [r6, +r7]

005BAAE6  F8DF 7570		ldr r7, [pc, #+1392] ; 0xC
005BAAEA  59F0     		ldr r0, [r6, +r7]
005BAAEC  F8DF 7558		ldr r7, [pc, #+1368] ; 0xFFFFFFF4
005BAAF0  51F0     		str r0, [r6, +r7]

005BAAF2  F8DF 7554		ldr r7, [pc, #+1364] ; 0xFFFFFFF4
005BAAF6  F856 C007		ldr r12, [r6, +r7]
005BAAFA  F89C 0000		ldrb r0, [r12]
005BAAFE  F8DF 7544		ldr r7, [pc, #+1348] ; 0xFFFFFFF0
005BAB02  F856 C007		ldr r12, [r6, +r7]
005BAB06  F88C 0000		strb r0, [r12]

005BAB0A  E286     		b #1292 ; 0x005BB01A


005BAB0E  B082     		sub sp, sp, #8
005BAB10  F8CD 4000		str r4, [sp]
005BAB14  B082     		sub sp, sp, #8
005BAB16  F8CD 4000		str r4, [sp]
005BAB1A  2001     		mov r0, #1 ; 1
005BAB1C  F8DF 453C		ldr r4, [pc, #+1340] ; 0x4A20A1
005BAB20  F044 0401		orr r4, r4, #1
005BAB24  47A0     		blx r4
005BAB26  F8DD 4000		ldr r4, [sp]
005BAB2A  B002     		add sp, sp, #8
005BAB2C  F8DD 4000		ldr r4, [sp]
005BAB30  B002     		add sp, sp, #8

005BAB32  7837     		ldrb r7, [r6]
005BAB34  42B8     		cmp r0, r7
005BAB36  BF18 2000		nemov r0, #0
005BAB3A  BF08 2001		eqmov r0, #1

005BAB3E  2800     		cmp r0, #0
005BAB40  D01A     		beq #52 ; 0x005BAB78


005BAB44  F8DF 750C		ldr r7, [pc, #+1292] ; 0x8
005BAB48  59F0     		ldr r0, [r6, +r7]
005BAB4A  F8DF 74F0		ldr r7, [pc, #+1264] ; 0xFFFFFFE8
005BAB4E  51F0     		str r0, [r6, +r7]

005BAB50  F8DF 7504		ldr r7, [pc, #+1284] ; 0xC
005BAB54  59F0     		ldr r0, [r6, +r7]
005BAB56  F8DF 74E8		ldr r7, [pc, #+1256] ; 0xFFFFFFEC
005BAB5A  51F0     		str r0, [r6, +r7]

005BAB5C  F8DF 74E0		ldr r7, [pc, #+1248] ; 0xFFFFFFEC
005BAB60  F856 C007		ldr r12, [r6, +r7]
005BAB64  F8BC 0000		ldrh r0, [r12]
005BAB68  F8DF 74D0		ldr r7, [pc, #+1232] ; 0xFFFFFFE8
005BAB6C  F856 C007		ldr r12, [r6, +r7]
005BAB70  F8AC 0000		strh r0, [r12]

005BAB74  E0A6     		b #332 ; 0x005BACC4


005BAB78  F8DF 74D0		ldr r7, [pc, #+1232] ; 0xFFFFFFF8
005BAB7C  19F0     		add r0, r6, r7

005BAB7E  B082     		sub sp, sp, #8
005BAB80  F8CD 4000		str r4, [sp]
005BAB84  B082     		sub sp, sp, #8
005BAB86  4607     		mov r7, r0
005BAB88  F8CD 7000		str r7, [sp]
005BAB8C  F8DF 44D4		ldr r4, [pc, #+1236] ; 0x5BA574
005BAB90  F044 0401		orr r4, r4, #1
005BAB94  47A0     		blx r4
005BAB96  B002     		add sp, sp, #8
005BAB98  F8DD 4000		ldr r4, [sp]
005BAB9C  B002     		add sp, sp, #8

005BAB9E  F8DF 749C		ldr r7, [pc, #+1180] ; 0xFFFFFFE8
005BABA2  51F0     		str r0, [r6, +r7]

005BABA4  F8DF 74B0		ldr r7, [pc, #+1200] ; 0xC
005BABA8  59F0     		ldr r0, [r6, +r7]
005BABAA  F8DF 7494		ldr r7, [pc, #+1172] ; 0xFFFFFFEC
005BABAE  51F0     		str r0, [r6, +r7]

005BABB0  F8DF 748C		ldr r7, [pc, #+1164] ; 0xFFFFFFEC
005BABB4  F856 C007		ldr r12, [r6, +r7]
005BABB8  F8BC 0000		ldrh r0, [r12]
005BABBC  F8DF 747C		ldr r7, [pc, #+1148] ; 0xFFFFFFE8
005BABC0  F856 C007		ldr r12, [r6, +r7]
005BABC4  F8AC 0000		strh r0, [r12]

005BABC8  F8DF 746C		ldr r7, [pc, #+1132] ; 0xFFFFFFE0
005BABCC  19F0     		add r0, r6, r7

005BABCE  B082     		sub sp, sp, #8
005BABD0  F8CD 4000		str r4, [sp]
005BABD4  B082     		sub sp, sp, #8
005BABD6  4607     		mov r7, r0
005BABD8  F8CD 7000		str r7, [sp]
005BABDC  F8DF 4484		ldr r4, [pc, #+1156] ; 0x5BA574
005BABE0  F044 0401		orr r4, r4, #1
005BABE4  47A0     		blx r4
005BABE6  B002     		add sp, sp, #8
005BABE8  F8DD 4000		ldr r4, [sp]
005BABEC  B002     		add sp, sp, #8

005BABEE  F8DF 7454		ldr r7, [pc, #+1108] ; 0xFFFFFFF0
005BABF2  51F0     		str r0, [r6, +r7]

005BABF4  F8DF 7454		ldr r7, [pc, #+1108] ; 0xFFFFFFF8
005BABF8  19F0     		add r0, r6, r7

005BABFA  1C40     		add r0, r0, #1

005BABFC  B082     		sub sp, sp, #8
005BABFE  F8CD 4000		str r4, [sp]
005BAC02  B082     		sub sp, sp, #8
005BAC04  4607     		mov r7, r0
005BAC06  F8CD 7000		str r7, [sp]
005BAC0A  F8DF 4458		ldr r4, [pc, #+1112] ; 0x5BA574
005BAC0E  F044 0401		orr r4, r4, #1
005BAC12  47A0     		blx r4
005BAC14  B002     		add sp, sp, #8
005BAC16  F8DD 4000		ldr r4, [sp]
005BAC1A  B002     		add sp, sp, #8

005BAC1C  F8DF 7428		ldr r7, [pc, #+1064] ; 0xFFFFFFF4
005BAC20  51F0     		str r0, [r6, +r7]

005BAC22  2000     		mov r0, #0 ; 0

005BAC24  4681     		mov r9, r0

005BAC26  4648     		mov r0, r9

005BAC28  2801     		cmp r0, #1
005BAC2A  BF98 2000		lsmov r0, #0
005BAC2E  BF88 2001		himov r0, #1

005BAC32  2800     		cmp r0, #0
005BAC34  D11E     		bne #60 ; 0x005BAC74


005BAC38  F8DF 740C		ldr r7, [pc, #+1036] ; 0xFFFFFFF4
005BAC3C  F856 C007		ldr r12, [r6, +r7]
005BAC40  F89C 0000		ldrb r0, [r12]
005BAC44  F8DF 73FC		ldr r7, [pc, #+1020] ; 0xFFFFFFF0
005BAC48  F856 C007		ldr r12, [r6, +r7]
005BAC4C  F88C 0000		strb r0, [r12]

005BAC50  F8DF 73F0		ldr r7, [pc, #+1008] ; 0xFFFFFFF0
005BAC54  59F0     		ldr r0, [r6, +r7]

005BAC56  1C40     		add r0, r0, #1

005BAC58  F8DF 73E8		ldr r7, [pc, #+1000] ; 0xFFFFFFF0
005BAC5C  51F0     		str r0, [r6, +r7]

005BAC5E  F8DF 73E8		ldr r7, [pc, #+1000] ; 0xFFFFFFF4
005BAC62  59F0     		ldr r0, [r6, +r7]

005BAC64  1E40     		sub r0, r0, #1

005BAC66  F8DF 73E0		ldr r7, [pc, #+992] ; 0xFFFFFFF4
005BAC6A  51F0     		str r0, [r6, +r7]

005BAC6C  4648     		mov r0, r9

005BAC6E  1C40     		add r0, r0, #1

005BAC70  4681     		mov r9, r0

005BAC72  E7D8     		b #-80 ; 0x005BAC26

005BAC74  F8DF 73DC		ldr r7, [pc, #+988] ; 0x8
005BAC78  59F0     		ldr r0, [r6, +r7]
005BAC7A  F8DF 73C0		ldr r7, [pc, #+960] ; 0xFFFFFFE8
005BAC7E  51F0     		str r0, [r6, +r7]

005BAC80  F8DF 73B4		ldr r7, [pc, #+948] ; 0xFFFFFFE0
005BAC84  19F0     		add r0, r6, r7

005BAC86  B082     		sub sp, sp, #8
005BAC88  F8CD 4000		str r4, [sp]
005BAC8C  B082     		sub sp, sp, #8
005BAC8E  4607     		mov r7, r0
005BAC90  F8CD 7000		str r7, [sp]
005BAC94  F8DF 43CC		ldr r4, [pc, #+972] ; 0x5BA574
005BAC98  F044 0401		orr r4, r4, #1
005BAC9C  47A0     		blx r4
005BAC9E  B002     		add sp, sp, #8
005BACA0  F8DD 4000		ldr r4, [sp]
005BACA4  B002     		add sp, sp, #8

005BACA6  F8DF 7398		ldr r7, [pc, #+920] ; 0xFFFFFFEC
005BACAA  51F0     		str r0, [r6, +r7]

005BACAC  F8DF 7390		ldr r7, [pc, #+912] ; 0xFFFFFFEC
005BACB0  F856 C007		ldr r12, [r6, +r7]
005BACB4  F8BC 0000		ldrh r0, [r12]
005BACB8  F8DF 7380		ldr r7, [pc, #+896] ; 0xFFFFFFE8
005BACBC  F856 C007		ldr r12, [r6, +r7]
005BACC0  F8AC 0000		strh r0, [r12]

005BACC4  E1A9     		b #850 ; 0x005BB01A


005BACC8  B082     		sub sp, sp, #8
005BACCA  F8CD 4000		str r4, [sp]
005BACCE  B082     		sub sp, sp, #8
005BACD0  F8CD 4000		str r4, [sp]
005BACD4  2001     		mov r0, #1 ; 1
005BACD6  F8DF 4384		ldr r4, [pc, #+900] ; 0x4A20A1
005BACDA  F044 0401		orr r4, r4, #1
005BACDE  47A0     		blx r4
005BACE0  F8DD 4000		ldr r4, [sp]
005BACE4  B002     		add sp, sp, #8
005BACE6  F8DD 4000		ldr r4, [sp]
005BACEA  B002     		add sp, sp, #8

005BACEC  7837     		ldrb r7, [r6]
005BACEE  42B8     		cmp r0, r7
005BACF0  BF18 2000		nemov r0, #0
005BACF4  BF08 2001		eqmov r0, #1

005BACF8  2800     		cmp r0, #0
005BACFA  D01A     		beq #52 ; 0x005BAD32


005BACFE  F8DF 7354		ldr r7, [pc, #+852] ; 0x8
005BAD02  59F0     		ldr r0, [r6, +r7]
005BAD04  F8DF 7328		ldr r7, [pc, #+808] ; 0xFFFFFFD8
005BAD08  51F0     		str r0, [r6, +r7]

005BAD0A  F8DF 734C		ldr r7, [pc, #+844] ; 0xC
005BAD0E  59F0     		ldr r0, [r6, +r7]
005BAD10  F8DF 7320		ldr r7, [pc, #+800] ; 0xFFFFFFDC
005BAD14  51F0     		str r0, [r6, +r7]

005BAD16  F8DF 731C		ldr r7, [pc, #+796] ; 0xFFFFFFDC
005BAD1A  F856 C007		ldr r12, [r6, +r7]
005BAD1E  F8DC 0000		ldr r0, [r12]
005BAD22  F8DF 730C		ldr r7, [pc, #+780] ; 0xFFFFFFD8
005BAD26  F856 C007		ldr r12, [r6, +r7]
005BAD2A  F8CC 0000		str r0, [r12]

005BAD2E  E0A6     		b #332 ; 0x005BAE7E


005BAD32  F8DF 7318		ldr r7, [pc, #+792] ; 0xFFFFFFF8
005BAD36  19F0     		add r0, r6, r7

005BAD38  B082     		sub sp, sp, #8
005BAD3A  F8CD 4000		str r4, [sp]
005BAD3E  B082     		sub sp, sp, #8
005BAD40  4607     		mov r7, r0
005BAD42  F8CD 7000		str r7, [sp]
005BAD46  F8DF 431C		ldr r4, [pc, #+796] ; 0x5BA574
005BAD4A  F044 0401		orr r4, r4, #1
005BAD4E  47A0     		blx r4
005BAD50  B002     		add sp, sp, #8
005BAD52  F8DD 4000		ldr r4, [sp]
005BAD56  B002     		add sp, sp, #8

005BAD58  F8DF 72D4		ldr r7, [pc, #+724] ; 0xFFFFFFD8
005BAD5C  51F0     		str r0, [r6, +r7]

005BAD5E  F8DF 72F8		ldr r7, [pc, #+760] ; 0xC
005BAD62  59F0     		ldr r0, [r6, +r7]
005BAD64  F8DF 72CC		ldr r7, [pc, #+716] ; 0xFFFFFFDC
005BAD68  51F0     		str r0, [r6, +r7]

005BAD6A  F8DF 72C8		ldr r7, [pc, #+712] ; 0xFFFFFFDC
005BAD6E  F856 C007		ldr r12, [r6, +r7]
005BAD72  F8DC 0000		ldr r0, [r12]
005BAD76  F8DF 72B8		ldr r7, [pc, #+696] ; 0xFFFFFFD8
005BAD7A  F856 C007		ldr r12, [r6, +r7]
005BAD7E  F8CC 0000		str r0, [r12]

005BAD82  F8DF 72B4		ldr r7, [pc, #+692] ; 0xFFFFFFE0
005BAD86  19F0     		add r0, r6, r7

005BAD88  B082     		sub sp, sp, #8
005BAD8A  F8CD 4000		str r4, [sp]
005BAD8E  B082     		sub sp, sp, #8
005BAD90  4607     		mov r7, r0
005BAD92  F8CD 7000		str r7, [sp]
005BAD96  F8DF 42CC		ldr r4, [pc, #+716] ; 0x5BA574
005BAD9A  F044 0401		orr r4, r4, #1
005BAD9E  47A0     		blx r4
005BADA0  B002     		add sp, sp, #8
005BADA2  F8DD 4000		ldr r4, [sp]
005BADA6  B002     		add sp, sp, #8

005BADA8  F8DF 7298		ldr r7, [pc, #+664] ; 0xFFFFFFF0
005BADAC  51F0     		str r0, [r6, +r7]

005BADAE  F8DF 729C		ldr r7, [pc, #+668] ; 0xFFFFFFF8
005BADB2  19F0     		add r0, r6, r7

005BADB4  1CC0     		add r0, r0, #3

005BADB6  B082     		sub sp, sp, #8
005BADB8  F8CD 4000		str r4, [sp]
005BADBC  B082     		sub sp, sp, #8
005BADBE  4607     		mov r7, r0
005BADC0  F8CD 7000		str r7, [sp]
005BADC4  F8DF 429C		ldr r4, [pc, #+668] ; 0x5BA574
005BADC8  F044 0401		orr r4, r4, #1
005BADCC  47A0     		blx r4
005BADCE  B002     		add sp, sp, #8
005BADD0  F8DD 4000		ldr r4, [sp]
005BADD4  B002     		add sp, sp, #8

005BADD6  F8DF 7270		ldr r7, [pc, #+624] ; 0xFFFFFFF4
005BADDA  51F0     		str r0, [r6, +r7]

005BADDC  2000     		mov r0, #0 ; 0

005BADDE  4681     		mov r9, r0

005BADE0  4648     		mov r0, r9

005BADE2  2803     		cmp r0, #3
005BADE4  BF98 2000		lsmov r0, #0
005BADE8  BF88 2001		himov r0, #1

005BADEC  2800     		cmp r0, #0
005BADEE  D11E     		bne #60 ; 0x005BAE2E


005BADF2  F8DF 7254		ldr r7, [pc, #+596] ; 0xFFFFFFF4
005BADF6  F856 C007		ldr r12, [r6, +r7]
005BADFA  F89C 0000		ldrb r0, [r12]
005BADFE  F8DF 7244		ldr r7, [pc, #+580] ; 0xFFFFFFF0
005BAE02  F856 C007		ldr r12, [r6, +r7]
005BAE06  F88C 0000		strb r0, [r12]

005BAE0A  F8DF 7238		ldr r7, [pc, #+568] ; 0xFFFFFFF0
005BAE0E  59F0     		ldr r0, [r6, +r7]

005BAE10  1C40     		add r0, r0, #1

005BAE12  F8DF 7230		ldr r7, [pc, #+560] ; 0xFFFFFFF0
005BAE16  51F0     		str r0, [r6, +r7]

005BAE18  F8DF 722C		ldr r7, [pc, #+556] ; 0xFFFFFFF4
005BAE1C  59F0     		ldr r0, [r6, +r7]

005BAE1E  1E40     		sub r0, r0, #1

005BAE20  F8DF 7224		ldr r7, [pc, #+548] ; 0xFFFFFFF4
005BAE24  51F0     		str r0, [r6, +r7]

005BAE26  4648     		mov r0, r9

005BAE28  1C40     		add r0, r0, #1

005BAE2A  4681     		mov r9, r0

005BAE2C  E7D8     		b #-80 ; 0x005BADE0

005BAE2E  F8DF 7224		ldr r7, [pc, #+548] ; 0x8
005BAE32  59F0     		ldr r0, [r6, +r7]
005BAE34  F8DF 71F8		ldr r7, [pc, #+504] ; 0xFFFFFFD8
005BAE38  51F0     		str r0, [r6, +r7]

005BAE3A  F8DF 71FC		ldr r7, [pc, #+508] ; 0xFFFFFFE0
005BAE3E  19F0     		add r0, r6, r7

005BAE40  B082     		sub sp, sp, #8
005BAE42  F8CD 4000		str r4, [sp]
005BAE46  B082     		sub sp, sp, #8
005BAE48  4607     		mov r7, r0
005BAE4A  F8CD 7000		str r7, [sp]
005BAE4E  F8DF 4214		ldr r4, [pc, #+532] ; 0x5BA574
005BAE52  F044 0401		orr r4, r4, #1
005BAE56  47A0     		blx r4
005BAE58  B002     		add sp, sp, #8
005BAE5A  F8DD 4000		ldr r4, [sp]
005BAE5E  B002     		add sp, sp, #8

005BAE60  F8DF 71D0		ldr r7, [pc, #+464] ; 0xFFFFFFDC
005BAE64  51F0     		str r0, [r6, +r7]

005BAE66  F8DF 71CC		ldr r7, [pc, #+460] ; 0xFFFFFFDC
005BAE6A  F856 C007		ldr r12, [r6, +r7]
005BAE6E  F8DC 0000		ldr r0, [r12]
005BAE72  F8DF 71BC		ldr r7, [pc, #+444] ; 0xFFFFFFD8
005BAE76  F856 C007		ldr r12, [r6, +r7]
005BAE7A  F8CC 0000		str r0, [r12]

005BAE7E  E0CC     		b #408 ; 0x005BB01A


005BAE82  B082     		sub sp, sp, #8
005BAE84  F8CD 4000		str r4, [sp]
005BAE88  B082     		sub sp, sp, #8
005BAE8A  F8CD 4000		str r4, [sp]
005BAE8E  2001     		mov r0, #1 ; 1
005BAE90  F8DF 41C8		ldr r4, [pc, #+456] ; 0x4A20A1
005BAE94  F044 0401		orr r4, r4, #1
005BAE98  47A0     		blx r4
005BAE9A  F8DD 4000		ldr r4, [sp]
005BAE9E  B002     		add sp, sp, #8
005BAEA0  F8DD 4000		ldr r4, [sp]
005BAEA4  B002     		add sp, sp, #8

005BAEA6  7837     		ldrb r7, [r6]
005BAEA8  42B8     		cmp r0, r7
005BAEAA  BF18 2000		nemov r0, #0
005BAEAE  BF08 2001		eqmov r0, #1

005BAEB2  2800     		cmp r0, #0
005BAEB4  D01C     		beq #56 ; 0x005BAEF0


005BAEB8  B082     		sub sp, sp, #8
005BAEBA  F8CD 4000		str r4, [sp]
005BAEBE  B082     		sub sp, sp, #8
005BAEC0  F8CD 4000		str r4, [sp]
005BAEC4  F8DF 718C		ldr r7, [pc, #+396] ; 0x8
005BAEC8  59F0     		ldr r0, [r6, +r7]
005BAECA  F8DF 718C		ldr r7, [pc, #+396] ; 0xC
005BAECE  59F1     		ldr r1, [r6, +r7]
005BAED0  2708     		mov r7, #8 ; 8
005BAED2  463A     		mov r2, r7
005BAED4  F8DF 4188		ldr r4, [pc, #+392] ; 0x4A232D
005BAED8  F044 0401		orr r4, r4, #1
005BAEDC  47A0     		blx r4
005BAEDE  F8DD 4000		ldr r4, [sp]
005BAEE2  B002     		add sp, sp, #8
005BAEE4  F8DD 4000		ldr r4, [sp]
005BAEE8  B002     		add sp, sp, #8

005BAEEA  4681     		mov r9, r0

005BAEEC  E08F     		b #286 ; 0x005BB00E


005BAEF0  F8DF 7158		ldr r7, [pc, #+344] ; 0xFFFFFFF8
005BAEF4  19F0     		add r0, r6, r7

005BAEF6  B082     		sub sp, sp, #8
005BAEF8  F8CD 4000		str r4, [sp]
005BAEFC  B082     		sub sp, sp, #8
005BAEFE  F8CD 4000		str r4, [sp]
005BAF02  4607     		mov r7, r0
005BAF04  4638     		mov r0, r7
005BAF06  F8DF 7150		ldr r7, [pc, #+336] ; 0xC
005BAF0A  59F1     		ldr r1, [r6, +r7]
005BAF0C  2708     		mov r7, #8 ; 8
005BAF0E  463A     		mov r2, r7
005BAF10  F8DF 414C		ldr r4, [pc, #+332] ; 0x4A232D
005BAF14  F044 0401		orr r4, r4, #1
005BAF18  47A0     		blx r4
005BAF1A  F8DD 4000		ldr r4, [sp]
005BAF1E  B002     		add sp, sp, #8
005BAF20  F8DD 4000		ldr r4, [sp]
005BAF24  B002     		add sp, sp, #8

005BAF26  4681     		mov r9, r0

005BAF28  F8DF 710C		ldr r7, [pc, #+268] ; 0xFFFFFFE0
005BAF2C  19F0     		add r0, r6, r7

005BAF2E  B082     		sub sp, sp, #8
005BAF30  F8CD 4000		str r4, [sp]
005BAF34  B082     		sub sp, sp, #8
005BAF36  4607     		mov r7, r0
005BAF38  F8CD 7000		str r7, [sp]
005BAF3C  F8DF 4124		ldr r4, [pc, #+292] ; 0x5BA574
005BAF40  F044 0401		orr r4, r4, #1
005BAF44  47A0     		blx r4
005BAF46  B002     		add sp, sp, #8
005BAF48  F8DD 4000		ldr r4, [sp]
005BAF4C  B002     		add sp, sp, #8

005BAF4E  F8DF 70F4		ldr r7, [pc, #+244] ; 0xFFFFFFF0
005BAF52  51F0     		str r0, [r6, +r7]

005BAF54  F8DF 70F4		ldr r7, [pc, #+244] ; 0xFFFFFFF8
005BAF58  19F0     		add r0, r6, r7

005BAF5A  1DC0     		add r0, r0, #7

005BAF5C  B082     		sub sp, sp, #8
005BAF5E  F8CD 4000		str r4, [sp]
005BAF62  B082     		sub sp, sp, #8
005BAF64  4607     		mov r7, r0
005BAF66  F8CD 7000		str r7, [sp]
005BAF6A  F8DF 40F8		ldr r4, [pc, #+248] ; 0x5BA574
005BAF6E  F044 0401		orr r4, r4, #1
005BAF72  47A0     		blx r4
005BAF74  B002     		add sp, sp, #8
005BAF76  F8DD 4000		ldr r4, [sp]
005BAF7A  B002     		add sp, sp, #8

005BAF7C  F8DF 70C8		ldr r7, [pc, #+200] ; 0xFFFFFFF4
005BAF80  51F0     		str r0, [r6, +r7]

005BAF82  2000     		mov r0, #0 ; 0

005BAF84  4681     		mov r9, r0

005BAF86  4648     		mov r0, r9

005BAF88  2807     		cmp r0, #7
005BAF8A  BF98 2000		lsmov r0, #0
005BAF8E  BF88 2001		himov r0, #1

005BAF92  2800     		cmp r0, #0
005BAF94  D11E     		bne #60 ; 0x005BAFD4


005BAF98  F8DF 70AC		ldr r7, [pc, #+172] ; 0xFFFFFFF4
005BAF9C  F856 C007		ldr r12, [r6, +r7]
005BAFA0  F89C 0000		ldrb r0, [r12]
005BAFA4  F8DF 709C		ldr r7, [pc, #+156] ; 0xFFFFFFF0
005BAFA8  F856 C007		ldr r12, [r6, +r7]
005BAFAC  F88C 0000		strb r0, [r12]

005BAFB0  F8DF 7090		ldr r7, [pc, #+144] ; 0xFFFFFFF0
005BAFB4  59F0     		ldr r0, [r6, +r7]

005BAFB6  1C40     		add r0, r0, #1

005BAFB8  F8DF 7088		ldr r7, [pc, #+136] ; 0xFFFFFFF0
005BAFBC  51F0     		str r0, [r6, +r7]

005BAFBE  F8DF 7088		ldr r7, [pc, #+136] ; 0xFFFFFFF4
005BAFC2  59F0     		ldr r0, [r6, +r7]

005BAFC4  1E40     		sub r0, r0, #1

005BAFC6  F8DF 7080		ldr r7, [pc, #+128] ; 0xFFFFFFF4
005BAFCA  51F0     		str r0, [r6, +r7]

005BAFCC  4648     		mov r0, r9

005BAFCE  1C40     		add r0, r0, #1

005BAFD0  4681     		mov r9, r0

005BAFD2  E7D8     		b #-80 ; 0x005BAF86

005BAFD4  F8DF 7060		ldr r7, [pc, #+96] ; 0xFFFFFFE0
005BAFD8  19F0     		add r0, r6, r7

005BAFDA  4682     		mov r10, r0

005BAFDC  B082     		sub sp, sp, #8
005BAFDE  F8CD 4000		str r4, [sp]
005BAFE2  B082     		sub sp, sp, #8
005BAFE4  F8CD 4000		str r4, [sp]
005BAFE8  F8DF 7068		ldr r7, [pc, #+104] ; 0x8
005BAFEC  59F0     		ldr r0, [r6, +r7]
005BAFEE  4657     		mov r7, r10
005BAFF0  4639     		mov r1, r7
005BAFF2  2708     		mov r7, #8 ; 8
005BAFF4  463A     		mov r2, r7
005BAFF6  F8DF 4068		ldr r4, [pc, #+104] ; 0x4A232D
005BAFFA  F044 0401		orr r4, r4, #1
005BAFFE  47A0     		blx r4
005BB000  F8DD 4000		ldr r4, [sp]
005BB004  B002     		add sp, sp, #8
005BB006  F8DD 4000		ldr r4, [sp]
005BB00A  B002     		add sp, sp, #8

005BB00C  4681     		mov r9, r0

005BB00E  E004     		b #8 ; 0x005BB01A


005BB012  2000     		mov r0, #0 ; 0
005BB014  4604     		mov r4, r0

005BB016  E002     		b #4 ; 0x005BB01E


005BB01A  2001     		mov r0, #1 ; 1
005BB01C  4604     		mov r4, r0

005BB01E  4620     		mov r0, r4
005BB020  E8BD 1E50		ldmia sp!, { r4, r6, r9, r10, r11, r12 }
005BB024  F8DD E000		ldr lr, [sp]
005BB028  B002     		add sp, sp, #8
005BB02A  B00A     		add sp, sp, #40

005BB02C  4770     		bx lr

005BB030  FFFFFFD8		; 0xFFFFFFD8
005BB034  FFFFFFDC		; 0xFFFFFFDC
005BB038  FFFFFFE0		; 0xFFFFFFE0
005BB03C  FFFFFFE8		; 0xFFFFFFE8
005BB040  FFFFFFEC		; 0xFFFFFFEC
005BB044  FFFFFFF0		; 0xFFFFFFF0
005BB048  FFFFFFF4		; 0xFFFFFFF4
005BB04C  FFFFFFF8		; 0xFFFFFFF8
005BB050  00000004		; 0x00000004
005BB054  00000008		; 0x00000008
005BB058  0000000C		; 0x0000000C
005BB05C  004A20A1		; 0x004A20A1
005BB060  004A232D		; 0x004A232D
005BB064  005BA574		; 0x005BA574

END_FUNCTION
**************************************************
	List function: XUnifiedLibInit
**************************************************

FUNCTION XUnifiedLibInit : BOOL

	{ DE:"(Sfr094a040) eLLabXUnified12Lib - XUnified library init" }

        VAR_INPUT
Cmd : BOOL;	{ DE:"Command" }
	END_VAR

        VAR
i : UDINT;	{ DE:"Auxiliary variable" }
Version : STRING[ 10 ] := 'Sfr094a040';	{ DE:"Library version" }
	END_VAR

END_FUNCTION

	*** Function data allocation

	Par Cmd: CALLER STACK FRAME AT sp+0
	Var i: REGISTER _TMP_32LO
	Var Version: LOCAL STACK FRAME AT sp-12

005BB068  466F     		mov r7, sp
005BB06A  B084     		sub sp, sp, #16
005BB06C  B082     		sub sp, sp, #8
005BB06E  F8CD E000		str lr, [sp]
005BB072  E92D 1E50		stmdb sp!, { r4, r6, r9, r10, r11, r12 }
005BB076  463E     		mov r6, r7
005BB078  2400     		mov r4, #0

005BB07A  F8DF 7160		ldr r7, [pc, #+352] ; 0x30726653
005BB07E  F8DF 8134		ldr r8, [pc, #+308] ; 0xFFFFFFF4
005BB082  EB06 0808		add r8, r6, r8
005BB086  F8C8 7000		str r7, [r8]
005BB08A  F8DF 714C		ldr r7, [pc, #+332] ; 0x30613439
005BB08E  F8DF 8128		ldr r8, [pc, #+296] ; 0xFFFFFFF8
005BB092  EB06 0808		add r8, r6, r8
005BB096  F8C8 7000		str r7, [r8]
005BB09A  F8DF 7128		ldr r7, [pc, #+296] ; 0x3034
005BB09E  F8DF 811C		ldr r8, [pc, #+284] ; 0xFFFFFFFC
005BB0A2  EB06 0808		add r8, r6, r8
005BB0A6  F8A8 7000		strh r7, [r8]
005BB0AA  2700     		mov r7, #0
005BB0AC  F8DF 8110		ldr r8, [pc, #+272] ; 0xFFFFFFFE
005BB0B0  EB06 0808		add r8, r6, r8
005BB0B4  F888 7000		strb r7, [r8]

005BB0B8  2000     		mov r0, #0 ; 0

005BB0BA  4681     		mov r9, r0

005BB0BC  4648     		mov r0, r9

005BB0BE  B082     		sub sp, sp, #8
005BB0C0  F8CD 0000		str r0, [sp]
005BB0C4  200B     		mov r0, #11 ; 11

005BB0C6  1E80     		sub r0, r0, #2

005BB0C8  4607     		mov r7, r0
005BB0CA  F8DD 0000		ldr r0, [sp]
005BB0CE  B002     		add sp, sp, #8
005BB0D0  42B8     		cmp r0, r7
005BB0D2  BF98 2000		lsmov r0, #0
005BB0D6  BF88 2001		himov r0, #1

005BB0DA  2800     		cmp r0, #0
005BB0DC  D144     		bne #136 ; 0x005BB168


005BB0E0  F8DF 70D0		ldr r7, [pc, #+208] ; 0xFFFFFFF4
005BB0E4  19F0     		add r0, r6, r7

005BB0E6  4448     		add r0, r0, r9

005BB0E8  B082     		sub sp, sp, #8
005BB0EA  F8CD 4000		str r4, [sp]
005BB0EE  B082     		sub sp, sp, #8
005BB0F0  4607     		mov r7, r0
005BB0F2  F8CD 7000		str r7, [sp]
005BB0F6  F8DF 40D8		ldr r4, [pc, #+216] ; 0x5BA4E8
005BB0FA  F044 0401		orr r4, r4, #1
005BB0FE  47A0     		blx r4
005BB100  B002     		add sp, sp, #8
005BB102  F8DD 4000		ldr r4, [sp]
005BB106  B002     		add sp, sp, #8

005BB108  B082     		sub sp, sp, #8
005BB10A  F8CD 4000		str r4, [sp]
005BB10E  B082     		sub sp, sp, #8
005BB110  F8CD 4000		str r4, [sp]
005BB114  4607     		mov r7, r0
005BB116  4638     		mov r0, r7
005BB118  F8DF 40AC		ldr r4, [pc, #+172] ; 0x4A2561
005BB11C  F044 0401		orr r4, r4, #1
005BB120  47A0     		blx r4
005BB122  F8DD 4000		ldr r4, [sp]
005BB126  B002     		add sp, sp, #8
005BB128  F8DD 4000		ldr r4, [sp]
005BB12C  B002     		add sp, sp, #8

005BB12E  4682     		mov r10, r0

005BB130  F8DF 7080		ldr r7, [pc, #+128] ; 0xFFFFFFF4
005BB134  19F0     		add r0, r6, r7

005BB136  4448     		add r0, r0, r9

005BB138  B082     		sub sp, sp, #8
005BB13A  F8CD 4000		str r4, [sp]
005BB13E  B082     		sub sp, sp, #8
005BB140  4607     		mov r7, r0
005BB142  F8CD 7000		str r7, [sp]
005BB146  4657     		mov r7, r10
005BB148  F8CD 7004		str r7, [sp, #+4]
005BB14C  F8DF 4084		ldr r4, [pc, #+132] ; 0x5BA53C
005BB150  F044 0401		orr r4, r4, #1
005BB154  47A0     		blx r4
005BB156  B002     		add sp, sp, #8
005BB158  F8DD 4000		ldr r4, [sp]
005BB15C  B002     		add sp, sp, #8

005BB15E  4604     		mov r4, r0

005BB160  4648     		mov r0, r9

005BB162  1C40     		add r0, r0, #1

005BB164  4681     		mov r9, r0

005BB166  E7A9     		b #-174 ; 0x005BB0BC

005BB168  F8DF 7048		ldr r7, [pc, #+72] ; 0xFFFFFFF4
005BB16C  19F0     		add r0, r6, r7

005BB16E  4683     		mov r11, r0

005BB170  B082     		sub sp, sp, #8
005BB172  F8CD 4000		str r4, [sp]
005BB176  B082     		sub sp, sp, #8
005BB178  F8CD 4000		str r4, [sp]
005BB17C  2001     		mov r0, #1 ; 1
005BB17E  2701     		mov r7, #1 ; 1
005BB180  4639     		mov r1, r7
005BB182  465F     		mov r7, r11
005BB184  463A     		mov r2, r7
005BB186  F8DF 4044		ldr r4, [pc, #+68] ; 0x4A25A1
005BB18A  F044 0401		orr r4, r4, #1
005BB18E  47A0     		blx r4
005BB190  F8DD 4000		ldr r4, [sp]
005BB194  B002     		add sp, sp, #8
005BB196  F8DD 4000		ldr r4, [sp]
005BB19A  B002     		add sp, sp, #8

005BB19C  4681     		mov r9, r0

005BB19E  2001     		mov r0, #1 ; 1
005BB1A0  4604     		mov r4, r0

005BB1A2  4620     		mov r0, r4
005BB1A4  E8BD 1E50		ldmia sp!, { r4, r6, r9, r10, r11, r12 }
005BB1A8  F8DD E000		ldr lr, [sp]
005BB1AC  B002     		add sp, sp, #8
005BB1AE  B004     		add sp, sp, #16

005BB1B0  4770     		bx lr

005BB1B4  FFFFFFF4		; 0xFFFFFFF4
005BB1B8  FFFFFFF8		; 0xFFFFFFF8
005BB1BC  FFFFFFFC		; 0xFFFFFFFC
005BB1C0  FFFFFFFE		; 0xFFFFFFFE
005BB1C4  00003034		; 0x00003034
005BB1C8  004A2561		; 0x004A2561
005BB1CC  004A25A1		; 0x004A25A1
005BB1D0  005BA4E8		; 0x005BA4E8
005BB1D4  005BA53C		; 0x005BA53C
005BB1D8  30613439		; 0x30613439
005BB1DC  30726653		; 0x30726653

END_FUNCTION
**************************************************
	List function block: FB_MacManager
**************************************************

FUNCTION_BLOCK FB_MacManager

        VAR_INPUT
IN_MACHINE_DT_Word : WORD := 0;	{ DE:"Machine word. 2 counters (A, B). Digital Twin" }
IN_FILTER_RUN_STATE_ON_mSec : WORD := 10;	{ DE:"Timing filter for counter A ON" }
IN_FILTER_RUN_STATE_OFF_mSec : WORD := 10;	{ DE:"Timing filter for counter A OFF" }
IN_FILTER_CNT_A_ON_mSec : WORD := 10;	{ DE:"Timing filter for counter A ON" }
IN_FILTER_CNT_A_OFF_mSec : WORD := 10;	{ DE:"Timing filter for counter A OFF" }
IN_FILTER_CNT_B_ON_mSec : WORD := 10;	{ DE:"Timing filter for counter B ON" }
IN_FILTER_CNT_B_OFF_mSec : WORD := 10;	{ DE:"Timing filter for counter B OFF" }
IN_WARNING_DELAY_Sec : WORD := 180;	{ DE:"Delaying for stop machine before warning" }
IN_PRESET_CNT_A_dUInt : REAL := 0.0;	{ DE:"Preset Counter A" }
IN_PRESET_CNT_B_dUInt : REAL := 0.0;	{ DE:"Preset Counter B" }
IN_CNT_A_STEP_UP : REAL := 1.0;
IN_CNT_B_STEP_UP : REAL := 1.0;
	END_VAR

        VAR_OUTPUT
OUT_STROBE_bool : BOOL := False;	{ DE:"Strobe bool signal for changes" }
OUT_RUN_STATE_bool : BOOL := False;	{ DE:"Machine run state" }
OUT_COUNTER_A_dUInt : REAL := 0.0;	{ DE:"Counter A value" }
OUT_COUNTER_B_dUInt : REAL := 0.0;	{ DE:"Counter B value" }
OUT_WARNING_bool : BOOL := False;	{ DE:"Warning reported out" }
	END_VAR

        VAR
mac_byte_to_bit : ByteToBit;	{ DE:"internal use" }
mac_bytes : ARRAY[0..1] OF BYTE := [0,0];	{ DE:"internal use" }
mac_lsb_bits : ARRAY[0..7] OF BOOL := [0,0,0,0,0,0,0,0];	{ DE:"internal use" }
mac_msb_bits : ARRAY[0..7] OF BOOL := [0,0,0,0,0,0,0,0];	{ DE:"internal use" }
I_Enable : BOOL;
I_Fermo : BOOL;
I_ResetCnt : BOOL;
I_PreSetCnt : BOOL;
I_Stato : BOOL;
bStatoRun : BOOL;
bAppStatoRun : BOOL;
bStatoRunOn : BOOL;
bStatoRunOff : BOOL;
StatoRunTON : eTON;
StatoRunTOFF : eTON;
I_ProdA : BOOL;
bCntRTA : BOOL;
bAppCntRTA : BOOL;
bCntRTAOn : BOOL;
bCntRTAOff : BOOL;
CntRTATON : eTON;
CntRTATOFF : eTON;
I_ProdB : BOOL;
bCntRTB : BOOL;
bAppCntRTB : BOOL;
bCntRTBOn : BOOL;
bCntRTBOff : BOOL;
CntRTBTON : eTON;
CntRTBTOFF : eTON;
OLD_OUT_RUN_STATE_bool : BOOL := FALSE;
tWarning : eTON;
bChanges : BOOL;
PTrigger : R_TRIG;	{ DE:"Pulse trigger" }
	END_VAR

END_FUNCTION_BLOCK

005BB1E0  E92D 4040		stmdb sp!, { r6, lr }
005BB1E4  462E     		mov r6, r5

#0		{SRC:FB_MacManager}
#1		(*$WAITSWITCH$*)
#2		
#3			(* mac_bytes[0] := TO_BYTE(IN_MACHINE_DT_Word); *)
#4			LDP0		IN_MACHINE_DT_Word	{LNXT:11|12|-1}
(-) UNDEF
#5			TO_BYTE	{LNXT:11|12|-1}
(*) UNDEF
005BB1E6  F8DF 7784		ldr r7, [pc, #+1924] ; 0xD0
005BB1EA  5BF0     		ldrh r0, [r6, +r7]

#6			ST		mac_bytes[0]	{LNXT:11|12|-1}
(*) BYTE
005BB1EC  F8DF 7698		ldr r7, [pc, #+1688] ; 0xC
005BB1F0  55F0     		strb r0, [r6, +r7]

#7		
#8			(* mac_bytes[1] := TO_BYTE(IN_MACHINE_DT_Word / 256); *)
#9			LD		IN_MACHINE_DT_Word	{LNXT:12|14|-1}
(*) UNDEF
005BB1F2  F8DF 7778		ldr r7, [pc, #+1912] ; 0xD0
005BB1F6  5BF0     		ldrh r0, [r6, +r7]

#10			DIV		256	{LNXT:12|14|-1}
(*) WORD
005BB1F8  F44F 7780		mov r7, #256 ; 256
005BB1FC  B082     		sub sp, sp, #8
005BB1FE  F8CD 1000		str r1, [sp]
005BB202  4639     		mov r1, r7
005BB204  FBB0 F0F1		udiv r0, r0, r1
005BB208  F8DD 1000		ldr r1, [sp]
005BB20C  B002     		add sp, sp, #8

#11			TO_BYTE	{LNXT:12|14|-1}
(-) WORD
#12			ST		mac_bytes[1]	{LNXT:12|14|-1}
(*) BYTE
005BB20E  F8DF 767C		ldr r7, [pc, #+1660] ; 0xD
005BB212  55F0     		strb r0, [r6, +r7]

#13		
#14			(* mac_byte_to_bit *)
#15			MOVE		mac_bytes[0],mac_byte_to_bit.In	{LNXT:14|-1|-1}
(*) BYTE
005BB214  F8DF 7670		ldr r7, [pc, #+1648] ; 0xC
005BB218  5DF0     		ldrb r0, [r6, +r7]
005BB21A  7030     		strb r0, [r6]

#16			CAL		mac_byte_to_bit	{LNXT:14|15|-1}
(*) BYTE
005BB21C  E92D 0021		stmdb sp!, { r0, r5 }
005BB220  4635     		mov r5, r6
005BB222  F8DF 4794		ldr r4, [pc, #+1940] ; 0x5BA6A8
005BB226  F044 0401		orr r4, r4, #1
005BB22A  47A0     		blx r4
005BB22C  E8BD 0021		ldmia sp!, { r0, r5 }

#17		
#18			(* I_Enable		:=mac_byte_to_bit.b0; *)
#19			MOVE		mac_byte_to_bit.b0,I_Enable	{LNXT:15|16|-1}
(*) BYTE
005BB230  F8DF 7634		ldr r7, [pc, #+1588] ; 0x1
005BB234  5DF0     		ldrb r0, [r6, +r7]
005BB236  F8DF 767C		ldr r7, [pc, #+1660] ; 0x1E
005BB23A  55F0     		strb r0, [r6, +r7]

#20		
#21			(* I_Fermo			:=mac_byte_to_bit.b1; *)
#22			MOVE		mac_byte_to_bit.b1,I_Fermo	{LNXT:16|17|-1}
(*) BOOL
005BB23C  F8DF 762C		ldr r7, [pc, #+1580] ; 0x2
005BB240  5DF0     		ldrb r0, [r6, +r7]
005BB242  F8DF 7674		ldr r7, [pc, #+1652] ; 0x1F
005BB246  55F0     		strb r0, [r6, +r7]

#23		
#24			(* I_ResetCnt		:=mac_byte_to_bit.b2; *)
#25			MOVE		mac_byte_to_bit.b2,I_ResetCnt	{LNXT:17|18|-1}
(*) BOOL
005BB248  F8DF 7624		ldr r7, [pc, #+1572] ; 0x3
005BB24C  5DF0     		ldrb r0, [r6, +r7]
005BB24E  F8DF 766C		ldr r7, [pc, #+1644] ; 0x20
005BB252  55F0     		strb r0, [r6, +r7]

#26		
#27			(* I_PreSetCnt		:=mac_byte_to_bit.b3; *)
#28			MOVE		mac_byte_to_bit.b3,I_PreSetCnt	{LNXT:18|19|-1}
(*) BOOL
005BB254  F8DF 761C		ldr r7, [pc, #+1564] ; 0x4
005BB258  5DF0     		ldrb r0, [r6, +r7]
005BB25A  F8DF 7664		ldr r7, [pc, #+1636] ; 0x21
005BB25E  55F0     		strb r0, [r6, +r7]

#29		
#30			(* mac_lsb_bits[4] :=mac_byte_to_bit.b4; *)
#31			MOVE		mac_byte_to_bit.b4,mac_lsb_bits[4]	{LNXT:19|20|-1}
(*) BOOL
005BB260  F8DF 7614		ldr r7, [pc, #+1556] ; 0x5
005BB264  5DF0     		ldrb r0, [r6, +r7]
005BB266  F8DF 7628		ldr r7, [pc, #+1576] ; 0x12
005BB26A  55F0     		strb r0, [r6, +r7]

#32		
#33			(* mac_lsb_bits[5] :=mac_byte_to_bit.b5; *)
#34			MOVE		mac_byte_to_bit.b5,mac_lsb_bits[5]	{LNXT:20|21|-1}
(*) BOOL
005BB26C  F8DF 760C		ldr r7, [pc, #+1548] ; 0x6
005BB270  5DF0     		ldrb r0, [r6, +r7]
005BB272  F8DF 7620		ldr r7, [pc, #+1568] ; 0x13
005BB276  55F0     		strb r0, [r6, +r7]

#35		
#36			(* mac_lsb_bits[6] :=mac_byte_to_bit.b6; *)
#37			MOVE		mac_byte_to_bit.b6,mac_lsb_bits[6]	{LNXT:21|22|-1}
(*) BOOL
005BB278  F8DF 7604		ldr r7, [pc, #+1540] ; 0x7
005BB27C  5DF0     		ldrb r0, [r6, +r7]
005BB27E  F8DF 7618		ldr r7, [pc, #+1560] ; 0x14
005BB282  55F0     		strb r0, [r6, +r7]

#38		
#39			(* mac_lsb_bits[7] :=mac_byte_to_bit.b7; *)
#40			MOVE		mac_byte_to_bit.b7,mac_lsb_bits[7]	{LNXT:22|24|-1}
(*) BOOL
005BB284  F8DF 75FC		ldr r7, [pc, #+1532] ; 0x8
005BB288  5DF0     		ldrb r0, [r6, +r7]
005BB28A  F8DF 7610		ldr r7, [pc, #+1552] ; 0x15
005BB28E  55F0     		strb r0, [r6, +r7]

#41		
#42			(* mac_byte_to_bit *)
#43			MOVE		mac_bytes[1],mac_byte_to_bit.In	{LNXT:24|-1|-1}
(*) BOOL
005BB290  F8DF 75F8		ldr r7, [pc, #+1528] ; 0xD
005BB294  5DF0     		ldrb r0, [r6, +r7]
005BB296  7030     		strb r0, [r6]

#44			CAL		mac_byte_to_bit	{LNXT:24|25|-1}
(*) BYTE
005BB298  E92D 0021		stmdb sp!, { r0, r5 }
005BB29C  4635     		mov r5, r6
005BB29E  F8DF 4718		ldr r4, [pc, #+1816] ; 0x5BA6A8
005BB2A2  F044 0401		orr r4, r4, #1
005BB2A6  47A0     		blx r4
005BB2A8  E8BD 0021		ldmia sp!, { r0, r5 }

#45		
#46			(* I_Stato		    :=mac_byte_to_bit.b0; *)
#47			MOVE		mac_byte_to_bit.b0,I_Stato	{LNXT:25|26|-1}
(*) BYTE
005BB2AC  F8DF 75B8		ldr r7, [pc, #+1464] ; 0x1
005BB2B0  5DF0     		ldrb r0, [r6, +r7]
005BB2B2  F8DF 7610		ldr r7, [pc, #+1552] ; 0x22
005BB2B6  55F0     		strb r0, [r6, +r7]

#48		
#49			(* I_ProdA			:=mac_byte_to_bit.b1; *)
#50			MOVE		mac_byte_to_bit.b1,I_ProdA	{LNXT:26|27|-1}
(*) BOOL
005BB2B8  F8DF 75B0		ldr r7, [pc, #+1456] ; 0x2
005BB2BC  5DF0     		ldrb r0, [r6, +r7]
005BB2BE  F8DF 7630		ldr r7, [pc, #+1584] ; 0x50
005BB2C2  55F0     		strb r0, [r6, +r7]

#51		
#52			(* I_ProdB		    :=mac_byte_to_bit.b2; *)
#53			MOVE		mac_byte_to_bit.b2,I_ProdB	{LNXT:27|28|-1}
(*) BOOL
005BB2C4  F8DF 75A8		ldr r7, [pc, #+1448] ; 0x3
005BB2C8  5DF0     		ldrb r0, [r6, +r7]
005BB2CA  F8DF 7650		ldr r7, [pc, #+1616] ; 0x80
005BB2CE  55F0     		strb r0, [r6, +r7]

#54		
#55			(* mac_msb_bits[3] :=mac_byte_to_bit.b3; *)
#56			MOVE		mac_byte_to_bit.b3,mac_msb_bits[3]	{LNXT:28|29|-1}
(*) BOOL
005BB2D0  F8DF 75A0		ldr r7, [pc, #+1440] ; 0x4
005BB2D4  5DF0     		ldrb r0, [r6, +r7]
005BB2D6  F8DF 75C8		ldr r7, [pc, #+1480] ; 0x19
005BB2DA  55F0     		strb r0, [r6, +r7]

#57		
#58			(* mac_msb_bits[4] :=mac_byte_to_bit.b4; *)
#59			MOVE		mac_byte_to_bit.b4,mac_msb_bits[4]	{LNXT:29|30|-1}
(*) BOOL
005BB2DC  F8DF 7598		ldr r7, [pc, #+1432] ; 0x5
005BB2E0  5DF0     		ldrb r0, [r6, +r7]
005BB2E2  F8DF 75C0		ldr r7, [pc, #+1472] ; 0x1A
005BB2E6  55F0     		strb r0, [r6, +r7]

#60		
#61			(* mac_msb_bits[5] :=mac_byte_to_bit.b5; *)
#62			MOVE		mac_byte_to_bit.b5,mac_msb_bits[5]	{LNXT:30|31|-1}
(*) BOOL
005BB2E8  F8DF 7590		ldr r7, [pc, #+1424] ; 0x6
005BB2EC  5DF0     		ldrb r0, [r6, +r7]
005BB2EE  F8DF 75B8		ldr r7, [pc, #+1464] ; 0x1B
005BB2F2  55F0     		strb r0, [r6, +r7]

#63		
#64			(* mac_msb_bits[6] :=mac_byte_to_bit.b6; *)
#65			MOVE		mac_byte_to_bit.b6,mac_msb_bits[6]	{LNXT:31|32|-1}
(*) BOOL
005BB2F4  F8DF 7588		ldr r7, [pc, #+1416] ; 0x7
005BB2F8  5DF0     		ldrb r0, [r6, +r7]
005BB2FA  F8DF 75B0		ldr r7, [pc, #+1456] ; 0x1C
005BB2FE  55F0     		strb r0, [r6, +r7]

#66		
#67			(* mac_msb_bits[7] :=mac_byte_to_bit.b7; *)
#68			MOVE		mac_byte_to_bit.b7,mac_msb_bits[7]	{LNXT:32|37|-1}
(*) BOOL
005BB300  F8DF 7580		ldr r7, [pc, #+1408] ; 0x8
005BB304  5DF0     		ldrb r0, [r6, +r7]
005BB306  F8DF 75A8		ldr r7, [pc, #+1448] ; 0x1D
005BB30A  55F0     		strb r0, [r6, +r7]

#69		
#70		
#71			(* IF I_PreSetCnt AND I_Enable *)
#72			LD		I_PreSetCnt	{LNXT:37|-1|-1}
(*) UNDEF
005BB30C  F8DF 75B0		ldr r7, [pc, #+1456] ; 0x21
005BB310  5DF0     		ldrb r0, [r6, +r7]

#73			AND		I_Enable	{LNXT:37|-1|-1}
(*) BOOL
005BB312  F8DF 75A0		ldr r7, [pc, #+1440] ; 0x1E
005BB316  5DF7     		ldrb r7, [r6, +r7]
005BB318  4038     		and r0, r0, r7

#74			JMPCN	$label0	{LNXT:37|39|50}
(-) BOOL
005BB31A  2800     		cmp r0, #0
005BB31C  D00C     		beq #24 ; 0x005BB338


#75		
#76			(* THEN *)
#77		
#78				(* OUT_COUNTER_A_dUInt := IN_PRESET_CNT_A_dUInt; *)
#79				MOVE		IN_PRESET_CNT_A_dUInt,OUT_COUNTER_A_dUInt	{LNXT:39|40|-1}
(*) BOOL
005BB320  F8DF 7668		ldr r7, [pc, #+1640] ; 0xE0
005BB324  59F0     		ldr r0, [r6, +r7]
005BB326  F8DF 767C		ldr r7, [pc, #+1660] ; 0xF4
005BB32A  51F0     		str r0, [r6, +r7]

#80		
#81				(* OUT_COUNTER_B_dUInt := IN_PRESET_CNT_B_dUInt; *)
#82				MOVE		IN_PRESET_CNT_B_dUInt,OUT_COUNTER_B_dUInt	{LNXT:40|50|-1}
(*) REAL
005BB32C  F8DF 7660		ldr r7, [pc, #+1632] ; 0xE4
005BB330  59F0     		ldr r0, [r6, +r7]
005BB332  F8DF 7674		ldr r7, [pc, #+1652] ; 0xF8
005BB336  51F0     		str r0, [r6, +r7]

#83		
#84		$label0:
#85			(* END_IF *)
#86		
#87			(* StatoRunTON *)
#88			MOVE		IN_FILTER_RUN_STATE_ON_mSec,StatoRunTON.PT	{LNXT:50|-1|-1}
(*) REAL
005BB338  F8DF 7634		ldr r7, [pc, #+1588] ; 0xD2
005BB33C  5BF0     		ldrh r0, [r6, +r7]
005BB33E  F8DF 7598		ldr r7, [pc, #+1432] ; 0x30
005BB342  51F0     		str r0, [r6, +r7]

#89			CAL		StatoRunTON	{LNXT:50|51|-1}
(*) UDINT
005BB344  E92D 0021		stmdb sp!, { r0, r5 }
005BB348  F8DF 7584		ldr r7, [pc, #+1412] ; 0x28
005BB34C  19F5     		add r5, r6, r7
005BB34E  F8DF 4670		ldr r4, [pc, #+1648] ; 0x5BA848
005BB352  F044 0401		orr r4, r4, #1
005BB356  47A0     		blx r4
005BB358  E8BD 0021		ldmia sp!, { r0, r5 }

#90		
#91			(* StatoRunTOFF *)
#92			MOVE		IN_FILTER_RUN_STATE_OFF_mSec,StatoRunTOFF.PT	{LNXT:51|-1|-1}
(*) UDINT
005BB35C  F8DF 7614		ldr r7, [pc, #+1556] ; 0xD4
005BB360  5BF0     		ldrh r0, [r6, +r7]
005BB362  F8DF 7584		ldr r7, [pc, #+1412] ; 0x44
005BB366  51F0     		str r0, [r6, +r7]

#93			CAL		StatoRunTOFF	{LNXT:51|52|-1}
(*) UDINT
005BB368  E92D 0021		stmdb sp!, { r0, r5 }
005BB36C  F8DF 7570		ldr r7, [pc, #+1392] ; 0x3C
005BB370  19F5     		add r5, r6, r7
005BB372  F8DF 464C		ldr r4, [pc, #+1612] ; 0x5BA848
005BB376  F044 0401		orr r4, r4, #1
005BB37A  47A0     		blx r4
005BB37C  E8BD 0021		ldmia sp!, { r0, r5 }

#94		
#95			(* StatoRunTON.IN:=(I_Stato); *)
#96			MOVE		I_Stato,StatoRunTON.IN	{LNXT:52|53|-1}
(*) UDINT
005BB380  F8DF 7540		ldr r7, [pc, #+1344] ; 0x22
005BB384  5DF0     		ldrb r0, [r6, +r7]
005BB386  F8DF 754C		ldr r7, [pc, #+1356] ; 0x2C
005BB38A  55F0     		strb r0, [r6, +r7]

#97		
#98			(* StatoRunTOFF.IN:=(NOT I_Stato); *)
#99			LD		I_Stato	{LNXT:53|54|-1}
(*) UNDEF
005BB38C  F8DF 7534		ldr r7, [pc, #+1332] ; 0x22
005BB390  5DF0     		ldrb r0, [r6, +r7]

#100			NOT	{LNXT:53|54|-1}
(*) BOOL
005BB392  2800     		cmp r0, #0
005BB394  BF08 2001		eqmov r0, #1
005BB398  BF18 2000		nemov r0, #0

#101			ST		StatoRunTOFF.IN	{LNXT:53|54|-1}
(*) BOOL
005BB39C  F8DF 7544		ldr r7, [pc, #+1348] ; 0x40
005BB3A0  55F0     		strb r0, [r6, +r7]

#102		
#103			(* bStatoRun:=(StatoRunTON.Q AND (NOT StatoRunTOFF.Q) AND (NOT bAppStatoRun)); *)
#104			LD		bAppStatoRun	{LNXT:54|55|-1}
(*) UNDEF
005BB3A2  F8DF 7528		ldr r7, [pc, #+1320] ; 0x24
005BB3A6  5DF0     		ldrb r0, [r6, +r7]

#105			NOT	{LNXT:54|55|-1}
(*) BOOL
005BB3A8  2800     		cmp r0, #0
005BB3AA  BF08 2001		eqmov r0, #1
005BB3AE  BF18 2000		nemov r0, #0

#106			AND(		StatoRunTOFF.Q	{LNXT:54|55|-1}
(*) BOOL
005BB3B2  B082     		sub sp, sp, #8
005BB3B4  F8CD 0000		str r0, [sp]
005BB3B8  F8DF 7530		ldr r7, [pc, #+1328] ; 0x48
005BB3BC  5DF0     		ldrb r0, [r6, +r7]

#107			NOT	{LNXT:54|55|-1}
(*) BOOL
005BB3BE  2800     		cmp r0, #0
005BB3C0  BF08 2001		eqmov r0, #1
005BB3C4  BF18 2000		nemov r0, #0

#108			AND		StatoRunTON.Q	{LNXT:54|55|-1}
(*) BOOL
005BB3C8  F8DF 7510		ldr r7, [pc, #+1296] ; 0x34
005BB3CC  5DF7     		ldrb r7, [r6, +r7]
005BB3CE  4038     		and r0, r0, r7

#109			)	{LNXT:54|55|-1}
(*) BOOL
005BB3D0  4607     		mov r7, r0
005BB3D2  F8DD 0000		ldr r0, [sp]
005BB3D6  B002     		add sp, sp, #8
005BB3D8  4038     		and r0, r0, r7

#110			ST		bStatoRun	{LNXT:54|55|-1}
(*) BOOL
005BB3DA  F8DF 74EC		ldr r7, [pc, #+1260] ; 0x23
005BB3DE  55F0     		strb r0, [r6, +r7]

#111		
#112			(* bAppStatoRun:=(StatoRunTON.Q AND (NOT StatoRunTOFF.Q)); *)
#113			LD		StatoRunTOFF.Q	{LNXT:55|58|-1}
(*) UNDEF
005BB3E0  F8DF 7508		ldr r7, [pc, #+1288] ; 0x48
005BB3E4  5DF0     		ldrb r0, [r6, +r7]

#114			NOT	{LNXT:55|58|-1}
(*) BOOL
005BB3E6  2800     		cmp r0, #0
005BB3E8  BF08 2001		eqmov r0, #1
005BB3EC  BF18 2000		nemov r0, #0

#115			AND		StatoRunTON.Q	{LNXT:55|58|-1}
(*) BOOL
005BB3F0  F8DF 74E8		ldr r7, [pc, #+1256] ; 0x34
005BB3F4  5DF7     		ldrb r7, [r6, +r7]
005BB3F6  4038     		and r0, r0, r7

#116			ST		bAppStatoRun	{LNXT:55|58|-1}
(*) BOOL
005BB3F8  F8DF 74D0		ldr r7, [pc, #+1232] ; 0x24
005BB3FC  55F0     		strb r0, [r6, +r7]

#117		
#118		
#119			(* IF bStatoRun AND 
#120			     I_Enable *)
#121			LD		bStatoRun	{LNXT:58|-1|-1}
(*) UNDEF
005BB3FE  F8DF 74C8		ldr r7, [pc, #+1224] ; 0x23
005BB402  5DF0     		ldrb r0, [r6, +r7]

#122			AND		I_Enable	{LNXT:58|-1|-1}
(*) BOOL
005BB404  F8DF 74AC		ldr r7, [pc, #+1196] ; 0x1E
005BB408  5DF7     		ldrb r7, [r6, +r7]
005BB40A  4038     		and r0, r0, r7

#123			JMPCN	$label1	{LNXT:58|61|65}
(-) BOOL
005BB40C  2800     		cmp r0, #0
005BB40E  D004     		beq #8 ; 0x005BB41A


#124		
#125			(* THEN *)
#126		
#127				(* OUT_RUN_STATE_bool := TRUE; *)
#128				MOVE		TRUE,OUT_RUN_STATE_bool	{LNXT:61|65|-1}
(*) BOOL
005BB412  2001     		mov r0, #1 ; 1
005BB414  F8DF 7588		ldr r7, [pc, #+1416] ; 0xF1
005BB418  55F0     		strb r0, [r6, +r7]

#129		
#130		$label1:
#131			(* END_IF *)
#132		
#133		
#134			(* IF StatoRunTOFF.Q) OR
#135			    (NOT I_Enable *)
#136			LD		I_Enable	{LNXT:65|-1|-1}
(*) UNDEF
005BB41A  F8DF 7498		ldr r7, [pc, #+1176] ; 0x1E
005BB41E  5DF0     		ldrb r0, [r6, +r7]

#137			NOT	{LNXT:65|-1|-1}
(*) BOOL
005BB420  2800     		cmp r0, #0
005BB422  BF08 2001		eqmov r0, #1
005BB426  BF18 2000		nemov r0, #0

#138			OR		StatoRunTOFF.Q	{LNXT:65|-1|-1}
(*) BOOL
005BB42A  F8DF 74C0		ldr r7, [pc, #+1216] ; 0x48
005BB42E  5DF7     		ldrb r7, [r6, +r7]
005BB430  4338     		orr r0, r0, r7

#139			JMPCN	$label2	{LNXT:65|68|75}
(-) BOOL
005BB432  2800     		cmp r0, #0
005BB434  D004     		beq #8 ; 0x005BB440


#140		
#141			(* THEN *)
#142		
#143				(* OUT_RUN_STATE_bool := FALSE; *)
#144				MOVE		FALSE,OUT_RUN_STATE_bool	{LNXT:68|75|-1}
(*) BOOL
005BB438  2000     		mov r0, #0 ; 0
005BB43A  F8DF 7564		ldr r7, [pc, #+1380] ; 0xF1
005BB43E  55F0     		strb r0, [r6, +r7]

#145		
#146		$label2:
#147			(* END_IF *)
#148		
#149			(* CntRTATON *)
#150			MOVE		IN_FILTER_CNT_A_ON_mSec,CntRTATON.PT	{LNXT:75|-1|-1}
(*) BOOL
005BB440  F8DF 7534		ldr r7, [pc, #+1332] ; 0xD6
005BB444  5BF0     		ldrh r0, [r6, +r7]
005BB446  F8DF 74BC		ldr r7, [pc, #+1212] ; 0x60
005BB44A  51F0     		str r0, [r6, +r7]

#151			CAL		CntRTATON	{LNXT:75|76|-1}
(*) UDINT
005BB44C  E92D 0021		stmdb sp!, { r0, r5 }
005BB450  F8DF 74A8		ldr r7, [pc, #+1192] ; 0x58
005BB454  19F5     		add r5, r6, r7
005BB456  F8DF 4568		ldr r4, [pc, #+1384] ; 0x5BA848
005BB45A  F044 0401		orr r4, r4, #1
005BB45E  47A0     		blx r4
005BB460  E8BD 0021		ldmia sp!, { r0, r5 }

#152		
#153			(* CntRTATOFF *)
#154			MOVE		IN_FILTER_CNT_A_OFF_mSec,CntRTATOFF.PT	{LNXT:76|-1|-1}
(*) UDINT
005BB464  F8DF 7514		ldr r7, [pc, #+1300] ; 0xD8
005BB468  5BF0     		ldrh r0, [r6, +r7]
005BB46A  F8DF 74A8		ldr r7, [pc, #+1192] ; 0x74
005BB46E  51F0     		str r0, [r6, +r7]

#155			CAL		CntRTATOFF	{LNXT:76|77|-1}
(*) UDINT
005BB470  E92D 0021		stmdb sp!, { r0, r5 }
005BB474  F8DF 7494		ldr r7, [pc, #+1172] ; 0x6C
005BB478  19F5     		add r5, r6, r7
005BB47A  F8DF 4544		ldr r4, [pc, #+1348] ; 0x5BA848
005BB47E  F044 0401		orr r4, r4, #1
005BB482  47A0     		blx r4
005BB484  E8BD 0021		ldmia sp!, { r0, r5 }

#156		
#157			(* CntRTATON.IN:=(I_ProdA); *)
#158			MOVE		I_ProdA,CntRTATON.IN	{LNXT:77|78|-1}
(*) UDINT
005BB488  F8DF 7464		ldr r7, [pc, #+1124] ; 0x50
005BB48C  5DF0     		ldrb r0, [r6, +r7]
005BB48E  F8DF 7470		ldr r7, [pc, #+1136] ; 0x5C
005BB492  55F0     		strb r0, [r6, +r7]

#159		
#160			(* CntRTATOFF.IN:=(NOT I_ProdA); *)
#161			LD		I_ProdA	{LNXT:78|79|-1}
(*) UNDEF
005BB494  F8DF 7458		ldr r7, [pc, #+1112] ; 0x50
005BB498  5DF0     		ldrb r0, [r6, +r7]

#162			NOT	{LNXT:78|79|-1}
(*) BOOL
005BB49A  2800     		cmp r0, #0
005BB49C  BF08 2001		eqmov r0, #1
005BB4A0  BF18 2000		nemov r0, #0

#163			ST		CntRTATOFF.IN	{LNXT:78|79|-1}
(*) BOOL
005BB4A4  F8DF 7468		ldr r7, [pc, #+1128] ; 0x70
005BB4A8  55F0     		strb r0, [r6, +r7]

#164		
#165			(* bCntRTA:=(CntRTATON.Q AND (NOT CntRTATOFF.Q) AND (NOT bAppCntRTA)); *)
#166			LD		bAppCntRTA	{LNXT:79|80|-1}
(*) UNDEF
005BB4AA  F8DF 744C		ldr r7, [pc, #+1100] ; 0x52
005BB4AE  5DF0     		ldrb r0, [r6, +r7]

#167			NOT	{LNXT:79|80|-1}
(*) BOOL
005BB4B0  2800     		cmp r0, #0
005BB4B2  BF08 2001		eqmov r0, #1
005BB4B6  BF18 2000		nemov r0, #0

#168			AND(		CntRTATOFF.Q	{LNXT:79|80|-1}
(*) BOOL
005BB4BA  B082     		sub sp, sp, #8
005BB4BC  F8CD 0000		str r0, [sp]
005BB4C0  F8DF 7454		ldr r7, [pc, #+1108] ; 0x78
005BB4C4  5DF0     		ldrb r0, [r6, +r7]

#169			NOT	{LNXT:79|80|-1}
(*) BOOL
005BB4C6  2800     		cmp r0, #0
005BB4C8  BF08 2001		eqmov r0, #1
005BB4CC  BF18 2000		nemov r0, #0

#170			AND		CntRTATON.Q	{LNXT:79|80|-1}
(*) BOOL
005BB4D0  F8DF 7434		ldr r7, [pc, #+1076] ; 0x64
005BB4D4  5DF7     		ldrb r7, [r6, +r7]
005BB4D6  4038     		and r0, r0, r7

#171			)	{LNXT:79|80|-1}
(*) BOOL
005BB4D8  4607     		mov r7, r0
005BB4DA  F8DD 0000		ldr r0, [sp]
005BB4DE  B002     		add sp, sp, #8
005BB4E0  4038     		and r0, r0, r7

#172			ST		bCntRTA	{LNXT:79|80|-1}
(*) BOOL
005BB4E2  F8DF 7410		ldr r7, [pc, #+1040] ; 0x51
005BB4E6  55F0     		strb r0, [r6, +r7]

#173		
#174			(* bAppCntRTA:=(CntRTATON.Q AND (NOT CntRTATOFF.Q)); *)
#175			LD		CntRTATOFF.Q	{LNXT:80|83|-1}
(*) UNDEF
005BB4E8  F8DF 742C		ldr r7, [pc, #+1068] ; 0x78
005BB4EC  5DF0     		ldrb r0, [r6, +r7]

#176			NOT	{LNXT:80|83|-1}
(*) BOOL
005BB4EE  2800     		cmp r0, #0
005BB4F0  BF08 2001		eqmov r0, #1
005BB4F4  BF18 2000		nemov r0, #0

#177			AND		CntRTATON.Q	{LNXT:80|83|-1}
(*) BOOL
005BB4F8  F8DF 740C		ldr r7, [pc, #+1036] ; 0x64
005BB4FC  5DF7     		ldrb r7, [r6, +r7]
005BB4FE  4038     		and r0, r0, r7

#178			ST		bAppCntRTA	{LNXT:80|83|-1}
(*) BOOL
005BB500  F8DF 73F4		ldr r7, [pc, #+1012] ; 0x52
005BB504  55F0     		strb r0, [r6, +r7]

#179		
#180		
#181			(* IF bCntRTA AND 
#182				 OUT_RUN_STATE_bool AND 
#183				 I_Enable AND
#184				 NOT I_Fermo AND 
#185				 NOT I_PreSetCnt AND
#186				 NOT I_ResetCnt *)
#187			LD		I_ResetCnt	{LNXT:83|-1|-1}
(*) UNDEF
005BB506  F8DF 73B4		ldr r7, [pc, #+948] ; 0x20
005BB50A  5DF0     		ldrb r0, [r6, +r7]

#188			NOT	{LNXT:83|-1|-1}
(*) BOOL
005BB50C  2800     		cmp r0, #0
005BB50E  BF08 2001		eqmov r0, #1
005BB512  BF18 2000		nemov r0, #0

#189			AND(		I_PreSetCnt	{LNXT:83|-1|-1}
(*) BOOL
005BB516  B082     		sub sp, sp, #8
005BB518  F8CD 0000		str r0, [sp]
005BB51C  F8DF 73A0		ldr r7, [pc, #+928] ; 0x21
005BB520  5DF0     		ldrb r0, [r6, +r7]

#190			NOT	{LNXT:83|-1|-1}
(*) BOOL
005BB522  2800     		cmp r0, #0
005BB524  BF08 2001		eqmov r0, #1
005BB528  BF18 2000		nemov r0, #0

#191			AND(		I_Fermo	{LNXT:83|-1|-1}
(*) BOOL
005BB52C  B082     		sub sp, sp, #8
005BB52E  F8CD 0000		str r0, [sp]
005BB532  F8DF 7384		ldr r7, [pc, #+900] ; 0x1F
005BB536  5DF0     		ldrb r0, [r6, +r7]

#192			NOT	{LNXT:83|-1|-1}
(*) BOOL
005BB538  2800     		cmp r0, #0
005BB53A  BF08 2001		eqmov r0, #1
005BB53E  BF18 2000		nemov r0, #0

#193			AND(		bCntRTA	{LNXT:83|-1|-1}
(*) BOOL
005BB542  B082     		sub sp, sp, #8
005BB544  F8CD 0000		str r0, [sp]
005BB548  F8DF 73A8		ldr r7, [pc, #+936] ; 0x51
005BB54C  5DF0     		ldrb r0, [r6, +r7]

#194			AND		OUT_RUN_STATE_bool	{LNXT:83|-1|-1}
(*) BOOL
005BB54E  F8DF 7450		ldr r7, [pc, #+1104] ; 0xF1
005BB552  5DF7     		ldrb r7, [r6, +r7]
005BB554  4038     		and r0, r0, r7

#195			AND		I_Enable	{LNXT:83|-1|-1}
(*) BOOL
005BB556  F8DF 735C		ldr r7, [pc, #+860] ; 0x1E
005BB55A  5DF7     		ldrb r7, [r6, +r7]
005BB55C  4038     		and r0, r0, r7

#196			)	{LNXT:83|-1|-1}
(*) BOOL
005BB55E  4607     		mov r7, r0
005BB560  F8DD 0000		ldr r0, [sp]
005BB564  B002     		add sp, sp, #8
005BB566  4038     		and r0, r0, r7

#197			)	{LNXT:83|-1|-1}
(*) BOOL
005BB568  4607     		mov r7, r0
005BB56A  F8DD 0000		ldr r0, [sp]
005BB56E  B002     		add sp, sp, #8
005BB570  4038     		and r0, r0, r7

#198			)	{LNXT:83|-1|-1}
(*) BOOL
005BB572  4607     		mov r7, r0
005BB574  F8DD 0000		ldr r0, [sp]
005BB578  B002     		add sp, sp, #8
005BB57A  4038     		and r0, r0, r7

#199			JMPCN	$label3	{LNXT:83|90|96}
(-) BOOL
005BB57C  2800     		cmp r0, #0
005BB57E  D015     		beq #42 ; 0x005BB5AC


#200		
#201			(* THEN *)
#202		
#203				(* OUT_COUNTER_A_dUInt:= OUT_COUNTER_A_dUInt + IN_CNT_A_STEP_UP; *)
#204				LD		OUT_COUNTER_A_dUInt	{LNXT:90|96|-1}
(*) UNDEF
005BB582  F8DF 7420		ldr r7, [pc, #+1056] ; 0xF4
005BB586  59F0     		ldr r0, [r6, +r7]

#205				ADD		IN_CNT_A_STEP_UP	{LNXT:90|96|-1}
(*) REAL
005BB588  F8DF 7408		ldr r7, [pc, #+1032] ; 0xE8
005BB58C  59F7     		ldr r7, [r6, +r7]
005BB58E  B082     		sub sp, sp, #8
005BB590  F8CD 1000		str r1, [sp]
005BB594  4639     		mov r1, r7
005BB596  F8DF 441C		ldr r4, [pc, #+1052] ; 0x4B94D5
005BB59A  F044 0401		orr r4, r4, #1
005BB59E  47A0     		blx r4
005BB5A0  F8DD 1000		ldr r1, [sp]
005BB5A4  B002     		add sp, sp, #8

#206				ST		OUT_COUNTER_A_dUInt	{LNXT:90|96|-1}
(*) REAL
005BB5A6  F8DF 73FC		ldr r7, [pc, #+1020] ; 0xF4
005BB5AA  51F0     		str r0, [r6, +r7]

#207		
#208		$label3:
#209			(* END_IF *)
#210		
#211			(* CntRTBTON *)
#212			MOVE		IN_FILTER_CNT_B_ON_mSec,CntRTBTON.PT	{LNXT:96|-1|-1}
(*) REAL
005BB5AC  F8DF 73D0		ldr r7, [pc, #+976] ; 0xDA
005BB5B0  5BF0     		ldrh r0, [r6, +r7]
005BB5B2  F8DF 737C		ldr r7, [pc, #+892] ; 0x90
005BB5B6  51F0     		str r0, [r6, +r7]

#213			CAL		CntRTBTON	{LNXT:96|97|-1}
(*) UDINT
005BB5B8  E92D 0021		stmdb sp!, { r0, r5 }
005BB5BC  F8DF 7368		ldr r7, [pc, #+872] ; 0x88
005BB5C0  19F5     		add r5, r6, r7
005BB5C2  F8DF 43FC		ldr r4, [pc, #+1020] ; 0x5BA848
005BB5C6  F044 0401		orr r4, r4, #1
005BB5CA  47A0     		blx r4
005BB5CC  E8BD 0021		ldmia sp!, { r0, r5 }

#214		
#215			(* CntRTBTOFF *)
#216			MOVE		IN_FILTER_CNT_B_OFF_mSec,CntRTBTOFF.PT	{LNXT:97|-1|-1}
(*) UDINT
005BB5D0  F8DF 73B0		ldr r7, [pc, #+944] ; 0xDC
005BB5D4  5BF0     		ldrh r0, [r6, +r7]
005BB5D6  F8DF 7368		ldr r7, [pc, #+872] ; 0xA4
005BB5DA  51F0     		str r0, [r6, +r7]

#217			CAL		CntRTBTOFF	{LNXT:97|98|-1}
(*) UDINT
005BB5DC  E92D 0021		stmdb sp!, { r0, r5 }
005BB5E0  F8DF 7354		ldr r7, [pc, #+852] ; 0x9C
005BB5E4  19F5     		add r5, r6, r7
005BB5E6  F8DF 43D8		ldr r4, [pc, #+984] ; 0x5BA848
005BB5EA  F044 0401		orr r4, r4, #1
005BB5EE  47A0     		blx r4
005BB5F0  E8BD 0021		ldmia sp!, { r0, r5 }

#218		
#219			(* CntRTBTON.IN:=(I_ProdB); *)
#220			MOVE		I_ProdB,CntRTBTON.IN	{LNXT:98|99|-1}
(*) UDINT
005BB5F4  F8DF 7324		ldr r7, [pc, #+804] ; 0x80
005BB5F8  5DF0     		ldrb r0, [r6, +r7]
005BB5FA  F8DF 7330		ldr r7, [pc, #+816] ; 0x8C
005BB5FE  55F0     		strb r0, [r6, +r7]

#221		
#222			(* CntRTBTOFF.IN:=(NOT I_ProdB); *)
#223			LD		I_ProdB	{LNXT:99|100|-1}
(*) UNDEF
005BB600  F8DF 7318		ldr r7, [pc, #+792] ; 0x80
005BB604  5DF0     		ldrb r0, [r6, +r7]

#224			NOT	{LNXT:99|100|-1}
(*) BOOL
005BB606  2800     		cmp r0, #0
005BB608  BF08 2001		eqmov r0, #1
005BB60C  BF18 2000		nemov r0, #0

#225			ST		CntRTBTOFF.IN	{LNXT:99|100|-1}
(*) BOOL
005BB610  F8DF 7328		ldr r7, [pc, #+808] ; 0xA0
005BB614  55F0     		strb r0, [r6, +r7]

#226		
#227			(* bCntRTB:=(CntRTBTON.Q AND (NOT CntRTBTOFF.Q) AND (NOT bAppCntRTB)); *)
#228			LD		bAppCntRTB	{LNXT:100|101|-1}
(*) UNDEF
005BB616  F8DF 730C		ldr r7, [pc, #+780] ; 0x82
005BB61A  5DF0     		ldrb r0, [r6, +r7]

#229			NOT	{LNXT:100|101|-1}
(*) BOOL
005BB61C  2800     		cmp r0, #0
005BB61E  BF08 2001		eqmov r0, #1
005BB622  BF18 2000		nemov r0, #0

#230			AND(		CntRTBTOFF.Q	{LNXT:100|101|-1}
(*) BOOL
005BB626  B082     		sub sp, sp, #8
005BB628  F8CD 0000		str r0, [sp]
005BB62C  F8DF 7314		ldr r7, [pc, #+788] ; 0xA8
005BB630  5DF0     		ldrb r0, [r6, +r7]

#231			NOT	{LNXT:100|101|-1}
(*) BOOL
005BB632  2800     		cmp r0, #0
005BB634  BF08 2001		eqmov r0, #1
005BB638  BF18 2000		nemov r0, #0

#232			AND		CntRTBTON.Q	{LNXT:100|101|-1}
(*) BOOL
005BB63C  F8DF 72F4		ldr r7, [pc, #+756] ; 0x94
005BB640  5DF7     		ldrb r7, [r6, +r7]
005BB642  4038     		and r0, r0, r7

#233			)	{LNXT:100|101|-1}
(*) BOOL
005BB644  4607     		mov r7, r0
005BB646  F8DD 0000		ldr r0, [sp]
005BB64A  B002     		add sp, sp, #8
005BB64C  4038     		and r0, r0, r7

#234			ST		bCntRTB	{LNXT:100|101|-1}
(*) BOOL
005BB64E  F8DF 72D0		ldr r7, [pc, #+720] ; 0x81
005BB652  55F0     		strb r0, [r6, +r7]

#235		
#236			(* bAppCntRTB:=(CntRTBTON.Q AND (NOT CntRTBTOFF.Q)); *)
#237			LD		CntRTBTOFF.Q	{LNXT:101|104|-1}
(*) UNDEF
005BB654  F8DF 72EC		ldr r7, [pc, #+748] ; 0xA8
005BB658  5DF0     		ldrb r0, [r6, +r7]

#238			NOT	{LNXT:101|104|-1}
(*) BOOL
005BB65A  2800     		cmp r0, #0
005BB65C  BF08 2001		eqmov r0, #1
005BB660  BF18 2000		nemov r0, #0

#239			AND		CntRTBTON.Q	{LNXT:101|104|-1}
(*) BOOL
005BB664  F8DF 72CC		ldr r7, [pc, #+716] ; 0x94
005BB668  5DF7     		ldrb r7, [r6, +r7]
005BB66A  4038     		and r0, r0, r7

#240			ST		bAppCntRTB	{LNXT:101|104|-1}
(*) BOOL
005BB66C  F8DF 72B4		ldr r7, [pc, #+692] ; 0x82
005BB670  55F0     		strb r0, [r6, +r7]

#241		
#242		
#243			(* IF bCntRTB AND 
#244			     OUT_RUN_STATE_bool AND 
#245			     I_Enable AND
#246			     (NOT I_Fermo) AND
#247			     (NOT I_PreSetCnt) AND
#248			     (NOT I_ResetCnt *)
#249			LD		I_ResetCnt	{LNXT:104|-1|-1}
(*) UNDEF
005BB672  F8DF 7248		ldr r7, [pc, #+584] ; 0x20
005BB676  5DF0     		ldrb r0, [r6, +r7]

#250			NOT	{LNXT:104|-1|-1}
(*) BOOL
005BB678  2800     		cmp r0, #0
005BB67A  BF08 2001		eqmov r0, #1
005BB67E  BF18 2000		nemov r0, #0

#251			AND(		I_PreSetCnt	{LNXT:104|-1|-1}
(*) BOOL
005BB682  B082     		sub sp, sp, #8
005BB684  F8CD 0000		str r0, [sp]
005BB688  F8DF 7234		ldr r7, [pc, #+564] ; 0x21
005BB68C  5DF0     		ldrb r0, [r6, +r7]

#252			NOT	{LNXT:104|-1|-1}
(*) BOOL
005BB68E  2800     		cmp r0, #0
005BB690  BF08 2001		eqmov r0, #1
005BB694  BF18 2000		nemov r0, #0

#253			AND(		I_Fermo	{LNXT:104|-1|-1}
(*) BOOL
005BB698  B082     		sub sp, sp, #8
005BB69A  F8CD 0000		str r0, [sp]
005BB69E  F8DF 7218		ldr r7, [pc, #+536] ; 0x1F
005BB6A2  5DF0     		ldrb r0, [r6, +r7]

#254			NOT	{LNXT:104|-1|-1}
(*) BOOL
005BB6A4  2800     		cmp r0, #0
005BB6A6  BF08 2001		eqmov r0, #1
005BB6AA  BF18 2000		nemov r0, #0

#255			AND(		bCntRTB	{LNXT:104|-1|-1}
(*) BOOL
005BB6AE  B082     		sub sp, sp, #8
005BB6B0  F8CD 0000		str r0, [sp]
005BB6B4  F8DF 7268		ldr r7, [pc, #+616] ; 0x81
005BB6B8  5DF0     		ldrb r0, [r6, +r7]

#256			AND		OUT_RUN_STATE_bool	{LNXT:104|-1|-1}
(*) BOOL
005BB6BA  F8DF 72E4		ldr r7, [pc, #+740] ; 0xF1
005BB6BE  5DF7     		ldrb r7, [r6, +r7]
005BB6C0  4038     		and r0, r0, r7

#257			AND		I_Enable	{LNXT:104|-1|-1}
(*) BOOL
005BB6C2  F8DF 71F0		ldr r7, [pc, #+496] ; 0x1E
005BB6C6  5DF7     		ldrb r7, [r6, +r7]
005BB6C8  4038     		and r0, r0, r7

#258			)	{LNXT:104|-1|-1}
(*) BOOL
005BB6CA  4607     		mov r7, r0
005BB6CC  F8DD 0000		ldr r0, [sp]
005BB6D0  B002     		add sp, sp, #8
005BB6D2  4038     		and r0, r0, r7

#259			)	{LNXT:104|-1|-1}
(*) BOOL
005BB6D4  4607     		mov r7, r0
005BB6D6  F8DD 0000		ldr r0, [sp]
005BB6DA  B002     		add sp, sp, #8
005BB6DC  4038     		and r0, r0, r7

#260			)	{LNXT:104|-1|-1}
(*) BOOL
005BB6DE  4607     		mov r7, r0
005BB6E0  F8DD 0000		ldr r0, [sp]
005BB6E4  B002     		add sp, sp, #8
005BB6E6  4038     		and r0, r0, r7

#261			JMPCN	$label4	{LNXT:104|111|117}
(-) BOOL
005BB6E8  2800     		cmp r0, #0
005BB6EA  D015     		beq #42 ; 0x005BB718


#262		
#263			(* THEN *)
#264		
#265				(* OUT_COUNTER_B_dUInt:= OUT_COUNTER_B_dUInt + IN_CNT_B_STEP_UP; *)
#266				LD		OUT_COUNTER_B_dUInt	{LNXT:111|117|-1}
(*) UNDEF
005BB6EE  F8DF 72B8		ldr r7, [pc, #+696] ; 0xF8
005BB6F2  59F0     		ldr r0, [r6, +r7]

#267				ADD		IN_CNT_B_STEP_UP	{LNXT:111|117|-1}
(*) REAL
005BB6F4  F8DF 72A0		ldr r7, [pc, #+672] ; 0xEC
005BB6F8  59F7     		ldr r7, [r6, +r7]
005BB6FA  B082     		sub sp, sp, #8
005BB6FC  F8CD 1000		str r1, [sp]
005BB700  4639     		mov r1, r7
005BB702  F8DF 42B0		ldr r4, [pc, #+688] ; 0x4B94D5
005BB706  F044 0401		orr r4, r4, #1
005BB70A  47A0     		blx r4
005BB70C  F8DD 1000		ldr r1, [sp]
005BB710  B002     		add sp, sp, #8

#268				ST		OUT_COUNTER_B_dUInt	{LNXT:111|117|-1}
(*) REAL
005BB712  F8DF 7294		ldr r7, [pc, #+660] ; 0xF8
005BB716  51F0     		str r0, [r6, +r7]

#269		
#270		$label4:
#271			(* END_IF *)
#272		
#273		
#274			(* IF I_ResetCnt AND I_Enable *)
#275			LD		I_ResetCnt	{LNXT:117|-1|-1}
(*) UNDEF
005BB718  F8DF 71A0		ldr r7, [pc, #+416] ; 0x20
005BB71C  5DF0     		ldrb r0, [r6, +r7]

#276			AND		I_Enable	{LNXT:117|-1|-1}
(*) BOOL
005BB71E  F8DF 7194		ldr r7, [pc, #+404] ; 0x1E
005BB722  5DF7     		ldrb r7, [r6, +r7]
005BB724  4038     		and r0, r0, r7

#277			JMPCN	$label5	{LNXT:117|118|127}
(-) BOOL
005BB726  2800     		cmp r0, #0
005BB728  D012     		beq #36 ; 0x005BB750


#278		
#279			(* THEN *)
#280		
#281				(* OUT_COUNTER_A_dUInt := 0; *)
#282				MOVE		0,OUT_COUNTER_A_dUInt	{LNXT:118|119|-1}
(*) BOOL
005BB72C  2000     		mov r0, #0 ; 0
005BB72E  F8DF 4280		ldr r4, [pc, #+640] ; 0x4B946D
005BB732  F044 0401		orr r4, r4, #1
005BB736  47A0     		blx r4
005BB738  F8DF 7268		ldr r7, [pc, #+616] ; 0xF4
005BB73C  51F0     		str r0, [r6, +r7]

#283		
#284				(* OUT_COUNTER_B_dUInt := 0; *)
#285				MOVE		0,OUT_COUNTER_B_dUInt	{LNXT:119|127|-1}
(*) REAL
005BB73E  2000     		mov r0, #0 ; 0
005BB740  F8DF 426C		ldr r4, [pc, #+620] ; 0x4B946D
005BB744  F044 0401		orr r4, r4, #1
005BB748  47A0     		blx r4
005BB74A  F8DF 725C		ldr r7, [pc, #+604] ; 0xF8
005BB74E  51F0     		str r0, [r6, +r7]

#286		
#287		$label5:
#288			(* END_IF *)
#289		
#290			(* bChanges := (OUT_RUN_STATE_bool <> OLD_OUT_RUN_STATE_bool); *)
#291			LD		OUT_RUN_STATE_bool	{LNXT:127|132|-1}
(*) UNDEF
005BB750  F8DF 724C		ldr r7, [pc, #+588] ; 0xF1
005BB754  5DF0     		ldrb r0, [r6, +r7]

#292			NE		OLD_OUT_RUN_STATE_bool	{LNXT:127|132|-1}
(*) BOOL
005BB756  F8DF 71F0		ldr r7, [pc, #+496] ; 0xB0
005BB75A  5DF7     		ldrb r7, [r6, +r7]
005BB75C  42B8     		cmp r0, r7
005BB75E  BF08 2000		eqmov r0, #0
005BB762  BF18 2001		nemov r0, #1

#293			ST		bChanges	{LNXT:127|132|-1}
(*) BOOL
005BB766  F8DF 71F4		ldr r7, [pc, #+500] ; 0xC8
005BB76A  55F0     		strb r0, [r6, +r7]

#294		
#295			(* tWarning *)
#296			LD		IN_WARNING_DELAY_Sec	{LNXT:132|-1|-1}
(*) UNDEF
005BB76C  F8DF 7218		ldr r7, [pc, #+536] ; 0xDE
005BB770  5BF0     		ldrh r0, [r6, +r7]

#297			MUL		1000	{LNXT:132|-1|-1}
(*) WORD
005BB772  F44F 777A		mov r7, #1000 ; 1000
005BB776  4378     		mul r0, r0, r7

#298			ST		tWarning.PT	{LNXT:132|-1|-1}
(*) WORD
005BB778  F8DF 71D8		ldr r7, [pc, #+472] ; 0xBC
005BB77C  51F0     		str r0, [r6, +r7]

#299			CAL		tWarning	{LNXT:132|133|-1}
(*) UDINT
005BB77E  E92D 0021		stmdb sp!, { r0, r5 }
005BB782  F8DF 71C8		ldr r7, [pc, #+456] ; 0xB4
005BB786  19F5     		add r5, r6, r7
005BB788  F8DF 4234		ldr r4, [pc, #+564] ; 0x5BA848
005BB78C  F044 0401		orr r4, r4, #1
005BB790  47A0     		blx r4
005BB792  E8BD 0021		ldmia sp!, { r0, r5 }

#300		
#301			(* tWarning.IN:=(I_Enable AND OUT_RUN_STATE_bool AND (NOT I_Fermo) AND (NOT I_ResetCnt) AND (NOT bChanges)); *)
#302			LD		bChanges	{LNXT:133|134|-1}
(*) UNDEF
005BB796  F8DF 71C4		ldr r7, [pc, #+452] ; 0xC8
005BB79A  5DF0     		ldrb r0, [r6, +r7]

#303			NOT	{LNXT:133|134|-1}
(*) BOOL
005BB79C  2800     		cmp r0, #0
005BB79E  BF08 2001		eqmov r0, #1
005BB7A2  BF18 2000		nemov r0, #0

#304			AND(		I_ResetCnt	{LNXT:133|134|-1}
(*) BOOL
005BB7A6  B082     		sub sp, sp, #8
005BB7A8  F8CD 0000		str r0, [sp]
005BB7AC  F8DF 710C		ldr r7, [pc, #+268] ; 0x20
005BB7B0  5DF0     		ldrb r0, [r6, +r7]

#305			NOT	{LNXT:133|134|-1}
(*) BOOL
005BB7B2  2800     		cmp r0, #0
005BB7B4  BF08 2001		eqmov r0, #1
005BB7B8  BF18 2000		nemov r0, #0

#306			AND(		I_Fermo	{LNXT:133|134|-1}
(*) BOOL
005BB7BC  B082     		sub sp, sp, #8
005BB7BE  F8CD 0000		str r0, [sp]
005BB7C2  F8DF 70F4		ldr r7, [pc, #+244] ; 0x1F
005BB7C6  5DF0     		ldrb r0, [r6, +r7]

#307			NOT	{LNXT:133|134|-1}
(*) BOOL
005BB7C8  2800     		cmp r0, #0
005BB7CA  BF08 2001		eqmov r0, #1
005BB7CE  BF18 2000		nemov r0, #0

#308			AND(		I_Enable	{LNXT:133|134|-1}
(*) BOOL
005BB7D2  B082     		sub sp, sp, #8
005BB7D4  F8CD 0000		str r0, [sp]
005BB7D8  F8DF 70D8		ldr r7, [pc, #+216] ; 0x1E
005BB7DC  5DF0     		ldrb r0, [r6, +r7]

#309			AND		OUT_RUN_STATE_bool	{LNXT:133|134|-1}
(*) BOOL
005BB7DE  F8DF 71C0		ldr r7, [pc, #+448] ; 0xF1
005BB7E2  5DF7     		ldrb r7, [r6, +r7]
005BB7E4  4038     		and r0, r0, r7

#310			)	{LNXT:133|134|-1}
(*) BOOL
005BB7E6  4607     		mov r7, r0
005BB7E8  F8DD 0000		ldr r0, [sp]
005BB7EC  B002     		add sp, sp, #8
005BB7EE  4038     		and r0, r0, r7

#311			)	{LNXT:133|134|-1}
(*) BOOL
005BB7F0  4607     		mov r7, r0
005BB7F2  F8DD 0000		ldr r0, [sp]
005BB7F6  B002     		add sp, sp, #8
005BB7F8  4038     		and r0, r0, r7

#312			)	{LNXT:133|134|-1}
(*) BOOL
005BB7FA  4607     		mov r7, r0
005BB7FC  F8DD 0000		ldr r0, [sp]
005BB800  B002     		add sp, sp, #8
005BB802  4038     		and r0, r0, r7

#313			ST		tWarning.IN	{LNXT:133|134|-1}
(*) BOOL
005BB804  F8DF 7148		ldr r7, [pc, #+328] ; 0xB8
005BB808  55F0     		strb r0, [r6, +r7]

#314		
#315			(* OUT_WARNING_bool := tWarning.Q; *)
#316			MOVE		tWarning.Q,OUT_WARNING_bool	{LNXT:134|140|-1}
(*) BOOL
005BB80A  F8DF 714C		ldr r7, [pc, #+332] ; 0xC0
005BB80E  5DF0     		ldrb r0, [r6, +r7]
005BB810  F8DF 7198		ldr r7, [pc, #+408] ; 0xFC
005BB814  55F0     		strb r0, [r6, +r7]

#317		
#318			(* PTrigger *)
#319			LD		I_Enable	{LNXT:140|-1|-1}
(*) UNDEF
005BB816  F8DF 709C		ldr r7, [pc, #+156] ; 0x1E
005BB81A  5DF0     		ldrb r0, [r6, +r7]

#320			AND		bChanges	{LNXT:140|-1|-1}
(*) BOOL
005BB81C  F8DF 713C		ldr r7, [pc, #+316] ; 0xC8
005BB820  5DF7     		ldrb r7, [r6, +r7]
005BB822  4038     		and r0, r0, r7

#321			ST		PTrigger.CLK	{LNXT:140|-1|-1}
(*) BOOL
005BB824  F8DF 713C		ldr r7, [pc, #+316] ; 0xCE
005BB828  55F0     		strb r0, [r6, +r7]

#322			CAL		PTrigger	{LNXT:140|141|-1}
(*) BOOL
005BB82A  E92D 0021		stmdb sp!, { r0, r5 }
005BB82E  F8DF 7130		ldr r7, [pc, #+304] ; 0xCC
005BB832  19F5     		add r5, r6, r7
005BB834  F8DF 4184		ldr r4, [pc, #+388] ; 0x5BA7B0
005BB838  F044 0401		orr r4, r4, #1
005BB83C  47A0     		blx r4
005BB83E  E8BD 0021		ldmia sp!, { r0, r5 }

#323		
#324			(* OUT_STROBE_bool := PTrigger.Q; *)
#325			MOVE		PTrigger.Q,OUT_STROBE_bool	{LNXT:141|147|-1}
(*) BOOL
005BB842  F8DF 7124		ldr r7, [pc, #+292] ; 0xCF
005BB846  5DF0     		ldrb r0, [r6, +r7]
005BB848  F8DF 7150		ldr r7, [pc, #+336] ; 0xF0
005BB84C  55F0     		strb r0, [r6, +r7]

#326		
#327			(* OLD_OUT_RUN_STATE_bool := OUT_RUN_STATE_bool; *)
#328			MOVE		OUT_RUN_STATE_bool,OLD_OUT_RUN_STATE_bool	{LNXT:147|148|-1}
(*) BOOL
005BB84E  F8DF 7150		ldr r7, [pc, #+336] ; 0xF1
005BB852  5DF0     		ldrb r0, [r6, +r7]
005BB854  F8DF 70F0		ldr r7, [pc, #+240] ; 0xB0
005BB858  55F0     		strb r0, [r6, +r7]

#329		
#330			(* bChanges := FALSE; *)
#331			MOVE		FALSE,bChanges	{LNXT:148|-1|-1}
(*) BOOL
005BB85A  2000     		mov r0, #0 ; 0
005BB85C  F8DF 70FC		ldr r7, [pc, #+252] ; 0xC8
005BB860  55F0     		strb r0, [r6, +r7]

005BB862  E8BD 4040		ldmia sp!, { r6, lr }

005BB866  4770     		bx lr

005BB868  00000001		; 0x00000001
005BB86C  00000002		; 0x00000002
005BB870  00000003		; 0x00000003
005BB874  00000004		; 0x00000004
005BB878  00000005		; 0x00000005
005BB87C  00000006		; 0x00000006
005BB880  00000007		; 0x00000007
005BB884  00000008		; 0x00000008
005BB888  0000000C		; 0x0000000C
005BB88C  0000000D		; 0x0000000D
005BB890  00000012		; 0x00000012
005BB894  00000013		; 0x00000013
005BB898  00000014		; 0x00000014
005BB89C  00000015		; 0x00000015
005BB8A0  00000019		; 0x00000019
005BB8A4  0000001A		; 0x0000001A
005BB8A8  0000001B		; 0x0000001B
005BB8AC  0000001C		; 0x0000001C
005BB8B0  0000001D		; 0x0000001D
005BB8B4  0000001E		; 0x0000001E
005BB8B8  0000001F		; 0x0000001F
005BB8BC  00000020		; 0x00000020
005BB8C0  00000021		; 0x00000021
005BB8C4  00000022		; 0x00000022
005BB8C8  00000023		; 0x00000023
005BB8CC  00000024		; 0x00000024
005BB8D0  00000028		; 0x00000028
005BB8D4  0000002C		; 0x0000002C
005BB8D8  00000030		; 0x00000030
005BB8DC  00000034		; 0x00000034
005BB8E0  0000003C		; 0x0000003C
005BB8E4  00000040		; 0x00000040
005BB8E8  00000044		; 0x00000044
005BB8EC  00000048		; 0x00000048
005BB8F0  00000050		; 0x00000050
005BB8F4  00000051		; 0x00000051
005BB8F8  00000052		; 0x00000052
005BB8FC  00000058		; 0x00000058
005BB900  0000005C		; 0x0000005C
005BB904  00000060		; 0x00000060
005BB908  00000064		; 0x00000064
005BB90C  0000006C		; 0x0000006C
005BB910  00000070		; 0x00000070
005BB914  00000074		; 0x00000074
005BB918  00000078		; 0x00000078
005BB91C  00000080		; 0x00000080
005BB920  00000081		; 0x00000081
005BB924  00000082		; 0x00000082
005BB928  00000088		; 0x00000088
005BB92C  0000008C		; 0x0000008C
005BB930  00000090		; 0x00000090
005BB934  00000094		; 0x00000094
005BB938  0000009C		; 0x0000009C
005BB93C  000000A0		; 0x000000A0
005BB940  000000A4		; 0x000000A4
005BB944  000000A8		; 0x000000A8
005BB948  000000B0		; 0x000000B0
005BB94C  000000B4		; 0x000000B4
005BB950  000000B8		; 0x000000B8
005BB954  000000BC		; 0x000000BC
005BB958  000000C0		; 0x000000C0
005BB95C  000000C8		; 0x000000C8
005BB960  000000CC		; 0x000000CC
005BB964  000000CE		; 0x000000CE
005BB968  000000CF		; 0x000000CF
005BB96C  000000D0		; 0x000000D0
005BB970  000000D2		; 0x000000D2
005BB974  000000D4		; 0x000000D4
005BB978  000000D6		; 0x000000D6
005BB97C  000000D8		; 0x000000D8
005BB980  000000DA		; 0x000000DA
005BB984  000000DC		; 0x000000DC
005BB988  000000DE		; 0x000000DE
005BB98C  000000E0		; 0x000000E0
005BB990  000000E4		; 0x000000E4
005BB994  000000E8		; 0x000000E8
005BB998  000000EC		; 0x000000EC
005BB99C  000000F0		; 0x000000F0
005BB9A0  000000F1		; 0x000000F1
005BB9A4  000000F4		; 0x000000F4
005BB9A8  000000F8		; 0x000000F8
005BB9AC  000000FC		; 0x000000FC
005BB9B0  004B946D		; 0x004B946D
005BB9B4  004B94D5		; 0x004B94D5
005BB9B8  005BA6A8		; 0x005BA6A8
005BB9BC  005BA7B0		; 0x005BA7B0
005BB9C0  005BA848		; 0x005BA848


Frame allocation:

	0000       : FB mac_byte_to_bit
	000C       : VAR mac_bytes
	000E bit  0: VAR mac_lsb_bits
	0016 bit  0: VAR mac_msb_bits
	001E bit  0: VAR I_Enable
	001F bit  0: VAR I_Fermo
	0020 bit  0: VAR I_ResetCnt
	0021 bit  0: VAR I_PreSetCnt
	0022 bit  0: VAR I_Stato
	0023 bit  0: VAR bStatoRun
	0024 bit  0: VAR bAppStatoRun
	0025 bit  0: VAR bStatoRunOn
	0026 bit  0: VAR bStatoRunOff
	0028       : FB StatoRunTON
	003C       : FB StatoRunTOFF
	0050 bit  0: VAR I_ProdA
	0051 bit  0: VAR bCntRTA
	0052 bit  0: VAR bAppCntRTA
	0053 bit  0: VAR bCntRTAOn
	0054 bit  0: VAR bCntRTAOff
	0058       : FB CntRTATON
	006C       : FB CntRTATOFF
	0080 bit  0: VAR I_ProdB
	0081 bit  0: VAR bCntRTB
	0082 bit  0: VAR bAppCntRTB
	0083 bit  0: VAR bCntRTBOn
	0084 bit  0: VAR bCntRTBOff
	0088       : FB CntRTBTON
	009C       : FB CntRTBTOFF
	00B0 bit  0: VAR OLD_OUT_RUN_STATE_bool
	00B4       : FB tWarning
	00C8 bit  0: VAR bChanges
	00CC       : FB PTrigger
	00D0       : VAR IN_MACHINE_DT_Word
	00D2       : VAR IN_FILTER_RUN_STATE_ON_mSec
	00D4       : VAR IN_FILTER_RUN_STATE_OFF_mSec
	00D6       : VAR IN_FILTER_CNT_A_ON_mSec
	00D8       : VAR IN_FILTER_CNT_A_OFF_mSec
	00DA       : VAR IN_FILTER_CNT_B_ON_mSec
	00DC       : VAR IN_FILTER_CNT_B_OFF_mSec
	00DE       : VAR IN_WARNING_DELAY_Sec
	00E0       : VAR IN_PRESET_CNT_A_dUInt
	00E4       : VAR IN_PRESET_CNT_B_dUInt
	00E8       : VAR IN_CNT_A_STEP_UP
	00EC       : VAR IN_CNT_B_STEP_UP
	00F0 bit  0: VAR OUT_STROBE_bool
	00F1 bit  0: VAR OUT_RUN_STATE_bool
	00F4       : VAR OUT_COUNTER_A_dUInt
	00F8       : VAR OUT_COUNTER_B_dUInt
	00FC bit  0: VAR OUT_WARNING_bool

END_FUNCTION_BLOCK
**************************************************
	List function block: JSONEncode_v1
**************************************************

FUNCTION_BLOCK JSONEncode_v1

	{ DE:"(Sfr091d000) eLLabHTTPLib - Encodes a JSON object" }

        VAR_INPUT
Object : @STRING;	{ DE:"JSON object pointer" }
OSize : UDINT;	{ DE:"Object size" }
Name : @STRING;	{ DE:"Variable name" }
VType : DINT := 10;	{ DE:"Variable type" }
VAddress : DWORD;	{ DE:"Variable address" }
Count : UDINT;	{ DE:"Element count" }
	END_VAR

        VAR_OUTPUT
ECode : USINT;	{ DE:"Error code" }
	END_VAR

        VAR
i : UDINT;	{ DE:"Auxiliary variable" }
OLength : UDINT;	{ DE:"Object length" }
j : UDINT;	{ DE:"Auxiliary variable" }
Ptr : DWORD;	{ DE:"Auxiliary pointer" }
	END_VAR

END_FUNCTION_BLOCK

005BB9C4  E92D 4040		stmdb sp!, { r6, lr }
005BB9C8  462E     		mov r6, r5

005BB9CA  2000     		mov r0, #0 ; 0
005BB9CC  F8DF 783C		ldr r7, [pc, #+2108] ; 0x28
005BB9D0  55F0     		strb r0, [r6, +r7]

005BB9D2  F8DF 7834		ldr r7, [pc, #+2100] ; 0x24
005BB9D6  59F0     		ldr r0, [r6, +r7]

005BB9D8  2800     		cmp r0, #0
005BB9DA  BF18 2000		nemov r0, #0
005BB9DE  BF08 2001		eqmov r0, #1

005BB9E2  2800     		cmp r0, #0
005BB9E4  D004     		beq #8 ; 0x005BB9F0


005BB9E8  2001     		mov r0, #1 ; 1
005BB9EA  F8DF 781C		ldr r7, [pc, #+2076] ; 0x24
005BB9EE  51F0     		str r0, [r6, +r7]

005BB9F0  F8DF 7800		ldr r7, [pc, #+2048] ; 0x10
005BB9F4  59F0     		ldr r0, [r6, +r7]
005BB9F6  F8DF 4830		ldr r4, [pc, #+2096] ; 0x4A2581
005BB9FA  F044 0401		orr r4, r4, #1
005BB9FE  47A0     		blx r4

005BBA00  F8DF 77E8		ldr r7, [pc, #+2024] ; 0x4
005BBA04  51F0     		str r0, [r6, +r7]

005BBA06  F8DF 77E4		ldr r7, [pc, #+2020] ; 0x4
005BBA0A  59F0     		ldr r0, [r6, +r7]

005BBA0C  2802     		cmp r0, #2
005BBA0E  BF28 2000		hsmov r0, #0
005BBA12  BF38 2001		lomov r0, #1

005BBA16  2800     		cmp r0, #0
005BBA18  D019     		beq #50 ; 0x005BBA4E


005BBA1C  F8DF 080C		ldr r0, [pc, #+2060] ; 0x5BA0C4

005BBA20  F8DF 77EC		ldr r7, [pc, #+2028] ; 0x2C
005BBA24  51F0     		str r0, [r6, +r7]

005BBA26  F8DF 77CC		ldr r7, [pc, #+1996] ; 0x10
005BBA2A  59F7     		ldr r7, [r6, +r7]
005BBA2C  4638     		mov r0, r7
005BBA2E  F8DF 77E0		ldr r7, [pc, #+2016] ; 0x2C
005BBA32  59F7     		ldr r7, [r6, +r7]
005BBA34  4639     		mov r1, r7
005BBA36  2702     		mov r7, #2 ; 2
005BBA38  463A     		mov r2, r7
005BBA3A  F8DF 47E4		ldr r4, [pc, #+2020] ; 0x4A232D
005BBA3E  F044 0401		orr r4, r4, #1
005BBA42  47A0     		blx r4

005BBA44  6030     		str r0, [r6]

005BBA46  2002     		mov r0, #2 ; 2
005BBA48  F8DF 77A0		ldr r7, [pc, #+1952] ; 0x4
005BBA4C  51F0     		str r0, [r6, +r7]

005BBA4E  F8DF 07E0		ldr r0, [pc, #+2016] ; 0x5BA0C8

005BBA52  F8DF 77BC		ldr r7, [pc, #+1980] ; 0x2C
005BBA56  51F0     		str r0, [r6, +r7]

005BBA58  F8DF 7798		ldr r7, [pc, #+1944] ; 0x10
005BBA5C  59F0     		ldr r0, [r6, +r7]
005BBA5E  F8DF 77B0		ldr r7, [pc, #+1968] ; 0x2C
005BBA62  59F1     		ldr r1, [r6, +r7]
005BBA64  2200     		mov r2, #0 ; 0
005BBA66  F8DF 47BC		ldr r4, [pc, #+1980] ; 0x4A2421
005BBA6A  F044 0401		orr r4, r4, #1
005BBA6E  47A0     		blx r4

005BBA70  F8DF 7780		ldr r7, [pc, #+1920] ; 0x10
005BBA74  59F7     		ldr r7, [r6, +r7]
005BBA76  42B8     		cmp r0, r7
005BBA78  BF08 2000		eqmov r0, #0
005BBA7C  BF18 2001		nemov r0, #1

005BBA80  2800     		cmp r0, #0
005BBA82  D006     		beq #12 ; 0x005BBA92


005BBA86  2001     		mov r0, #1 ; 1
005BBA88  F8DF 7780		ldr r7, [pc, #+1920] ; 0x28
005BBA8C  55F0     		strb r0, [r6, +r7]

005BBA8E  F000 BD14		b #2600 ; 0x005BC4BA


005BBA92  F8DF 07A0		ldr r0, [pc, #+1952] ; 0x5BA0CC

005BBA96  F8DF 7778		ldr r7, [pc, #+1912] ; 0x2C
005BBA9A  51F0     		str r0, [r6, +r7]

005BBA9C  F8DF 7754		ldr r7, [pc, #+1876] ; 0x10
005BBAA0  59F0     		ldr r0, [r6, +r7]
005BBAA2  F8DF 776C		ldr r7, [pc, #+1900] ; 0x2C
005BBAA6  59F1     		ldr r1, [r6, +r7]
005BBAA8  2204     		mov r2, #4 ; 4
005BBAAA  F8DF 4778		ldr r4, [pc, #+1912] ; 0x4A2421
005BBAAE  F044 0401		orr r4, r4, #1
005BBAB2  47A0     		blx r4

005BBAB4  B082     		sub sp, sp, #8
005BBAB6  F8CD 0000		str r0, [sp]
005BBABA  F8DF 7738		ldr r7, [pc, #+1848] ; 0x10
005BBABE  59F0     		ldr r0, [r6, +r7]

005BBAC0  F8DF 7728		ldr r7, [pc, #+1832] ; 0x4
005BBAC4  59F7     		ldr r7, [r6, +r7]
005BBAC6  19C0     		add r0, r0, r7

005BBAC8  4607     		mov r7, r0
005BBACA  F8DD 0000		ldr r0, [sp]
005BBACE  B002     		add sp, sp, #8
005BBAD0  42B8     		cmp r0, r7
005BBAD2  BF08 2000		eqmov r0, #0
005BBAD6  BF18 2001		nemov r0, #1

005BBADA  2800     		cmp r0, #0
005BBADC  D006     		beq #12 ; 0x005BBAEC


005BBAE0  2002     		mov r0, #2 ; 2
005BBAE2  F8DF 7728		ldr r7, [pc, #+1832] ; 0x28
005BBAE6  55F0     		strb r0, [r6, +r7]

005BBAE8  F000 BCE7		b #2510 ; 0x005BC4BA


005BBAEC  F8DF 76FC		ldr r7, [pc, #+1788] ; 0x4
005BBAF0  59F0     		ldr r0, [r6, +r7]

005BBAF2  2802     		cmp r0, #2
005BBAF4  BF98 2000		lsmov r0, #0
005BBAF8  BF88 2001		himov r0, #1

005BBAFC  2800     		cmp r0, #0
005BBAFE  D02D     		beq #90 ; 0x005BBB5C


005BBB02  F8DF 76F0		ldr r7, [pc, #+1776] ; 0x10
005BBB06  59F0     		ldr r0, [r6, +r7]

005BBB08  F8DF 76E0		ldr r7, [pc, #+1760] ; 0x4
005BBB0C  59F7     		ldr r7, [r6, +r7]
005BBB0E  19C0     		add r0, r0, r7

005BBB10  1E40     		sub r0, r0, #1

005BBB12  B082     		sub sp, sp, #8
005BBB14  4607     		mov r7, r0
005BBB16  F8CD 7000		str r7, [sp]
005BBB1A  272C     		mov r7, #44 ; 44
005BBB1C  F8CD 7004		str r7, [sp, #+4]
005BBB20  F8DF 4748		ldr r4, [pc, #+1864] ; 0x5BA53C
005BBB24  F044 0401		orr r4, r4, #1
005BBB28  47A0     		blx r4
005BBB2A  B002     		add sp, sp, #8

005BBB2C  6030     		str r0, [r6]

005BBB2E  F8DF 76C4		ldr r7, [pc, #+1732] ; 0x10
005BBB32  59F0     		ldr r0, [r6, +r7]

005BBB34  F8DF 76B4		ldr r7, [pc, #+1716] ; 0x4
005BBB38  59F7     		ldr r7, [r6, +r7]
005BBB3A  19C0     		add r0, r0, r7

005BBB3C  B082     		sub sp, sp, #8
005BBB3E  4607     		mov r7, r0
005BBB40  F8CD 7000		str r7, [sp]
005BBB44  2700     		mov r7, #0 ; 0
005BBB46  F8CD 7004		str r7, [sp, #+4]
005BBB4A  F8DF 4720		ldr r4, [pc, #+1824] ; 0x5BA53C
005BBB4E  F044 0401		orr r4, r4, #1
005BBB52  47A0     		blx r4
005BBB54  B002     		add sp, sp, #8

005BBB56  6030     		str r0, [r6]

005BBB58  E016     		b #44 ; 0x005BBB88


005BBB5C  F8DF 7694		ldr r7, [pc, #+1684] ; 0x10
005BBB60  59F0     		ldr r0, [r6, +r7]

005BBB62  F8DF 7688		ldr r7, [pc, #+1672] ; 0x4
005BBB66  59F7     		ldr r7, [r6, +r7]
005BBB68  19C0     		add r0, r0, r7

005BBB6A  1E40     		sub r0, r0, #1

005BBB6C  B082     		sub sp, sp, #8
005BBB6E  4607     		mov r7, r0
005BBB70  F8CD 7000		str r7, [sp]
005BBB74  2700     		mov r7, #0 ; 0
005BBB76  F8CD 7004		str r7, [sp, #+4]
005BBB7A  F8DF 46F0		ldr r4, [pc, #+1776] ; 0x5BA53C
005BBB7E  F044 0401		orr r4, r4, #1
005BBB82  47A0     		blx r4
005BBB84  B002     		add sp, sp, #8

005BBB86  6030     		str r0, [r6]

005BBB88  F8DF 767C		ldr r7, [pc, #+1660] ; 0x24
005BBB8C  59F0     		ldr r0, [r6, +r7]

005BBB8E  2801     		cmp r0, #1
005BBB90  BF18 2000		nemov r0, #0
005BBB94  BF08 2001		eqmov r0, #1

005BBB98  2800     		cmp r0, #0
005BBB9A  D01E     		beq #60 ; 0x005BBBDA


005BBB9E  F8DF 0698		ldr r0, [pc, #+1688] ; 0x5BA0D0

005BBBA2  F8DF 766C		ldr r7, [pc, #+1644] ; 0x2C
005BBBA6  51F0     		str r0, [r6, +r7]

005BBBA8  B082     		sub sp, sp, #8
005BBBAA  F8DF 7648		ldr r7, [pc, #+1608] ; 0x10
005BBBAE  59F0     		ldr r0, [r6, +r7]
005BBBB0  F8DF 7644		ldr r7, [pc, #+1604] ; 0x14
005BBBB4  59F1     		ldr r1, [r6, +r7]
005BBBB6  F8DF 7658		ldr r7, [pc, #+1624] ; 0x2C
005BBBBA  59F2     		ldr r2, [r6, +r7]
005BBBBC  2332     		mov r3, #50 ; 50
005BBBBE  F8DF 763C		ldr r7, [pc, #+1596] ; 0x18
005BBBC2  59F7     		ldr r7, [r6, +r7]
005BBBC4  F8CD 7000		str r7, [sp]
005BBBC8  F8DF 4650		ldr r4, [pc, #+1616] ; 0x4A13A9
005BBBCC  F044 0401		orr r4, r4, #1
005BBBD0  47A0     		blx r4
005BBBD2  B002     		add sp, sp, #8

005BBBD4  6030     		str r0, [r6]

005BBBD6  E01C     		b #56 ; 0x005BBC12


005BBBDA  F8DF 0660		ldr r0, [pc, #+1632] ; 0x5BA0D8

005BBBDE  F8DF 7630		ldr r7, [pc, #+1584] ; 0x2C
005BBBE2  51F0     		str r0, [r6, +r7]

005BBBE4  B082     		sub sp, sp, #8
005BBBE6  F8DF 760C		ldr r7, [pc, #+1548] ; 0x10
005BBBEA  59F0     		ldr r0, [r6, +r7]
005BBBEC  F8DF 7608		ldr r7, [pc, #+1544] ; 0x14
005BBBF0  59F1     		ldr r1, [r6, +r7]
005BBBF2  F8DF 761C		ldr r7, [pc, #+1564] ; 0x2C
005BBBF6  59F2     		ldr r2, [r6, +r7]
005BBBF8  2332     		mov r3, #50 ; 50
005BBBFA  F8DF 7600		ldr r7, [pc, #+1536] ; 0x18
005BBBFE  59F7     		ldr r7, [r6, +r7]
005BBC00  F8CD 7000		str r7, [sp]
005BBC04  F8DF 4614		ldr r4, [pc, #+1556] ; 0x4A13A9
005BBC08  F044 0401		orr r4, r4, #1
005BBC0C  47A0     		blx r4
005BBC0E  B002     		add sp, sp, #8

005BBC10  6030     		str r0, [r6]

005BBC12  2000     		mov r0, #0 ; 0

005BBC14  F8DF 75D8		ldr r7, [pc, #+1496] ; 0x8
005BBC18  51F0     		str r0, [r6, +r7]

005BBC1A  F8DF 75D4		ldr r7, [pc, #+1492] ; 0x8
005BBC1E  59F0     		ldr r0, [r6, +r7]

005BBC20  B082     		sub sp, sp, #8
005BBC22  F8CD 0000		str r0, [sp]
005BBC26  F8DF 75E0		ldr r7, [pc, #+1504] ; 0x24
005BBC2A  59F0     		ldr r0, [r6, +r7]

005BBC2C  1E40     		sub r0, r0, #1

005BBC2E  4607     		mov r7, r0
005BBC30  F8DD 0000		ldr r0, [sp]
005BBC34  B002     		add sp, sp, #8
005BBC36  42B8     		cmp r0, r7
005BBC38  BF98 2000		lsmov r0, #0
005BBC3C  BF88 2001		himov r0, #1

005BBC40  2800     		cmp r0, #0
005BBC42  F040 83EB		bne #2006 ; 0x005BC41C


005BBC46  F8DF 75B8		ldr r7, [pc, #+1464] ; 0x1C
005BBC4A  59F0     		ldr r0, [r6, +r7]

005BBC4C  270A     		mov r7, #10 ; 10
005BBC4E  42B8     		cmp r0, r7
005BBC50  BF18 2000		nemov r0, #0
005BBC54  BF08 2001		eqmov r0, #1

005BBC58  2800     		cmp r0, #0
005BBC5A  F040 80DB		bne #438 ; 0x005BBE14


005BBC5E  F8DF 75A0		ldr r7, [pc, #+1440] ; 0x1C
005BBC62  59F0     		ldr r0, [r6, +r7]

005BBC64  2715     		mov r7, #21 ; 21
005BBC66  42B8     		cmp r0, r7
005BBC68  BF18 2000		nemov r0, #0
005BBC6C  BF08 2001		eqmov r0, #1

005BBC70  2800     		cmp r0, #0
005BBC72  F040 8135		bne #618 ; 0x005BBEE0


005BBC76  F8DF 7588		ldr r7, [pc, #+1416] ; 0x1C
005BBC7A  59F0     		ldr r0, [r6, +r7]

005BBC7C  2716     		mov r7, #22 ; 22
005BBC7E  42B8     		cmp r0, r7
005BBC80  BF18 2000		nemov r0, #0
005BBC84  BF08 2001		eqmov r0, #1

005BBC88  B082     		sub sp, sp, #8
005BBC8A  F8CD 0000		str r0, [sp]
005BBC8E  F8DF 7570		ldr r7, [pc, #+1392] ; 0x1C
005BBC92  59F0     		ldr r0, [r6, +r7]

005BBC94  2714     		mov r7, #20 ; 20
005BBC96  42B8     		cmp r0, r7
005BBC98  BF18 2000		nemov r0, #0
005BBC9C  BF08 2001		eqmov r0, #1

005BBCA0  4607     		mov r7, r0
005BBCA2  F8DD 0000		ldr r0, [sp]
005BBCA6  B002     		add sp, sp, #8
005BBCA8  4338     		orr r0, r0, r7

005BBCAA  2800     		cmp r0, #0
005BBCAC  F040 8142		bne #644 ; 0x005BBF34


005BBCB0  F8DF 754C		ldr r7, [pc, #+1356] ; 0x1C
005BBCB4  59F0     		ldr r0, [r6, +r7]

005BBCB6  271F     		mov r7, #31 ; 31
005BBCB8  42B8     		cmp r0, r7
005BBCBA  BF18 2000		nemov r0, #0
005BBCBE  BF08 2001		eqmov r0, #1

005BBCC2  2800     		cmp r0, #0
005BBCC4  F040 8160		bne #704 ; 0x005BBF88


005BBCC8  F8DF 7534		ldr r7, [pc, #+1332] ; 0x1C
005BBCCC  59F0     		ldr r0, [r6, +r7]

005BBCCE  2720     		mov r7, #32 ; 32
005BBCD0  42B8     		cmp r0, r7
005BBCD2  BF18 2000		nemov r0, #0
005BBCD6  BF08 2001		eqmov r0, #1

005BBCDA  B082     		sub sp, sp, #8
005BBCDC  F8CD 0000		str r0, [sp]
005BBCE0  F8DF 751C		ldr r7, [pc, #+1308] ; 0x1C
005BBCE4  59F0     		ldr r0, [r6, +r7]

005BBCE6  271F     		mov r7, #31 ; 31
005BBCE8  42B8     		cmp r0, r7
005BBCEA  BF18 2000		nemov r0, #0
005BBCEE  BF08 2001		eqmov r0, #1

005BBCF2  B082     		sub sp, sp, #8
005BBCF4  F8CD 0000		str r0, [sp]
005BBCF8  F8DF 7504		ldr r7, [pc, #+1284] ; 0x1C
005BBCFC  59F0     		ldr r0, [r6, +r7]

005BBCFE  271E     		mov r7, #30 ; 30
005BBD00  42B8     		cmp r0, r7
005BBD02  BF18 2000		nemov r0, #0
005BBD06  BF08 2001		eqmov r0, #1

005BBD0A  4607     		mov r7, r0
005BBD0C  F8DD 0000		ldr r0, [sp]
005BBD10  B002     		add sp, sp, #8
005BBD12  4338     		orr r0, r0, r7

005BBD14  4607     		mov r7, r0
005BBD16  F8DD 0000		ldr r0, [sp]
005BBD1A  B002     		add sp, sp, #8
005BBD1C  4338     		orr r0, r0, r7

005BBD1E  2800     		cmp r0, #0
005BBD20  F040 815E		bne #700 ; 0x005BBFE0


005BBD24  F8DF 74D8		ldr r7, [pc, #+1240] ; 0x1C
005BBD28  59F0     		ldr r0, [r6, +r7]

005BBD2A  2729     		mov r7, #41 ; 41
005BBD2C  42B8     		cmp r0, r7
005BBD2E  BF18 2000		nemov r0, #0
005BBD32  BF08 2001		eqmov r0, #1

005BBD36  2800     		cmp r0, #0
005BBD38  F040 817E		bne #764 ; 0x005BC038


005BBD3C  F8DF 74C0		ldr r7, [pc, #+1216] ; 0x1C
005BBD40  59F0     		ldr r0, [r6, +r7]

005BBD42  272A     		mov r7, #42 ; 42
005BBD44  42B8     		cmp r0, r7
005BBD46  BF18 2000		nemov r0, #0
005BBD4A  BF08 2001		eqmov r0, #1

005BBD4E  B082     		sub sp, sp, #8
005BBD50  F8CD 0000		str r0, [sp]
005BBD54  F8DF 74A8		ldr r7, [pc, #+1192] ; 0x1C
005BBD58  59F0     		ldr r0, [r6, +r7]

005BBD5A  2728     		mov r7, #40 ; 40
005BBD5C  42B8     		cmp r0, r7
005BBD5E  BF18 2000		nemov r0, #0
005BBD62  BF08 2001		eqmov r0, #1

005BBD66  4607     		mov r7, r0
005BBD68  F8DD 0000		ldr r0, [sp]
005BBD6C  B002     		add sp, sp, #8
005BBD6E  4338     		orr r0, r0, r7

005BBD70  2800     		cmp r0, #0
005BBD72  F040 818D		bne #794 ; 0x005BC090


005BBD76  F8DF 7488		ldr r7, [pc, #+1160] ; 0x1C
005BBD7A  59F0     		ldr r0, [r6, +r7]

005BBD7C  273D     		mov r7, #61 ; 61
005BBD7E  42B8     		cmp r0, r7
005BBD80  BF18 2000		nemov r0, #0
005BBD84  BF08 2001		eqmov r0, #1

005BBD88  2800     		cmp r0, #0
005BBD8A  F040 81AD		bne #858 ; 0x005BC0E8


005BBD8E  F8DF 7470		ldr r7, [pc, #+1136] ; 0x1C
005BBD92  59F0     		ldr r0, [r6, +r7]

005BBD94  273E     		mov r7, #62 ; 62
005BBD96  42B8     		cmp r0, r7
005BBD98  BF18 2000		nemov r0, #0
005BBD9C  BF08 2001		eqmov r0, #1

005BBDA0  B082     		sub sp, sp, #8
005BBDA2  F8CD 0000		str r0, [sp]
005BBDA6  F8DF 7458		ldr r7, [pc, #+1112] ; 0x1C
005BBDAA  59F0     		ldr r0, [r6, +r7]

005BBDAC  273C     		mov r7, #60 ; 60
005BBDAE  42B8     		cmp r0, r7
005BBDB0  BF18 2000		nemov r0, #0
005BBDB4  BF08 2001		eqmov r0, #1

005BBDB8  4607     		mov r7, r0
005BBDBA  F8DD 0000		ldr r0, [sp]
005BBDBE  B002     		add sp, sp, #8
005BBDC0  4338     		orr r0, r0, r7

005BBDC2  2800     		cmp r0, #0
005BBDC4  F040 81BC		bne #888 ; 0x005BC140


005BBDC8  F8DF 7434		ldr r7, [pc, #+1076] ; 0x1C
005BBDCC  59F0     		ldr r0, [r6, +r7]

005BBDCE  272B     		mov r7, #43 ; 43
005BBDD0  42B8     		cmp r0, r7
005BBDD2  BF18 2000		nemov r0, #0
005BBDD6  BF08 2001		eqmov r0, #1

005BBDDA  2800     		cmp r0, #0
005BBDDC  F040 81DC		bne #952 ; 0x005BC198


005BBDE0  F8DF 741C		ldr r7, [pc, #+1052] ; 0x1C
005BBDE4  59F0     		ldr r0, [r6, +r7]

005BBDE6  273F     		mov r7, #63 ; 63
005BBDE8  42B8     		cmp r0, r7
005BBDEA  BF18 2000		nemov r0, #0
005BBDEE  BF08 2001		eqmov r0, #1

005BBDF2  2800     		cmp r0, #0
005BBDF4  F040 823F		bne #1150 ; 0x005BC276


005BBDF8  F8DF 7404		ldr r7, [pc, #+1028] ; 0x1C
005BBDFC  59F0     		ldr r0, [r6, +r7]

005BBDFE  2732     		mov r7, #50 ; 50
005BBE00  42B8     		cmp r0, r7
005BBE02  BF18 2000		nemov r0, #0
005BBE06  BF08 2001		eqmov r0, #1

005BBE0A  2800     		cmp r0, #0
005BBE0C  F040 825F		bne #1214 ; 0x005BC2CE


005BBE10  E2BE     		b #1404 ; 0x005BC390


005BBE14  F8DF 73EC		ldr r7, [pc, #+1004] ; 0x20
005BBE18  59F0     		ldr r0, [r6, +r7]

005BBE1A  F8DF 73D4		ldr r7, [pc, #+980] ; 0x8
005BBE1E  59F7     		ldr r7, [r6, +r7]
005BBE20  19C0     		add r0, r0, r7

005BBE22  B082     		sub sp, sp, #8
005BBE24  4607     		mov r7, r0
005BBE26  F8CD 7000		str r7, [sp]
005BBE2A  F8DF 443C		ldr r4, [pc, #+1084] ; 0x5BA4E8
005BBE2E  F044 0401		orr r4, r4, #1
005BBE32  47A0     		blx r4
005BBE34  B002     		add sp, sp, #8

005BBE36  2701     		mov r7, #1 ; 1
005BBE38  4038     		and r0, r0, r7

005BBE3A  2800     		cmp r0, #0
005BBE3C  BF18 2001		nemov r0, #1
005BBE40  BF08 2000		eqmov r0, #0

005BBE44  2800     		cmp r0, #0
005BBE46  BF08 2001		eqmov r0, #1
005BBE4A  BF18 2000		nemov r0, #0

005BBE4E  2800     		cmp r0, #0
005BBE50  D023     		beq #70 ; 0x005BBE9A


005BBE54  F8DF 03E8		ldr r0, [pc, #+1000] ; 0x5BA0E0

005BBE58  F8DF 73B4		ldr r7, [pc, #+948] ; 0x2C
005BBE5C  51F0     		str r0, [r6, +r7]

005BBE5E  F8DF 03E4		ldr r0, [pc, #+996] ; 0x5BA0E4

005BBE62  F8DF 73B0		ldr r7, [pc, #+944] ; 0x30
005BBE66  51F0     		str r0, [r6, +r7]

005BBE68  B082     		sub sp, sp, #8
005BBE6A  F8DF 7388		ldr r7, [pc, #+904] ; 0x10
005BBE6E  59F0     		ldr r0, [r6, +r7]
005BBE70  F8DF 7384		ldr r7, [pc, #+900] ; 0x14
005BBE74  59F1     		ldr r1, [r6, +r7]
005BBE76  F8DF 7398		ldr r7, [pc, #+920] ; 0x2C
005BBE7A  59F2     		ldr r2, [r6, +r7]
005BBE7C  2332     		mov r3, #50 ; 50
005BBE7E  F8DF 7394		ldr r7, [pc, #+916] ; 0x30
005BBE82  59F7     		ldr r7, [r6, +r7]
005BBE84  F8CD 7000		str r7, [sp]
005BBE88  F8DF 4390		ldr r4, [pc, #+912] ; 0x4A13A9
005BBE8C  F044 0401		orr r4, r4, #1
005BBE90  47A0     		blx r4
005BBE92  B002     		add sp, sp, #8

005BBE94  6030     		str r0, [r6]

005BBE96  E021     		b #66 ; 0x005BBEDC


005BBE9A  F8DF 03A4		ldr r0, [pc, #+932] ; 0x5BA0E0

005BBE9E  F8DF 7370		ldr r7, [pc, #+880] ; 0x2C
005BBEA2  51F0     		str r0, [r6, +r7]

005BBEA4  F8DF 03A0		ldr r0, [pc, #+928] ; 0x5BA0EC

005BBEA8  F8DF 7368		ldr r7, [pc, #+872] ; 0x30
005BBEAC  51F0     		str r0, [r6, +r7]

005BBEAE  B082     		sub sp, sp, #8
005BBEB0  F8DF 7340		ldr r7, [pc, #+832] ; 0x10
005BBEB4  59F0     		ldr r0, [r6, +r7]
005BBEB6  F8DF 7340		ldr r7, [pc, #+832] ; 0x14
005BBEBA  59F1     		ldr r1, [r6, +r7]
005BBEBC  F8DF 7350		ldr r7, [pc, #+848] ; 0x2C
005BBEC0  59F2     		ldr r2, [r6, +r7]
005BBEC2  2332     		mov r3, #50 ; 50
005BBEC4  F8DF 734C		ldr r7, [pc, #+844] ; 0x30
005BBEC8  59F7     		ldr r7, [r6, +r7]
005BBECA  F8CD 7000		str r7, [sp]
005BBECE  F8DF 434C		ldr r4, [pc, #+844] ; 0x4A13A9
005BBED2  F044 0401		orr r4, r4, #1
005BBED6  47A0     		blx r4
005BBED8  B002     		add sp, sp, #8

005BBEDA  6030     		str r0, [r6]

005BBEDC  E25E     		b #1212 ; 0x005BC39C


005BBEE0  F8DF 0368		ldr r0, [pc, #+872] ; 0x5BA0F4

005BBEE4  F8DF 7328		ldr r7, [pc, #+808] ; 0x2C
005BBEE8  51F0     		str r0, [r6, +r7]

005BBEEA  F8DF 7318		ldr r7, [pc, #+792] ; 0x20
005BBEEE  59F0     		ldr r0, [r6, +r7]

005BBEF0  F8DF 72FC		ldr r7, [pc, #+764] ; 0x8
005BBEF4  59F7     		ldr r7, [r6, +r7]
005BBEF6  19C0     		add r0, r0, r7

005BBEF8  F8DF 731C		ldr r7, [pc, #+796] ; 0x34
005BBEFC  51F0     		str r0, [r6, +r7]

005BBEFE  B082     		sub sp, sp, #8
005BBF00  F8DF 72F0		ldr r7, [pc, #+752] ; 0x10
005BBF04  59F0     		ldr r0, [r6, +r7]
005BBF06  F8DF 72F0		ldr r7, [pc, #+752] ; 0x14
005BBF0A  59F1     		ldr r1, [r6, +r7]
005BBF0C  F8DF 7300		ldr r7, [pc, #+768] ; 0x2C
005BBF10  59F2     		ldr r2, [r6, +r7]
005BBF12  F8DF 72EC		ldr r7, [pc, #+748] ; 0x1C
005BBF16  59F3     		ldr r3, [r6, +r7]
005BBF18  F8DF 72FC		ldr r7, [pc, #+764] ; 0x34
005BBF1C  59F7     		ldr r7, [r6, +r7]
005BBF1E  F8CD 7000		str r7, [sp]
005BBF22  F8DF 42F8		ldr r4, [pc, #+760] ; 0x4A13A9
005BBF26  F044 0401		orr r4, r4, #1
005BBF2A  47A0     		blx r4
005BBF2C  B002     		add sp, sp, #8

005BBF2E  6030     		str r0, [r6]

005BBF30  E234     		b #1128 ; 0x005BC39C


005BBF34  F8DF 0318		ldr r0, [pc, #+792] ; 0x5BA0F8

005BBF38  F8DF 72D4		ldr r7, [pc, #+724] ; 0x2C
005BBF3C  51F0     		str r0, [r6, +r7]

005BBF3E  F8DF 72C4		ldr r7, [pc, #+708] ; 0x20
005BBF42  59F0     		ldr r0, [r6, +r7]

005BBF44  F8DF 72A8		ldr r7, [pc, #+680] ; 0x8
005BBF48  59F7     		ldr r7, [r6, +r7]
005BBF4A  19C0     		add r0, r0, r7

005BBF4C  F8DF 72C8		ldr r7, [pc, #+712] ; 0x34
005BBF50  51F0     		str r0, [r6, +r7]

005BBF52  B082     		sub sp, sp, #8
005BBF54  F8DF 729C		ldr r7, [pc, #+668] ; 0x10
005BBF58  59F0     		ldr r0, [r6, +r7]
005BBF5A  F8DF 729C		ldr r7, [pc, #+668] ; 0x14
005BBF5E  59F1     		ldr r1, [r6, +r7]
005BBF60  F8DF 72AC		ldr r7, [pc, #+684] ; 0x2C
005BBF64  59F2     		ldr r2, [r6, +r7]
005BBF66  F8DF 7298		ldr r7, [pc, #+664] ; 0x1C
005BBF6A  59F3     		ldr r3, [r6, +r7]
005BBF6C  F8DF 72A8		ldr r7, [pc, #+680] ; 0x34
005BBF70  59F7     		ldr r7, [r6, +r7]
005BBF72  F8CD 7000		str r7, [sp]
005BBF76  F8DF 42A4		ldr r4, [pc, #+676] ; 0x4A13A9
005BBF7A  F044 0401		orr r4, r4, #1
005BBF7E  47A0     		blx r4
005BBF80  B002     		add sp, sp, #8

005BBF82  6030     		str r0, [r6]

005BBF84  E20A     		b #1044 ; 0x005BC39C


005BBF88  F8DF 02C0		ldr r0, [pc, #+704] ; 0x5BA0F4

005BBF8C  F8DF 7280		ldr r7, [pc, #+640] ; 0x2C
005BBF90  51F0     		str r0, [r6, +r7]

005BBF92  F8DF 725C		ldr r7, [pc, #+604] ; 0x8
005BBF96  59F0     		ldr r0, [r6, +r7]

005BBF98  2702     		mov r7, #2 ; 2
005BBF9A  4378     		mul r0, r0, r7

005BBF9C  F8DF 7264		ldr r7, [pc, #+612] ; 0x20
005BBFA0  59F7     		ldr r7, [r6, +r7]
005BBFA2  19C0     		add r0, r0, r7

005BBFA4  F8DF 7270		ldr r7, [pc, #+624] ; 0x34
005BBFA8  51F0     		str r0, [r6, +r7]

005BBFAA  B082     		sub sp, sp, #8
005BBFAC  F8DF 7244		ldr r7, [pc, #+580] ; 0x10
005BBFB0  59F0     		ldr r0, [r6, +r7]
005BBFB2  F8DF 7244		ldr r7, [pc, #+580] ; 0x14
005BBFB6  59F1     		ldr r1, [r6, +r7]
005BBFB8  F8DF 7254		ldr r7, [pc, #+596] ; 0x2C
005BBFBC  59F2     		ldr r2, [r6, +r7]
005BBFBE  F8DF 7240		ldr r7, [pc, #+576] ; 0x1C
005BBFC2  59F3     		ldr r3, [r6, +r7]
005BBFC4  F8DF 7250		ldr r7, [pc, #+592] ; 0x34
005BBFC8  59F7     		ldr r7, [r6, +r7]
005BBFCA  F8CD 7000		str r7, [sp]
005BBFCE  F8DF 424C		ldr r4, [pc, #+588] ; 0x4A13A9
005BBFD2  F044 0401		orr r4, r4, #1
005BBFD6  47A0     		blx r4
005BBFD8  B002     		add sp, sp, #8

005BBFDA  6030     		str r0, [r6]

005BBFDC  E1DE     		b #956 ; 0x005BC39C


005BBFE0  F8DF 026C		ldr r0, [pc, #+620] ; 0x5BA0F8

005BBFE4  F8DF 7228		ldr r7, [pc, #+552] ; 0x2C
005BBFE8  51F0     		str r0, [r6, +r7]

005BBFEA  F8DF 7204		ldr r7, [pc, #+516] ; 0x8
005BBFEE  59F0     		ldr r0, [r6, +r7]

005BBFF0  2702     		mov r7, #2 ; 2
005BBFF2  4378     		mul r0, r0, r7

005BBFF4  F8DF 720C		ldr r7, [pc, #+524] ; 0x20
005BBFF8  59F7     		ldr r7, [r6, +r7]
005BBFFA  19C0     		add r0, r0, r7

005BBFFC  F8DF 7218		ldr r7, [pc, #+536] ; 0x34
005BC000  51F0     		str r0, [r6, +r7]

005BC002  B082     		sub sp, sp, #8
005BC004  F8DF 71EC		ldr r7, [pc, #+492] ; 0x10
005BC008  59F0     		ldr r0, [r6, +r7]
005BC00A  F8DF 71EC		ldr r7, [pc, #+492] ; 0x14
005BC00E  59F1     		ldr r1, [r6, +r7]
005BC010  F8DF 71FC		ldr r7, [pc, #+508] ; 0x2C
005BC014  59F2     		ldr r2, [r6, +r7]
005BC016  F8DF 71E8		ldr r7, [pc, #+488] ; 0x1C
005BC01A  59F3     		ldr r3, [r6, +r7]
005BC01C  F8DF 71F8		ldr r7, [pc, #+504] ; 0x34
005BC020  59F7     		ldr r7, [r6, +r7]
005BC022  F8CD 7000		str r7, [sp]
005BC026  F8DF 41F4		ldr r4, [pc, #+500] ; 0x4A13A9
005BC02A  F044 0401		orr r4, r4, #1
005BC02E  47A0     		blx r4
005BC030  B002     		add sp, sp, #8

005BC032  6030     		str r0, [r6]

005BC034  E1B2     		b #868 ; 0x005BC39C


005BC038  F8DF 0218		ldr r0, [pc, #+536] ; 0x5BA0FC

005BC03C  F8DF 71D0		ldr r7, [pc, #+464] ; 0x2C
005BC040  51F0     		str r0, [r6, +r7]

005BC042  F8DF 71AC		ldr r7, [pc, #+428] ; 0x8
005BC046  59F0     		ldr r0, [r6, +r7]

005BC048  2704     		mov r7, #4 ; 4
005BC04A  4378     		mul r0, r0, r7

005BC04C  F8DF 71B4		ldr r7, [pc, #+436] ; 0x20
005BC050  59F7     		ldr r7, [r6, +r7]
005BC052  19C0     		add r0, r0, r7

005BC054  F8DF 71C0		ldr r7, [pc, #+448] ; 0x34
005BC058  51F0     		str r0, [r6, +r7]

005BC05A  B082     		sub sp, sp, #8
005BC05C  F8DF 7194		ldr r7, [pc, #+404] ; 0x10
005BC060  59F0     		ldr r0, [r6, +r7]
005BC062  F8DF 7194		ldr r7, [pc, #+404] ; 0x14
005BC066  59F1     		ldr r1, [r6, +r7]
005BC068  F8DF 71A4		ldr r7, [pc, #+420] ; 0x2C
005BC06C  59F2     		ldr r2, [r6, +r7]
005BC06E  F8DF 7190		ldr r7, [pc, #+400] ; 0x1C
005BC072  59F3     		ldr r3, [r6, +r7]
005BC074  F8DF 71A0		ldr r7, [pc, #+416] ; 0x34
005BC078  59F7     		ldr r7, [r6, +r7]
005BC07A  F8CD 7000		str r7, [sp]
005BC07E  F8DF 419C		ldr r4, [pc, #+412] ; 0x4A13A9
005BC082  F044 0401		orr r4, r4, #1
005BC086  47A0     		blx r4
005BC088  B002     		add sp, sp, #8

005BC08A  6030     		str r0, [r6]

005BC08C  E186     		b #780 ; 0x005BC39C


005BC090  F8DF 01C4		ldr r0, [pc, #+452] ; 0x5BA104

005BC094  F8DF 7178		ldr r7, [pc, #+376] ; 0x2C
005BC098  51F0     		str r0, [r6, +r7]

005BC09A  F8DF 7154		ldr r7, [pc, #+340] ; 0x8
005BC09E  59F0     		ldr r0, [r6, +r7]

005BC0A0  2704     		mov r7, #4 ; 4
005BC0A2  4378     		mul r0, r0, r7

005BC0A4  F8DF 715C		ldr r7, [pc, #+348] ; 0x20
005BC0A8  59F7     		ldr r7, [r6, +r7]
005BC0AA  19C0     		add r0, r0, r7

005BC0AC  F8DF 7168		ldr r7, [pc, #+360] ; 0x34
005BC0B0  51F0     		str r0, [r6, +r7]

005BC0B2  B082     		sub sp, sp, #8
005BC0B4  F8DF 713C		ldr r7, [pc, #+316] ; 0x10
005BC0B8  59F0     		ldr r0, [r6, +r7]
005BC0BA  F8DF 713C		ldr r7, [pc, #+316] ; 0x14
005BC0BE  59F1     		ldr r1, [r6, +r7]
005BC0C0  F8DF 714C		ldr r7, [pc, #+332] ; 0x2C
005BC0C4  59F2     		ldr r2, [r6, +r7]
005BC0C6  F8DF 7138		ldr r7, [pc, #+312] ; 0x1C
005BC0CA  59F3     		ldr r3, [r6, +r7]
005BC0CC  F8DF 7148		ldr r7, [pc, #+328] ; 0x34
005BC0D0  59F7     		ldr r7, [r6, +r7]
005BC0D2  F8CD 7000		str r7, [sp]
005BC0D6  F8DF 4144		ldr r4, [pc, #+324] ; 0x4A13A9
005BC0DA  F044 0401		orr r4, r4, #1
005BC0DE  47A0     		blx r4
005BC0E0  B002     		add sp, sp, #8

005BC0E2  6030     		str r0, [r6]

005BC0E4  E15A     		b #692 ; 0x005BC39C


005BC0E8  F8DF 0170		ldr r0, [pc, #+368] ; 0x5BA10C

005BC0EC  F8DF 7120		ldr r7, [pc, #+288] ; 0x2C
005BC0F0  51F0     		str r0, [r6, +r7]

005BC0F2  F8DF 70FC		ldr r7, [pc, #+252] ; 0x8
005BC0F6  59F0     		ldr r0, [r6, +r7]

005BC0F8  2708     		mov r7, #8 ; 8
005BC0FA  4378     		mul r0, r0, r7

005BC0FC  F8DF 7104		ldr r7, [pc, #+260] ; 0x20
005BC100  59F7     		ldr r7, [r6, +r7]
005BC102  19C0     		add r0, r0, r7

005BC104  F8DF 7110		ldr r7, [pc, #+272] ; 0x34
005BC108  51F0     		str r0, [r6, +r7]

005BC10A  B082     		sub sp, sp, #8
005BC10C  F8DF 70E4		ldr r7, [pc, #+228] ; 0x10
005BC110  59F0     		ldr r0, [r6, +r7]
005BC112  F8DF 70E4		ldr r7, [pc, #+228] ; 0x14
005BC116  59F1     		ldr r1, [r6, +r7]
005BC118  F8DF 70F4		ldr r7, [pc, #+244] ; 0x2C
005BC11C  59F2     		ldr r2, [r6, +r7]
005BC11E  F8DF 70E0		ldr r7, [pc, #+224] ; 0x1C
005BC122  59F3     		ldr r3, [r6, +r7]
005BC124  F8DF 70F0		ldr r7, [pc, #+240] ; 0x34
005BC128  59F7     		ldr r7, [r6, +r7]
005BC12A  F8CD 7000		str r7, [sp]
005BC12E  F8DF 40EC		ldr r4, [pc, #+236] ; 0x4A13A9
005BC132  F044 0401		orr r4, r4, #1
005BC136  47A0     		blx r4
005BC138  B002     		add sp, sp, #8

005BC13A  6030     		str r0, [r6]

005BC13C  E12E     		b #604 ; 0x005BC39C


005BC140  F8DF 011C		ldr r0, [pc, #+284] ; 0x5BA114

005BC144  F8DF 70C8		ldr r7, [pc, #+200] ; 0x2C
005BC148  51F0     		str r0, [r6, +r7]

005BC14A  F8DF 70A4		ldr r7, [pc, #+164] ; 0x8
005BC14E  59F0     		ldr r0, [r6, +r7]

005BC150  2708     		mov r7, #8 ; 8
005BC152  4378     		mul r0, r0, r7

005BC154  F8DF 70AC		ldr r7, [pc, #+172] ; 0x20
005BC158  59F7     		ldr r7, [r6, +r7]
005BC15A  19C0     		add r0, r0, r7

005BC15C  F8DF 70B8		ldr r7, [pc, #+184] ; 0x34
005BC160  51F0     		str r0, [r6, +r7]

005BC162  B082     		sub sp, sp, #8
005BC164  F8DF 708C		ldr r7, [pc, #+140] ; 0x10
005BC168  59F0     		ldr r0, [r6, +r7]
005BC16A  F8DF 708C		ldr r7, [pc, #+140] ; 0x14
005BC16E  59F1     		ldr r1, [r6, +r7]
005BC170  F8DF 709C		ldr r7, [pc, #+156] ; 0x2C
005BC174  59F2     		ldr r2, [r6, +r7]
005BC176  F8DF 7088		ldr r7, [pc, #+136] ; 0x1C
005BC17A  59F3     		ldr r3, [r6, +r7]
005BC17C  F8DF 7098		ldr r7, [pc, #+152] ; 0x34
005BC180  59F7     		ldr r7, [r6, +r7]
005BC182  F8CD 7000		str r7, [sp]
005BC186  F8DF 4094		ldr r4, [pc, #+148] ; 0x4A13A9
005BC18A  F044 0401		orr r4, r4, #1
005BC18E  47A0     		blx r4
005BC190  B002     		add sp, sp, #8

005BC192  6030     		str r0, [r6]

005BC194  E102     		b #516 ; 0x005BC39C


005BC198  F8DF 00C8		ldr r0, [pc, #+200] ; 0x5BA11C

005BC19C  F8DF 7070		ldr r7, [pc, #+112] ; 0x2C
005BC1A0  51F0     		str r0, [r6, +r7]

005BC1A2  F8DF 704C		ldr r7, [pc, #+76] ; 0x8
005BC1A6  59F0     		ldr r0, [r6, +r7]

005BC1A8  2704     		mov r7, #4 ; 4
005BC1AA  4378     		mul r0, r0, r7

005BC1AC  F8DF 7054		ldr r7, [pc, #+84] ; 0x20
005BC1B0  59F7     		ldr r7, [r6, +r7]
005BC1B2  19C0     		add r0, r0, r7

005BC1B4  F8DF 7060		ldr r7, [pc, #+96] ; 0x34
005BC1B8  51F0     		str r0, [r6, +r7]

005BC1BA  B082     		sub sp, sp, #8
005BC1BC  F8DF 7034		ldr r7, [pc, #+52] ; 0x10
005BC1C0  59F0     		ldr r0, [r6, +r7]
005BC1C2  F8DF 7034		ldr r7, [pc, #+52] ; 0x14
005BC1C6  59F1     		ldr r1, [r6, +r7]
005BC1C8  F8DF 7044		ldr r7, [pc, #+68] ; 0x2C
005BC1CC  59F2     		ldr r2, [r6, +r7]
005BC1CE  F8DF 7030		ldr r7, [pc, #+48] ; 0x1C
005BC1D2  59F3     		ldr r3, [r6, +r7]
005BC1D4  F8DF 7040		ldr r7, [pc, #+64] ; 0x34
005BC1D8  59F7     		ldr r7, [r6, +r7]
005BC1DA  F8CD 7000		str r7, [sp]
005BC1DE  F8DF 403C		ldr r4, [pc, #+60] ; 0x4A13A9
005BC1E2  F044 0401		orr r4, r4, #1
005BC1E6  47A0     		blx r4
005BC1E8  B002     		add sp, sp, #8

005BC1EA  E041     		b #130

005BC1EC  00000004		; 0x00000004
005BC1F0  00000008		; 0x00000008
005BC1F4  00000010		; 0x00000010
005BC1F8  00000014		; 0x00000014
005BC1FC  00000018		; 0x00000018
005BC200  0000001C		; 0x0000001C
005BC204  00000020		; 0x00000020
005BC208  00000024		; 0x00000024
005BC20C  00000028		; 0x00000028
005BC210  0000002C		; 0x0000002C
005BC214  00000030		; 0x00000030
005BC218  00000034		; 0x00000034
005BC21C  004A13A9		; 0x004A13A9
005BC220  004A232D		; 0x004A232D
005BC224  004A2421		; 0x004A2421
005BC228  004A2581		; 0x004A2581
005BC22C  005BA0C4		; 0x005BA0C4
005BC230  005BA0C8		; 0x005BA0C8
005BC234  005BA0CC		; 0x005BA0CC
005BC238  005BA0D0		; 0x005BA0D0
005BC23C  005BA0D8		; 0x005BA0D8
005BC240  005BA0E0		; 0x005BA0E0
005BC244  005BA0E4		; 0x005BA0E4
005BC248  005BA0EC		; 0x005BA0EC
005BC24C  005BA0F4		; 0x005BA0F4
005BC250  005BA0F8		; 0x005BA0F8
005BC254  005BA0FC		; 0x005BA0FC
005BC258  005BA104		; 0x005BA104
005BC25C  005BA10C		; 0x005BA10C
005BC260  005BA114		; 0x005BA114
005BC264  005BA11C		; 0x005BA11C
005BC268  005BA4E8		; 0x005BA4E8
005BC26C  005BA53C		; 0x005BA53C

005BC270  6030     		str r0, [r6]

005BC272  E093     		b #294 ; 0x005BC39C


005BC276  F8DF 0248		ldr r0, [pc, #+584] ; 0x5BA120

005BC27A  F85F 706C		ldr r7, [pc, #-108] ; 0x2C
005BC27E  51F0     		str r0, [r6, +r7]

005BC280  F85F 7094		ldr r7, [pc, #-148] ; 0x8
005BC284  59F0     		ldr r0, [r6, +r7]

005BC286  2708     		mov r7, #8 ; 8
005BC288  4378     		mul r0, r0, r7

005BC28A  F85F 7088		ldr r7, [pc, #-136] ; 0x20
005BC28E  59F7     		ldr r7, [r6, +r7]
005BC290  19C0     		add r0, r0, r7

005BC292  F85F 707C		ldr r7, [pc, #-124] ; 0x34
005BC296  51F0     		str r0, [r6, +r7]

005BC298  B082     		sub sp, sp, #8
005BC29A  F85F 70A8		ldr r7, [pc, #-168] ; 0x10
005BC29E  59F0     		ldr r0, [r6, +r7]
005BC2A0  F85F 70AC		ldr r7, [pc, #-172] ; 0x14
005BC2A4  59F1     		ldr r1, [r6, +r7]
005BC2A6  F85F 7098		ldr r7, [pc, #-152] ; 0x2C
005BC2AA  59F2     		ldr r2, [r6, +r7]
005BC2AC  F85F 70B0		ldr r7, [pc, #-176] ; 0x1C
005BC2B0  59F3     		ldr r3, [r6, +r7]
005BC2B2  F85F 709C		ldr r7, [pc, #-156] ; 0x34
005BC2B6  59F7     		ldr r7, [r6, +r7]
005BC2B8  F8CD 7000		str r7, [sp]
005BC2BC  F85F 40A4		ldr r4, [pc, #-164] ; 0x4A13A9
005BC2C0  F044 0401		orr r4, r4, #1
005BC2C4  47A0     		blx r4
005BC2C6  B002     		add sp, sp, #8

005BC2C8  6030     		str r0, [r6]

005BC2CA  E067     		b #206 ; 0x005BC39C


005BC2CE  F85F 70C8		ldr r7, [pc, #-200] ; 0x24
005BC2D2  59F0     		ldr r0, [r6, +r7]

005BC2D4  2801     		cmp r0, #1
005BC2D6  BF18 2000		nemov r0, #0
005BC2DA  BF08 2001		eqmov r0, #1

005BC2DE  2800     		cmp r0, #0
005BC2E0  D020     		beq #64 ; 0x005BC324


005BC2E4  F8DF 01DC		ldr r0, [pc, #+476] ; 0x5BA128

005BC2E8  F85F 70DC		ldr r7, [pc, #-220] ; 0x2C
005BC2EC  51F0     		str r0, [r6, +r7]

005BC2EE  B082     		sub sp, sp, #8
005BC2F0  F85F 7100		ldr r7, [pc, #-256] ; 0x10
005BC2F4  59F0     		ldr r0, [r6, +r7]
005BC2F6  F85F 7100		ldr r7, [pc, #-256] ; 0x14
005BC2FA  59F1     		ldr r1, [r6, +r7]
005BC2FC  F85F 70F0		ldr r7, [pc, #-240] ; 0x2C
005BC300  59F2     		ldr r2, [r6, +r7]
005BC302  F85F 7104		ldr r7, [pc, #-260] ; 0x1C
005BC306  59F3     		ldr r3, [r6, +r7]
005BC308  F85F 7108		ldr r7, [pc, #-264] ; 0x20
005BC30C  59F7     		ldr r7, [r6, +r7]
005BC30E  F8CD 7000		str r7, [sp]
005BC312  F85F 40F8		ldr r4, [pc, #-248] ; 0x4A13A9
005BC316  F044 0401		orr r4, r4, #1
005BC31A  47A0     		blx r4
005BC31C  B002     		add sp, sp, #8

005BC31E  6030     		str r0, [r6]

005BC320  E034     		b #104 ; 0x005BC38C


005BC324  F8DF 019C		ldr r0, [pc, #+412] ; 0x5BA128

005BC328  F85F 711C		ldr r7, [pc, #-284] ; 0x2C
005BC32C  51F0     		str r0, [r6, +r7]

005BC32E  F85F 7140		ldr r7, [pc, #-320] ; 0x8
005BC332  59F0     		ldr r0, [r6, +r7]

005BC334  2704     		mov r7, #4 ; 4
005BC336  4378     		mul r0, r0, r7

005BC338  F85F 7138		ldr r7, [pc, #-312] ; 0x20
005BC33C  59F7     		ldr r7, [r6, +r7]
005BC33E  19C0     		add r0, r0, r7

005BC340  B082     		sub sp, sp, #8
005BC342  4607     		mov r7, r0
005BC344  F8CD 7000		str r7, [sp]
005BC348  F8DF 4188		ldr r4, [pc, #+392] ; 0x5BA512
005BC34C  F044 0401		orr r4, r4, #1
005BC350  47A0     		blx r4
005BC352  B002     		add sp, sp, #8

005BC354  F85F 7140		ldr r7, [pc, #-320] ; 0x34
005BC358  51F0     		str r0, [r6, +r7]

005BC35A  B082     		sub sp, sp, #8
005BC35C  F85F 716C		ldr r7, [pc, #-364] ; 0x10
005BC360  59F0     		ldr r0, [r6, +r7]
005BC362  F85F 716C		ldr r7, [pc, #-364] ; 0x14
005BC366  59F1     		ldr r1, [r6, +r7]
005BC368  F85F 715C		ldr r7, [pc, #-348] ; 0x2C
005BC36C  59F2     		ldr r2, [r6, +r7]
005BC36E  F85F 7170		ldr r7, [pc, #-368] ; 0x1C
005BC372  59F3     		ldr r3, [r6, +r7]
005BC374  F85F 7160		ldr r7, [pc, #-352] ; 0x34
005BC378  59F7     		ldr r7, [r6, +r7]
005BC37A  F8CD 7000		str r7, [sp]
005BC37E  F85F 4164		ldr r4, [pc, #-356] ; 0x4A13A9
005BC382  F044 0401		orr r4, r4, #1
005BC386  47A0     		blx r4
005BC388  B002     		add sp, sp, #8

005BC38A  6030     		str r0, [r6]

005BC38C  E006     		b #12 ; 0x005BC39C


005BC390  200A     		mov r0, #10 ; 10
005BC392  F85F 7188		ldr r7, [pc, #-392] ; 0x28
005BC396  55F0     		strb r0, [r6, +r7]

005BC398  E08F     		b #286 ; 0x005BC4BA


005BC39C  F85F 71B0		ldr r7, [pc, #-432] ; 0x8
005BC3A0  59F0     		ldr r0, [r6, +r7]

005BC3A2  B082     		sub sp, sp, #8
005BC3A4  F8CD 0000		str r0, [sp]
005BC3A8  F85F 71A4		ldr r7, [pc, #-420] ; 0x24
005BC3AC  59F0     		ldr r0, [r6, +r7]

005BC3AE  1E40     		sub r0, r0, #1

005BC3B0  4607     		mov r7, r0
005BC3B2  F8DD 0000		ldr r0, [sp]
005BC3B6  B002     		add sp, sp, #8
005BC3B8  42B8     		cmp r0, r7
005BC3BA  BF28 2000		hsmov r0, #0
005BC3BE  BF38 2001		lomov r0, #1

005BC3C2  2800     		cmp r0, #0
005BC3C4  D021     		beq #66 ; 0x005BC40A


005BC3C8  F8DF 00FC		ldr r0, [pc, #+252] ; 0x5BA130

005BC3CC  F85F 71C0		ldr r7, [pc, #-448] ; 0x2C
005BC3D0  51F0     		str r0, [r6, +r7]

005BC3D2  F8DF 00F8		ldr r0, [pc, #+248] ; 0x5BA138

005BC3D6  F85F 71C4		ldr r7, [pc, #-452] ; 0x30
005BC3DA  51F0     		str r0, [r6, +r7]

005BC3DC  B082     		sub sp, sp, #8
005BC3DE  F85F 71EC		ldr r7, [pc, #-492] ; 0x10
005BC3E2  59F0     		ldr r0, [r6, +r7]
005BC3E4  F85F 71F0		ldr r7, [pc, #-496] ; 0x14
005BC3E8  59F1     		ldr r1, [r6, +r7]
005BC3EA  F85F 71DC		ldr r7, [pc, #-476] ; 0x2C
005BC3EE  59F2     		ldr r2, [r6, +r7]
005BC3F0  2332     		mov r3, #50 ; 50
005BC3F2  F85F 71E0		ldr r7, [pc, #-480] ; 0x30
005BC3F6  59F7     		ldr r7, [r6, +r7]
005BC3F8  F8CD 7000		str r7, [sp]
005BC3FC  F85F 41E4		ldr r4, [pc, #-484] ; 0x4A13A9
005BC400  F044 0401		orr r4, r4, #1
005BC404  47A0     		blx r4
005BC406  B002     		add sp, sp, #8

005BC408  6030     		str r0, [r6]

005BC40A  F85F 721C		ldr r7, [pc, #-540] ; 0x8
005BC40E  59F0     		ldr r0, [r6, +r7]

005BC410  1C40     		add r0, r0, #1

005BC412  F85F 7224		ldr r7, [pc, #-548] ; 0x8
005BC416  51F0     		str r0, [r6, +r7]

005BC418  F7FF BBFF		b #-2050 ; 0x005BBC1A

005BC41C  F85F 7218		ldr r7, [pc, #-536] ; 0x24
005BC420  59F0     		ldr r0, [r6, +r7]

005BC422  2801     		cmp r0, #1
005BC424  BF18 2000		nemov r0, #0
005BC428  BF08 2001		eqmov r0, #1

005BC42C  2800     		cmp r0, #0
005BC42E  D023     		beq #70 ; 0x005BC478


005BC432  F85F 01F4		ldr r0, [pc, #-500] ; 0x5BA0E0

005BC436  F85F 7228		ldr r7, [pc, #-552] ; 0x2C
005BC43A  51F0     		str r0, [r6, +r7]

005BC43C  F85F 020C		ldr r0, [pc, #-524] ; 0x5BA0CC

005BC440  F85F 7230		ldr r7, [pc, #-560] ; 0x30
005BC444  51F0     		str r0, [r6, +r7]

005BC446  B082     		sub sp, sp, #8
005BC448  F85F 7258		ldr r7, [pc, #-600] ; 0x10
005BC44C  59F0     		ldr r0, [r6, +r7]
005BC44E  F85F 7258		ldr r7, [pc, #-600] ; 0x14
005BC452  59F1     		ldr r1, [r6, +r7]
005BC454  F85F 7248		ldr r7, [pc, #-584] ; 0x2C
005BC458  59F2     		ldr r2, [r6, +r7]
005BC45A  2332     		mov r3, #50 ; 50
005BC45C  F85F 724C		ldr r7, [pc, #-588] ; 0x30
005BC460  59F7     		ldr r7, [r6, +r7]
005BC462  F8CD 7000		str r7, [sp]
005BC466  F85F 424C		ldr r4, [pc, #-588] ; 0x4A13A9
005BC46A  F044 0401		orr r4, r4, #1
005BC46E  47A0     		blx r4
005BC470  B002     		add sp, sp, #8

005BC472  6030     		str r0, [r6]

005BC474  E021     		b #66 ; 0x005BC4BA


005BC478  F85F 023C		ldr r0, [pc, #-572] ; 0x5BA0E0

005BC47C  F85F 7270		ldr r7, [pc, #-624] ; 0x2C
005BC480  51F0     		str r0, [r6, +r7]

005BC482  F8DF 004C		ldr r0, [pc, #+76] ; 0x5BA13C

005BC486  F85F 7274		ldr r7, [pc, #-628] ; 0x30
005BC48A  51F0     		str r0, [r6, +r7]

005BC48C  B082     		sub sp, sp, #8
005BC48E  F85F 729C		ldr r7, [pc, #-668] ; 0x10
005BC492  59F0     		ldr r0, [r6, +r7]
005BC494  F85F 72A0		ldr r7, [pc, #-672] ; 0x14
005BC498  59F1     		ldr r1, [r6, +r7]
005BC49A  F85F 728C		ldr r7, [pc, #-652] ; 0x2C
005BC49E  59F2     		ldr r2, [r6, +r7]
005BC4A0  2332     		mov r3, #50 ; 50
005BC4A2  F85F 7290		ldr r7, [pc, #-656] ; 0x30
005BC4A6  59F7     		ldr r7, [r6, +r7]
005BC4A8  F8CD 7000		str r7, [sp]
005BC4AC  F85F 4294		ldr r4, [pc, #-660] ; 0x4A13A9
005BC4B0  F044 0401		orr r4, r4, #1
005BC4B4  47A0     		blx r4
005BC4B6  B002     		add sp, sp, #8

005BC4B8  6030     		str r0, [r6]

005BC4BA  E8BD 4040		ldmia sp!, { r6, lr }

005BC4BE  4770     		bx lr

005BC4C0  005BA120		; 0x005BA120
005BC4C4  005BA128		; 0x005BA128
005BC4C8  005BA130		; 0x005BA130
005BC4CC  005BA138		; 0x005BA138
005BC4D0  005BA13C		; 0x005BA13C
005BC4D4  005BA512		; 0x005BA512


Frame allocation:

	0000       : VAR i
	0004       : VAR OLength
	0008       : VAR j
	000C       : VAR Ptr
	0010       : VAR Object
	0014       : VAR OSize
	0018       : VAR Name
	001C       : VAR VType
	0020       : VAR VAddress
	0024       : VAR Count
	0028       : VAR ECode

END_FUNCTION_BLOCK
**************************************************
	List function block: JSONDecode_v2
**************************************************

FUNCTION_BLOCK JSONDecode_v2

	{ DE:"(Sfr091d000) eLLabHTTPLib - Decodes a JSON object" }

        VAR_INPUT
Object : @STRING;	{ DE:"JSON object pointer" }
Name : @STRING;	{ DE:"Variable name" }
VType : DINT := 10;	{ DE:"Variable type" }
VAddress : DWORD;	{ DE:"Variable address" }
Count : UDINT;	{ DE:"Element count" }
Size : UDINT;	{ DE:"String size (Only if VType=STRING_TYPE)" }
	END_VAR

        VAR_OUTPUT
ECode : USINT;	{ DE:"Error code" }
	END_VAR

        VAR
i : UDINT;	{ DE:"Auxiliary variable" }
OLength : UDINT;	{ DE:"Object length" }
Ptr : ARRAY[0..3] OF DWORD;	{ DE:"Auxiliary pointer" }
AStr : STRING[ 128 ];	{ DE:"Auxiliary string" }
SFlag : USINT;	{ DE:"Search flag" }
ICount : UDINT;	{ DE:"Internal element count" }
	END_VAR

END_FUNCTION_BLOCK

005BC4D8  E92D 4040		stmdb sp!, { r6, lr }
005BC4DC  462E     		mov r6, r5

005BC4DE  2000     		mov r0, #0 ; 0
005BC4E0  F8DF 7818		ldr r7, [pc, #+2072] ; 0x99
005BC4E4  55F0     		strb r0, [r6, +r7]

005BC4E6  2000     		mov r0, #0 ; 0
005BC4E8  F8DF 7814		ldr r7, [pc, #+2068] ; 0x9C
005BC4EC  51F0     		str r0, [r6, +r7]

005BC4EE  2000     		mov r0, #0 ; 0
005BC4F0  F8DF 7824		ldr r7, [pc, #+2084] ; 0xB8
005BC4F4  55F0     		strb r0, [r6, +r7]

005BC4F6  F8DF 7818		ldr r7, [pc, #+2072] ; 0xAC
005BC4FA  59F0     		ldr r0, [r6, +r7]
005BC4FC  F8DF 77F4		ldr r7, [pc, #+2036] ; 0x14
005BC500  51F0     		str r0, [r6, +r7]

005BC502  F8DF 7800		ldr r7, [pc, #+2048] ; 0xA0
005BC506  59F0     		ldr r0, [r6, +r7]
005BC508  F8DF 4824		ldr r4, [pc, #+2084] ; 0x4A2581
005BC50C  F044 0401		orr r4, r4, #1
005BC510  47A0     		blx r4

005BC512  F8DF 77D0		ldr r7, [pc, #+2000] ; 0x4
005BC516  51F0     		str r0, [r6, +r7]

005BC518  F8DF 77F8		ldr r7, [pc, #+2040] ; 0xB0
005BC51C  59F0     		ldr r0, [r6, +r7]

005BC51E  2800     		cmp r0, #0
005BC520  BF18 2000		nemov r0, #0
005BC524  BF08 2001		eqmov r0, #1

005BC528  2800     		cmp r0, #0
005BC52A  D004     		beq #8 ; 0x005BC536


005BC52E  2001     		mov r0, #1 ; 1
005BC530  F8DF 77E0		ldr r7, [pc, #+2016] ; 0xB0
005BC534  51F0     		str r0, [r6, +r7]

005BC536  B082     		sub sp, sp, #8
005BC538  F8DF 77C8		ldr r7, [pc, #+1992] ; 0xA0
005BC53C  59F7     		ldr r7, [r6, +r7]
005BC53E  F8CD 7000		str r7, [sp]
005BC542  F8DF 47F8		ldr r4, [pc, #+2040] ; 0x5BA4E8
005BC546  F044 0401		orr r4, r4, #1
005BC54A  47A0     		blx r4
005BC54C  B002     		add sp, sp, #8

005BC54E  287B     		cmp r0, #123
005BC550  BF08 2000		eqmov r0, #0
005BC554  BF18 2001		nemov r0, #1

005BC558  2800     		cmp r0, #0
005BC55A  D006     		beq #12 ; 0x005BC56A


005BC55E  2001     		mov r0, #1 ; 1
005BC560  F8DF 77B4		ldr r7, [pc, #+1972] ; 0xB8
005BC564  55F0     		strb r0, [r6, +r7]

005BC566  F001 B86D		b #4314 ; 0x005BD644


005BC56A  F8DF 7798		ldr r7, [pc, #+1944] ; 0xA0
005BC56E  59F0     		ldr r0, [r6, +r7]

005BC570  F8DF 7770		ldr r7, [pc, #+1904] ; 0x4
005BC574  59F7     		ldr r7, [r6, +r7]
005BC576  19C0     		add r0, r0, r7

005BC578  1E40     		sub r0, r0, #1

005BC57A  B082     		sub sp, sp, #8
005BC57C  4607     		mov r7, r0
005BC57E  F8CD 7000		str r7, [sp]
005BC582  F8DF 47B8		ldr r4, [pc, #+1976] ; 0x5BA4E8
005BC586  F044 0401		orr r4, r4, #1
005BC58A  47A0     		blx r4
005BC58C  B002     		add sp, sp, #8

005BC58E  287D     		cmp r0, #125
005BC590  BF08 2000		eqmov r0, #0
005BC594  BF18 2001		nemov r0, #1

005BC598  2800     		cmp r0, #0
005BC59A  D006     		beq #12 ; 0x005BC5AA


005BC59E  2002     		mov r0, #2 ; 2
005BC5A0  F8DF 7774		ldr r7, [pc, #+1908] ; 0xB8
005BC5A4  55F0     		strb r0, [r6, +r7]

005BC5A6  F001 B84D		b #4250 ; 0x005BD644


005BC5AA  F8DF 775C		ldr r7, [pc, #+1884] ; 0xA4
005BC5AE  59F0     		ldr r0, [r6, +r7]
005BC5B0  F8DF 477C		ldr r4, [pc, #+1916] ; 0x4A2581
005BC5B4  F044 0401		orr r4, r4, #1
005BC5B8  47A0     		blx r4

005BC5BA  1C80     		add r0, r0, #2

005BC5BC  2781     		mov r7, #129 ; 129
005BC5BE  42B8     		cmp r0, r7
005BC5C0  BF98 2000		lsmov r0, #0
005BC5C4  BF88 2001		himov r0, #1

005BC5C8  2800     		cmp r0, #0
005BC5CA  D006     		beq #12 ; 0x005BC5DA


005BC5CE  2003     		mov r0, #3 ; 3
005BC5D0  F8DF 7744		ldr r7, [pc, #+1860] ; 0xB8
005BC5D4  55F0     		strb r0, [r6, +r7]

005BC5D6  F001 B835		b #4202 ; 0x005BD644


005BC5DA  F8DF 075C		ldr r0, [pc, #+1884] ; 0x5BA128

005BC5DE  F8DF 773C		ldr r7, [pc, #+1852] ; 0xBC
005BC5E2  51F0     		str r0, [r6, +r7]

005BC5E4  F8DF 7710		ldr r7, [pc, #+1808] ; 0x18
005BC5E8  19F0     		add r0, r6, r7

005BC5EA  B082     		sub sp, sp, #8
005BC5EC  2181     		mov r1, #129 ; 129
005BC5EE  F8DF 772C		ldr r7, [pc, #+1836] ; 0xBC
005BC5F2  59F2     		ldr r2, [r6, +r7]
005BC5F4  2332     		mov r3, #50 ; 50
005BC5F6  F8DF 7710		ldr r7, [pc, #+1808] ; 0xA4
005BC5FA  59F7     		ldr r7, [r6, +r7]
005BC5FC  F8CD 7000		str r7, [sp]
005BC600  F8DF 4720		ldr r4, [pc, #+1824] ; 0x4A1321
005BC604  F044 0401		orr r4, r4, #1
005BC608  47A0     		blx r4
005BC60A  B002     		add sp, sp, #8

005BC60C  6030     		str r0, [r6]

005BC60E  F8DF 76E8		ldr r7, [pc, #+1768] ; 0x18
005BC612  19F0     		add r0, r6, r7

005BC614  F8DF 7704		ldr r7, [pc, #+1796] ; 0xBC
005BC618  51F0     		str r0, [r6, +r7]

005BC61A  F8DF 76E8		ldr r7, [pc, #+1768] ; 0xA0
005BC61E  59F0     		ldr r0, [r6, +r7]
005BC620  F8DF 76F8		ldr r7, [pc, #+1784] ; 0xBC
005BC624  59F1     		ldr r1, [r6, +r7]
005BC626  2204     		mov r2, #4 ; 4
005BC628  F8DF 4700		ldr r4, [pc, #+1792] ; 0x4A2421
005BC62C  F044 0401		orr r4, r4, #1
005BC630  47A0     		blx r4

005BC632  F8DF 76B4		ldr r7, [pc, #+1716] ; 0x8
005BC636  51F0     		str r0, [r6, +r7]

005BC638  F8DF 76AC		ldr r7, [pc, #+1708] ; 0x8
005BC63C  59F0     		ldr r0, [r6, +r7]

005BC63E  2700     		mov r7, #0 ; 0
005BC640  42B8     		cmp r0, r7
005BC642  BF18 2000		nemov r0, #0
005BC646  BF08 2001		eqmov r0, #1

005BC64A  2800     		cmp r0, #0
005BC64C  D006     		beq #12 ; 0x005BC65C


005BC650  2004     		mov r0, #4 ; 4
005BC652  F8DF 76C4		ldr r7, [pc, #+1732] ; 0xB8
005BC656  55F0     		strb r0, [r6, +r7]

005BC658  F000 BFF4		b #4072 ; 0x005BD644


005BC65C  2001     		mov r0, #1 ; 1

005BC65E  2800     		cmp r0, #0
005BC660  F000 87F0		beq #4064 ; 0x005BD644


005BC664  F8DF 7680		ldr r7, [pc, #+1664] ; 0x8
005BC668  59F0     		ldr r0, [r6, +r7]

005BC66A  F8DF 767C		ldr r7, [pc, #+1660] ; 0x8
005BC66E  51F0     		str r0, [r6, +r7]

005BC670  F8DF 7674		ldr r7, [pc, #+1652] ; 0x8
005BC674  59F0     		ldr r0, [r6, +r7]

005BC676  B082     		sub sp, sp, #8
005BC678  F8CD 0000		str r0, [sp]
005BC67C  F8DF 7684		ldr r7, [pc, #+1668] ; 0xA0
005BC680  59F0     		ldr r0, [r6, +r7]

005BC682  F8DF 7660		ldr r7, [pc, #+1632] ; 0x4
005BC686  59F7     		ldr r7, [r6, +r7]
005BC688  19C0     		add r0, r0, r7

005BC68A  B082     		sub sp, sp, #8
005BC68C  4607     		mov r7, r0
005BC68E  F8CD 7000		str r7, [sp]
005BC692  F8DF 46AC		ldr r4, [pc, #+1708] ; 0x5BA574
005BC696  F044 0401		orr r4, r4, #1
005BC69A  47A0     		blx r4
005BC69C  B002     		add sp, sp, #8

005BC69E  4607     		mov r7, r0
005BC6A0  F8DD 0000		ldr r0, [sp]
005BC6A4  B002     		add sp, sp, #8
005BC6A6  42B8     		cmp r0, r7
005BC6A8  BF98 2000		lsmov r0, #0
005BC6AC  BF88 2001		himov r0, #1

005BC6B0  2800     		cmp r0, #0
005BC6B2  F040 8412		bne #2084 ; 0x005BCEDA


005BC6B6  B082     		sub sp, sp, #8
005BC6B8  F8DF 762C		ldr r7, [pc, #+1580] ; 0x8
005BC6BC  59F7     		ldr r7, [r6, +r7]
005BC6BE  F8CD 7000		str r7, [sp]
005BC6C2  F8DF 4678		ldr r4, [pc, #+1656] ; 0x5BA4E8
005BC6C6  F044 0401		orr r4, r4, #1
005BC6CA  47A0     		blx r4
005BC6CC  B002     		add sp, sp, #8

005BC6CE  F8DF 7650		ldr r7, [pc, #+1616] ; 0xC4
005BC6D2  51F0     		str r0, [r6, +r7]

005BC6D4  F8DF 7648		ldr r7, [pc, #+1608] ; 0xC4
005BC6D8  59F0     		ldr r0, [r6, +r7]

005BC6DA  283A     		cmp r0, #58
005BC6DC  BF18 2000		nemov r0, #0
005BC6E0  BF08 2001		eqmov r0, #1

005BC6E4  2800     		cmp r0, #0
005BC6E6  F040 808F		bne #286 ; 0x005BC808


005BC6EA  F8DF 7634		ldr r7, [pc, #+1588] ; 0xC4
005BC6EE  59F0     		ldr r0, [r6, +r7]

005BC6F0  287D     		cmp r0, #125
005BC6F2  BF18 2000		nemov r0, #0
005BC6F6  BF08 2001		eqmov r0, #1

005BC6FA  B082     		sub sp, sp, #8
005BC6FC  F8CD 0000		str r0, [sp]
005BC700  F8DF 761C		ldr r7, [pc, #+1564] ; 0xC4
005BC704  59F0     		ldr r0, [r6, +r7]

005BC706  282C     		cmp r0, #44
005BC708  BF18 2000		nemov r0, #0
005BC70C  BF08 2001		eqmov r0, #1

005BC710  4607     		mov r7, r0
005BC712  F8DD 0000		ldr r0, [sp]
005BC716  B002     		add sp, sp, #8
005BC718  4338     		orr r0, r0, r7

005BC71A  2800     		cmp r0, #0
005BC71C  F040 80B9		bne #370 ; 0x005BC892


005BC720  F8DF 75FC		ldr r7, [pc, #+1532] ; 0xC4
005BC724  59F0     		ldr r0, [r6, +r7]

005BC726  2820     		cmp r0, #32
005BC728  BF18 2000		nemov r0, #0
005BC72C  BF08 2001		eqmov r0, #1

005BC730  2800     		cmp r0, #0
005BC732  F040 80EA		bne #468 ; 0x005BC90A


005BC736  F8DF 75E8		ldr r7, [pc, #+1512] ; 0xC4
005BC73A  59F0     		ldr r0, [r6, +r7]

005BC73C  2822     		cmp r0, #34
005BC73E  BF18 2000		nemov r0, #0
005BC742  BF08 2001		eqmov r0, #1

005BC746  2800     		cmp r0, #0
005BC748  F040 8100		bne #512 ; 0x005BC94C


005BC74C  F8DF 75D0		ldr r7, [pc, #+1488] ; 0xC4
005BC750  59F0     		ldr r0, [r6, +r7]

005BC752  2846     		cmp r0, #70
005BC754  BFC8 2000		gtmov r0, #0
005BC758  BFD8 2001		lemov r0, #1

005BC75C  B082     		sub sp, sp, #8
005BC75E  F8CD 0000		str r0, [sp]
005BC762  F8DF 75BC		ldr r7, [pc, #+1468] ; 0xC4
005BC766  59F0     		ldr r0, [r6, +r7]

005BC768  2841     		cmp r0, #65
005BC76A  BFB8 2000		ltmov r0, #0
005BC76E  BFA8 2001		gemov r0, #1

005BC772  4607     		mov r7, r0
005BC774  F8DD 0000		ldr r0, [sp]
005BC778  B002     		add sp, sp, #8
005BC77A  4038     		and r0, r0, r7

005BC77C  B082     		sub sp, sp, #8
005BC77E  F8CD 0000		str r0, [sp]
005BC782  F8DF 759C		ldr r7, [pc, #+1436] ; 0xC4
005BC786  59F0     		ldr r0, [r6, +r7]

005BC788  2839     		cmp r0, #57
005BC78A  BFC8 2000		gtmov r0, #0
005BC78E  BFD8 2001		lemov r0, #1

005BC792  B082     		sub sp, sp, #8
005BC794  F8CD 0000		str r0, [sp]
005BC798  F8DF 7584		ldr r7, [pc, #+1412] ; 0xC4
005BC79C  59F0     		ldr r0, [r6, +r7]

005BC79E  2830     		cmp r0, #48
005BC7A0  BFB8 2000		ltmov r0, #0
005BC7A4  BFA8 2001		gemov r0, #1

005BC7A8  4607     		mov r7, r0
005BC7AA  F8DD 0000		ldr r0, [sp]
005BC7AE  B002     		add sp, sp, #8
005BC7B0  4038     		and r0, r0, r7

005BC7B2  4607     		mov r7, r0
005BC7B4  F8DD 0000		ldr r0, [sp]
005BC7B8  B002     		add sp, sp, #8
005BC7BA  4338     		orr r0, r0, r7

005BC7BC  2800     		cmp r0, #0
005BC7BE  F040 8126		bne #588 ; 0x005BCA0E


005BC7C2  F8DF 755C		ldr r7, [pc, #+1372] ; 0xC4
005BC7C6  59F0     		ldr r0, [r6, +r7]

005BC7C8  285B     		cmp r0, #91
005BC7CA  BF18 2000		nemov r0, #0
005BC7CE  BF08 2001		eqmov r0, #1

005BC7D2  2800     		cmp r0, #0
005BC7D4  F040 8161		bne #706 ; 0x005BCA9A


005BC7D8  F8DF 7544		ldr r7, [pc, #+1348] ; 0xC4
005BC7DC  59F0     		ldr r0, [r6, +r7]

005BC7DE  285C     		cmp r0, #92
005BC7E0  BF18 2000		nemov r0, #0
005BC7E4  BF08 2001		eqmov r0, #1

005BC7E8  2800     		cmp r0, #0
005BC7EA  F040 8190		bne #800 ; 0x005BCB0E


005BC7EE  F8DF 7530		ldr r7, [pc, #+1328] ; 0xC4
005BC7F2  59F0     		ldr r0, [r6, +r7]

005BC7F4  285D     		cmp r0, #93
005BC7F6  BF18 2000		nemov r0, #0
005BC7FA  BF08 2001		eqmov r0, #1

005BC7FE  2800     		cmp r0, #0
005BC800  F040 81CB		bne #918 ; 0x005BCB9A


005BC804  E216     		b #1068 ; 0x005BCC34


005BC808  F8DF 74F0		ldr r7, [pc, #+1264] ; 0x99
005BC80C  5DF0     		ldrb r0, [r6, +r7]

005BC80E  2800     		cmp r0, #0
005BC810  BF18 2000		nemov r0, #0
005BC814  BF08 2001		eqmov r0, #1

005BC818  2800     		cmp r0, #0
005BC81A  D10D     		bne #26 ; 0x005BC838


005BC81E  F8DF 74DC		ldr r7, [pc, #+1244] ; 0x99
005BC822  5DF0     		ldrb r0, [r6, +r7]

005BC824  2803     		cmp r0, #3
005BC826  BF18 2000		nemov r0, #0
005BC82A  BF08 2001		eqmov r0, #1

005BC82E  2800     		cmp r0, #0
005BC830  D119     		bne #50 ; 0x005BC866


005BC834  E025     		b #74 ; 0x005BC882


005BC838  F8DF 74D8		ldr r7, [pc, #+1240] ; 0xB0
005BC83C  59F0     		ldr r0, [r6, +r7]

005BC83E  2801     		cmp r0, #1
005BC840  BF98 2000		lsmov r0, #0
005BC844  BF88 2001		himov r0, #1

005BC848  2800     		cmp r0, #0
005BC84A  D006     		beq #12 ; 0x005BC85A


005BC84E  2001     		mov r0, #1 ; 1
005BC850  F8DF 74A8		ldr r7, [pc, #+1192] ; 0x99
005BC854  55F0     		strb r0, [r6, +r7]

005BC856  E004     		b #8 ; 0x005BC862


005BC85A  2002     		mov r0, #2 ; 2
005BC85C  F8DF 749C		ldr r7, [pc, #+1180] ; 0x99
005BC860  55F0     		strb r0, [r6, +r7]

005BC862  E014     		b #40 ; 0x005BC88E


005BC866  F8DF 74A4		ldr r7, [pc, #+1188] ; 0xA8
005BC86A  59F0     		ldr r0, [r6, +r7]

005BC86C  2732     		mov r7, #50 ; 50
005BC86E  42B8     		cmp r0, r7
005BC870  BF18 2000		nemov r0, #0
005BC874  BF08 2001		eqmov r0, #1

005BC878  2800     		cmp r0, #0
005BC87A  D000     		beq #0 ; 0x005BC87E


005BC87E  E006     		b #12 ; 0x005BC88E


005BC882  200A     		mov r0, #10 ; 10
005BC884  F8DF 7490		ldr r7, [pc, #+1168] ; 0xB8
005BC888  55F0     		strb r0, [r6, +r7]

005BC88A  F000 BEDB		b #3510 ; 0x005BD644


005BC88E  E31B     		b #1590 ; 0x005BCEC8


005BC892  F8DF 7468		ldr r7, [pc, #+1128] ; 0x99
005BC896  5DF0     		ldrb r0, [r6, +r7]

005BC898  2803     		cmp r0, #3
005BC89A  BF18 2000		nemov r0, #0
005BC89E  BF08 2001		eqmov r0, #1

005BC8A2  2800     		cmp r0, #0
005BC8A4  D10D     		bne #26 ; 0x005BC8C2


005BC8A8  F8DF 7450		ldr r7, [pc, #+1104] ; 0x99
005BC8AC  5DF0     		ldrb r0, [r6, +r7]

005BC8AE  2804     		cmp r0, #4
005BC8B0  BF18 2000		nemov r0, #0
005BC8B4  BF08 2001		eqmov r0, #1

005BC8B8  2800     		cmp r0, #0
005BC8BA  D116     		bne #44 ; 0x005BC8EA


005BC8BE  E01C     		b #56 ; 0x005BC8FA


005BC8C2  F8DF 7448		ldr r7, [pc, #+1096] ; 0xA8
005BC8C6  59F0     		ldr r0, [r6, +r7]

005BC8C8  2732     		mov r7, #50 ; 50
005BC8CA  42B8     		cmp r0, r7
005BC8CC  BF08 2000		eqmov r0, #0
005BC8D0  BF18 2001		nemov r0, #1

005BC8D4  2800     		cmp r0, #0
005BC8D6  D006     		beq #12 ; 0x005BC8E6


005BC8DA  2005     		mov r0, #5 ; 5
005BC8DC  F8DF 741C		ldr r7, [pc, #+1052] ; 0x99
005BC8E0  55F0     		strb r0, [r6, +r7]

005BC8E2  E2FA     		b #1524 ; 0x005BCEDA


005BC8E6  E00E     		b #28 ; 0x005BC906


005BC8EA  2005     		mov r0, #5 ; 5
005BC8EC  F8DF 740C		ldr r7, [pc, #+1036] ; 0x99
005BC8F0  55F0     		strb r0, [r6, +r7]

005BC8F2  E2F2     		b #1508 ; 0x005BCEDA


005BC8F6  E006     		b #12 ; 0x005BC906


005BC8FA  200C     		mov r0, #12 ; 12
005BC8FC  F8DF 7418		ldr r7, [pc, #+1048] ; 0xB8
005BC900  55F0     		strb r0, [r6, +r7]

005BC902  F000 BE9F		b #3390 ; 0x005BD644


005BC906  E2DF     		b #1470 ; 0x005BCEC8


005BC90A  F8DF 73F0		ldr r7, [pc, #+1008] ; 0x99
005BC90E  5DF0     		ldrb r0, [r6, +r7]

005BC910  2803     		cmp r0, #3
005BC912  BF18 2000		nemov r0, #0
005BC916  BF08 2001		eqmov r0, #1

005BC91A  2800     		cmp r0, #0
005BC91C  D102     		bne #4 ; 0x005BC924


005BC920  E012     		b #36 ; 0x005BC948


005BC924  F8DF 73E4		ldr r7, [pc, #+996] ; 0xA8
005BC928  59F0     		ldr r0, [r6, +r7]

005BC92A  2732     		mov r7, #50 ; 50
005BC92C  42B8     		cmp r0, r7
005BC92E  BF08 2000		eqmov r0, #0
005BC932  BF18 2001		nemov r0, #1

005BC936  2800     		cmp r0, #0
005BC938  D006     		beq #12 ; 0x005BC948


005BC93C  2005     		mov r0, #5 ; 5
005BC93E  F8DF 73BC		ldr r7, [pc, #+956] ; 0x99
005BC942  55F0     		strb r0, [r6, +r7]

005BC944  E2C9     		b #1426 ; 0x005BCEDA


005BC948  E2BE     		b #1404 ; 0x005BCEC8


005BC94C  F8DF 73AC		ldr r7, [pc, #+940] ; 0x99
005BC950  5DF0     		ldrb r0, [r6, +r7]

005BC952  2802     		cmp r0, #2
005BC954  BF18 2000		nemov r0, #0
005BC958  BF08 2001		eqmov r0, #1

005BC95C  2800     		cmp r0, #0
005BC95E  D10D     		bne #26 ; 0x005BC97C


005BC962  F8DF 7398		ldr r7, [pc, #+920] ; 0x99
005BC966  5DF0     		ldrb r0, [r6, +r7]

005BC968  2803     		cmp r0, #3
005BC96A  BF18 2000		nemov r0, #0
005BC96E  BF08 2001		eqmov r0, #1

005BC972  2800     		cmp r0, #0
005BC974  D123     		bne #70 ; 0x005BC9BE


005BC978  E041     		b #130 ; 0x005BC9FE


005BC97C  F8DF 738C		ldr r7, [pc, #+908] ; 0xA8
005BC980  59F0     		ldr r0, [r6, +r7]

005BC982  2732     		mov r7, #50 ; 50
005BC984  42B8     		cmp r0, r7
005BC986  BF18 2000		nemov r0, #0
005BC98A  BF08 2001		eqmov r0, #1

005BC98E  2800     		cmp r0, #0
005BC990  D00D     		beq #26 ; 0x005BC9AE


005BC994  F8DF 7350		ldr r7, [pc, #+848] ; 0x8
005BC998  59F0     		ldr r0, [r6, +r7]

005BC99A  1C40     		add r0, r0, #1

005BC99C  F8DF 734C		ldr r7, [pc, #+844] ; 0xC
005BC9A0  51F0     		str r0, [r6, +r7]

005BC9A2  2003     		mov r0, #3 ; 3
005BC9A4  F8DF 7354		ldr r7, [pc, #+852] ; 0x99
005BC9A8  55F0     		strb r0, [r6, +r7]

005BC9AA  E006     		b #12 ; 0x005BC9BA


005BC9AE  200D     		mov r0, #13 ; 13
005BC9B0  F8DF 7364		ldr r7, [pc, #+868] ; 0xB8
005BC9B4  55F0     		strb r0, [r6, +r7]

005BC9B6  F000 BE45		b #3210 ; 0x005BD644


005BC9BA  E026     		b #76 ; 0x005BCA0A


005BC9BE  F8DF 734C		ldr r7, [pc, #+844] ; 0xA8
005BC9C2  59F0     		ldr r0, [r6, +r7]

005BC9C4  2732     		mov r7, #50 ; 50
005BC9C6  42B8     		cmp r0, r7
005BC9C8  BF18 2000		nemov r0, #0
005BC9CC  BF08 2001		eqmov r0, #1

005BC9D0  2800     		cmp r0, #0
005BC9D2  D00C     		beq #24 ; 0x005BC9EE


005BC9D6  F8DF 7310		ldr r7, [pc, #+784] ; 0x8
005BC9DA  59F0     		ldr r0, [r6, +r7]
005BC9DC  F8DF 7310		ldr r7, [pc, #+784] ; 0x10
005BC9E0  51F0     		str r0, [r6, +r7]

005BC9E2  2004     		mov r0, #4 ; 4
005BC9E4  F8DF 7314		ldr r7, [pc, #+788] ; 0x99
005BC9E8  55F0     		strb r0, [r6, +r7]

005BC9EA  E006     		b #12 ; 0x005BC9FA


005BC9EE  200E     		mov r0, #14 ; 14
005BC9F0  F8DF 7324		ldr r7, [pc, #+804] ; 0xB8
005BC9F4  55F0     		strb r0, [r6, +r7]

005BC9F6  F000 BE25		b #3146 ; 0x005BD644


005BC9FA  E006     		b #12 ; 0x005BCA0A


005BC9FE  200F     		mov r0, #15 ; 15
005BCA00  F8DF 7314		ldr r7, [pc, #+788] ; 0xB8
005BCA04  55F0     		strb r0, [r6, +r7]

005BCA06  F000 BE1D		b #3130 ; 0x005BD644


005BCA0A  E25D     		b #1210 ; 0x005BCEC8


005BCA0E  F8DF 72EC		ldr r7, [pc, #+748] ; 0x99
005BCA12  5DF0     		ldrb r0, [r6, +r7]

005BCA14  2802     		cmp r0, #2
005BCA16  BF18 2000		nemov r0, #0
005BCA1A  BF08 2001		eqmov r0, #1

005BCA1E  2800     		cmp r0, #0
005BCA20  D10D     		bne #26 ; 0x005BCA3E


005BCA24  F8DF 72D4		ldr r7, [pc, #+724] ; 0x99
005BCA28  5DF0     		ldrb r0, [r6, +r7]

005BCA2A  2803     		cmp r0, #3
005BCA2C  BF18 2000		nemov r0, #0
005BCA30  BF08 2001		eqmov r0, #1

005BCA34  2800     		cmp r0, #0
005BCA36  D122     		bne #68 ; 0x005BCA7E


005BCA3A  E026     		b #76 ; 0x005BCA8A


005BCA3E  F8DF 72CC		ldr r7, [pc, #+716] ; 0xA8
005BCA42  59F0     		ldr r0, [r6, +r7]

005BCA44  2732     		mov r7, #50 ; 50
005BCA46  42B8     		cmp r0, r7
005BCA48  BF08 2000		eqmov r0, #0
005BCA4C  BF18 2001		nemov r0, #1

005BCA50  2800     		cmp r0, #0
005BCA52  D00C     		beq #24 ; 0x005BCA6E


005BCA56  F8DF 7290		ldr r7, [pc, #+656] ; 0x8
005BCA5A  59F0     		ldr r0, [r6, +r7]
005BCA5C  F8DF 728C		ldr r7, [pc, #+652] ; 0xC
005BCA60  51F0     		str r0, [r6, +r7]

005BCA62  2003     		mov r0, #3 ; 3
005BCA64  F8DF 7294		ldr r7, [pc, #+660] ; 0x99
005BCA68  55F0     		strb r0, [r6, +r7]

005BCA6A  E006     		b #12 ; 0x005BCA7A


005BCA6E  2010     		mov r0, #16 ; 16
005BCA70  F8DF 72A4		ldr r7, [pc, #+676] ; 0xB8
005BCA74  55F0     		strb r0, [r6, +r7]

005BCA76  F000 BDE5		b #3018 ; 0x005BD644


005BCA7A  E00C     		b #24 ; 0x005BCA96


005BCA7E  2003     		mov r0, #3 ; 3
005BCA80  F8DF 7278		ldr r7, [pc, #+632] ; 0x99
005BCA84  55F0     		strb r0, [r6, +r7]

005BCA86  E006     		b #12 ; 0x005BCA96


005BCA8A  2011     		mov r0, #17 ; 17
005BCA8C  F8DF 7288		ldr r7, [pc, #+648] ; 0xB8
005BCA90  55F0     		strb r0, [r6, +r7]

005BCA92  F000 BDD7		b #2990 ; 0x005BD644


005BCA96  E217     		b #1070 ; 0x005BCEC8


005BCA9A  F8DF 7260		ldr r7, [pc, #+608] ; 0x99
005BCA9E  5DF0     		ldrb r0, [r6, +r7]

005BCAA0  2801     		cmp r0, #1
005BCAA2  BF18 2000		nemov r0, #0
005BCAA6  BF08 2001		eqmov r0, #1

005BCAAA  2800     		cmp r0, #0
005BCAAC  D10D     		bne #26 ; 0x005BCACA


005BCAB0  F8DF 7248		ldr r7, [pc, #+584] ; 0x99
005BCAB4  5DF0     		ldrb r0, [r6, +r7]

005BCAB6  2803     		cmp r0, #3
005BCAB8  BF18 2000		nemov r0, #0
005BCABC  BF08 2001		eqmov r0, #1

005BCAC0  2800     		cmp r0, #0
005BCAC2  D108     		bne #16 ; 0x005BCAD6


005BCAC6  E01A     		b #52 ; 0x005BCAFE


005BCACA  2002     		mov r0, #2 ; 2
005BCACC  F8DF 722C		ldr r7, [pc, #+556] ; 0x99
005BCAD0  55F0     		strb r0, [r6, +r7]

005BCAD2  E01A     		b #52 ; 0x005BCB0A


005BCAD6  F8DF 7234		ldr r7, [pc, #+564] ; 0xA8
005BCADA  59F0     		ldr r0, [r6, +r7]

005BCADC  2732     		mov r7, #50 ; 50
005BCADE  42B8     		cmp r0, r7
005BCAE0  BF08 2000		eqmov r0, #0
005BCAE4  BF18 2001		nemov r0, #1

005BCAE8  2800     		cmp r0, #0
005BCAEA  D006     		beq #12 ; 0x005BCAFA


005BCAEE  2012     		mov r0, #18 ; 18
005BCAF0  F8DF 7224		ldr r7, [pc, #+548] ; 0xB8
005BCAF4  55F0     		strb r0, [r6, +r7]

005BCAF6  F000 BDA5		b #2890 ; 0x005BD644


005BCAFA  E006     		b #12 ; 0x005BCB0A


005BCAFE  2013     		mov r0, #19 ; 19
005BCB00  F8DF 7214		ldr r7, [pc, #+532] ; 0xB8
005BCB04  55F0     		strb r0, [r6, +r7]

005BCB06  F000 BD9D		b #2874 ; 0x005BD644


005BCB0A  E1DD     		b #954 ; 0x005BCEC8


005BCB0E  F8DF 71EC		ldr r7, [pc, #+492] ; 0x99
005BCB12  5DF0     		ldrb r0, [r6, +r7]

005BCB14  2803     		cmp r0, #3
005BCB16  BF18 2000		nemov r0, #0
005BCB1A  BF08 2001		eqmov r0, #1

005BCB1E  2800     		cmp r0, #0
005BCB20  D102     		bne #4 ; 0x005BCB28


005BCB24  E031     		b #98 ; 0x005BCB8A


005BCB28  F8DF 71E0		ldr r7, [pc, #+480] ; 0xA8
005BCB2C  59F0     		ldr r0, [r6, +r7]

005BCB2E  2732     		mov r7, #50 ; 50
005BCB30  42B8     		cmp r0, r7
005BCB32  BF08 2000		eqmov r0, #0
005BCB36  BF18 2001		nemov r0, #1

005BCB3A  2800     		cmp r0, #0
005BCB3C  D006     		beq #12 ; 0x005BCB4C


005BCB40  2014     		mov r0, #20 ; 20
005BCB42  F8DF 71D4		ldr r7, [pc, #+468] ; 0xB8
005BCB46  55F0     		strb r0, [r6, +r7]

005BCB48  F000 BD7C		b #2808 ; 0x005BD644


005BCB4C  F8DF 7198		ldr r7, [pc, #+408] ; 0x8
005BCB50  59F0     		ldr r0, [r6, +r7]

005BCB52  1C40     		add r0, r0, #1

005BCB54  B082     		sub sp, sp, #8
005BCB56  4607     		mov r7, r0
005BCB58  F8CD 7000		str r7, [sp]
005BCB5C  F8DF 41DC		ldr r4, [pc, #+476] ; 0x5BA4E8
005BCB60  F044 0401		orr r4, r4, #1
005BCB64  47A0     		blx r4
005BCB66  B002     		add sp, sp, #8

005BCB68  2822     		cmp r0, #34
005BCB6A  BF18 2000		nemov r0, #0
005BCB6E  BF08 2001		eqmov r0, #1

005BCB72  2800     		cmp r0, #0
005BCB74  D007     		beq #14 ; 0x005BCB86


005BCB78  F8DF 716C		ldr r7, [pc, #+364] ; 0x8
005BCB7C  59F0     		ldr r0, [r6, +r7]

005BCB7E  1C40     		add r0, r0, #1

005BCB80  F8DF 7164		ldr r7, [pc, #+356] ; 0x8
005BCB84  51F0     		str r0, [r6, +r7]

005BCB86  E006     		b #12 ; 0x005BCB96


005BCB8A  2015     		mov r0, #21 ; 21
005BCB8C  F8DF 7188		ldr r7, [pc, #+392] ; 0xB8
005BCB90  55F0     		strb r0, [r6, +r7]

005BCB92  F000 BD57		b #2734 ; 0x005BD644


005BCB96  E197     		b #814 ; 0x005BCEC8


005BCB9A  F8DF 7160		ldr r7, [pc, #+352] ; 0x99
005BCB9E  5DF0     		ldrb r0, [r6, +r7]

005BCBA0  2803     		cmp r0, #3
005BCBA2  BF18 2000		nemov r0, #0
005BCBA6  BF08 2001		eqmov r0, #1

005BCBAA  2800     		cmp r0, #0
005BCBAC  D10D     		bne #26 ; 0x005BCBCA


005BCBB0  F8DF 7148		ldr r7, [pc, #+328] ; 0x99
005BCBB4  5DF0     		ldrb r0, [r6, +r7]

005BCBB6  2804     		cmp r0, #4
005BCBB8  BF18 2000		nemov r0, #0
005BCBBC  BF08 2001		eqmov r0, #1

005BCBC0  2800     		cmp r0, #0
005BCBC2  D127     		bne #78 ; 0x005BCC14


005BCBC6  E02D     		b #90 ; 0x005BCC24


005BCBCA  F8DF 7140		ldr r7, [pc, #+320] ; 0xA8
005BCBCE  59F0     		ldr r0, [r6, +r7]

005BCBD0  2732     		mov r7, #50 ; 50
005BCBD2  42B8     		cmp r0, r7
005BCBD4  BF08 2000		eqmov r0, #0
005BCBD8  BF18 2001		nemov r0, #1

005BCBDC  2800     		cmp r0, #0
005BCBDE  D017     		beq #46 ; 0x005BCC10


005BCBE2  F8DF 7130		ldr r7, [pc, #+304] ; 0xB0
005BCBE6  59F0     		ldr r0, [r6, +r7]

005BCBE8  2802     		cmp r0, #2
005BCBEA  BF28 2000		hsmov r0, #0
005BCBEE  BF38 2001		lomov r0, #1

005BCBF2  2800     		cmp r0, #0
005BCBF4  D008     		beq #16 ; 0x005BCC08


005BCBF8  2016     		mov r0, #22 ; 22
005BCBFA  F8DF 711C		ldr r7, [pc, #+284] ; 0xB8
005BCBFE  55F0     		strb r0, [r6, +r7]

005BCC00  F000 BD20		b #2624 ; 0x005BD644


005BCC04  E004     		b #8 ; 0x005BCC10


005BCC08  2004     		mov r0, #4 ; 4
005BCC0A  F8DF 70F0		ldr r7, [pc, #+240] ; 0x99
005BCC0E  55F0     		strb r0, [r6, +r7]

005BCC10  E00E     		b #28 ; 0x005BCC30


005BCC14  2005     		mov r0, #5 ; 5
005BCC16  F8DF 70E4		ldr r7, [pc, #+228] ; 0x99
005BCC1A  55F0     		strb r0, [r6, +r7]

005BCC1C  E15D     		b #698 ; 0x005BCEDA


005BCC20  E006     		b #12 ; 0x005BCC30


005BCC24  2017     		mov r0, #23 ; 23
005BCC26  F8DF 70F0		ldr r7, [pc, #+240] ; 0xB8
005BCC2A  55F0     		strb r0, [r6, +r7]

005BCC2C  F000 BD0A		b #2580 ; 0x005BD644


005BCC30  E14A     		b #660 ; 0x005BCEC8


005BCC34  F8DF 70C4		ldr r7, [pc, #+196] ; 0x99
005BCC38  5DF0     		ldrb r0, [r6, +r7]

005BCC3A  2802     		cmp r0, #2
005BCC3C  BF18 2000		nemov r0, #0
005BCC40  BF08 2001		eqmov r0, #1

005BCC44  2800     		cmp r0, #0
005BCC46  D10D     		bne #26 ; 0x005BCC64


005BCC4A  F8DF 70B0		ldr r7, [pc, #+176] ; 0x99
005BCC4E  5DF0     		ldrb r0, [r6, +r7]

005BCC50  2803     		cmp r0, #3
005BCC52  BF18 2000		nemov r0, #0
005BCC56  BF08 2001		eqmov r0, #1

005BCC5A  2800     		cmp r0, #0
005BCC5C  F040 80E9		bne #466 ; 0x005BCE32


005BCC60  E132     		b #612 ; 0x005BCEC8


005BCC64  F8DF 70A4		ldr r7, [pc, #+164] ; 0xA8
005BCC68  59F0     		ldr r0, [r6, +r7]

005BCC6A  270A     		mov r7, #10 ; 10
005BCC6C  42B8     		cmp r0, r7
005BCC6E  BF18 2000		nemov r0, #0
005BCC72  BF08 2001		eqmov r0, #1

005BCC76  2800     		cmp r0, #0
005BCC78  F000 80D9		beq #434 ; 0x005BCE2E


005BCC7C  F8DF 00B4		ldr r0, [pc, #+180] ; 0x5BA0E4

005BCC80  F8DF 7098		ldr r7, [pc, #+152] ; 0xBC
005BCC84  51F0     		str r0, [r6, +r7]

005BCC86  B082     		sub sp, sp, #8
005BCC88  F8DF 705C		ldr r7, [pc, #+92] ; 0x8
005BCC8C  59F7     		ldr r7, [r6, +r7]
005BCC8E  F8CD 7000		str r7, [sp]
005BCC92  F8DF 40AC		ldr r4, [pc, #+172] ; 0x5BA574
005BCC96  F044 0401		orr r4, r4, #1
005BCC9A  47A0     		blx r4
005BCC9C  B002     		add sp, sp, #8

005BCC9E  B082     		sub sp, sp, #8
005BCCA0  F8CD 0000		str r0, [sp]
005BCCA4  2000     		mov r0, #0 ; 0

005BCCA6  B082     		sub sp, sp, #8
005BCCA8  F8DF 703C		ldr r7, [pc, #+60] ; 0x8
005BCCAC  59F0     		ldr r0, [r6, +r7]
005BCCAE  2705     		mov r7, #5 ; 5
005BCCB0  4639     		mov r1, r7
005BCCB2  F8DF 7068		ldr r7, [pc, #+104] ; 0xBC
005BCCB6  59F7     		ldr r7, [r6, +r7]
005BCCB8  463A     		mov r2, r7
005BCCBA  2705     		mov r7, #5 ; 5
005BCCBC  463B     		mov r3, r7
005BCCBE  2700     		mov r7, #0 ; 0
005BCCC0  F8CD 7000		str r7, [sp]
005BCCC4  F8DF 4060		ldr r4, [pc, #+96] ; 0x4A237D
005BCCC8  F044 0401		orr r4, r4, #1
005BCCCC  47A0     		blx r4
005BCCCE  B002     		add sp, sp, #8

005BCCD0  4607     		mov r7, r0
005BCCD2  F8DD 0000		ldr r0, [sp]
005BCCD6  B002     		add sp, sp, #8
005BCCD8  42B8     		cmp r0, r7
005BCCDA  BF18 2000		nemov r0, #0
005BCCDE  BF08 2001		eqmov r0, #1

005BCCE2  E02F     		b #94

005BCCE4  00000004		; 0x00000004
005BCCE8  00000008		; 0x00000008
005BCCEC  0000000C		; 0x0000000C
005BCCF0  00000010		; 0x00000010
005BCCF4  00000014		; 0x00000014
005BCCF8  00000018		; 0x00000018
005BCCFC  00000099		; 0x00000099
005BCD00  0000009C		; 0x0000009C
005BCD04  000000A0		; 0x000000A0
005BCD08  000000A4		; 0x000000A4
005BCD0C  000000A8		; 0x000000A8
005BCD10  000000AC		; 0x000000AC
005BCD14  000000B0		; 0x000000B0
005BCD18  000000B8		; 0x000000B8
005BCD1C  000000BC		; 0x000000BC
005BCD20  000000C4		; 0x000000C4
005BCD24  004A1321		; 0x004A1321
005BCD28  004A237D		; 0x004A237D
005BCD2C  004A2421		; 0x004A2421
005BCD30  004A2581		; 0x004A2581
005BCD34  005BA0E4		; 0x005BA0E4
005BCD38  005BA128		; 0x005BA128
005BCD3C  005BA4E8		; 0x005BA4E8
005BCD40  005BA574		; 0x005BA574

005BCD44  2800     		cmp r0, #0
005BCD46  D01F     		beq #62 ; 0x005BCD88


005BCD4A  2005     		mov r0, #5 ; 5

005BCD4C  1E40     		sub r0, r0, #1

005BCD4E  F85F 7068		ldr r7, [pc, #-104] ; 0x8
005BCD52  59F7     		ldr r7, [r6, +r7]
005BCD54  19C0     		add r0, r0, r7

005BCD56  F85F 7070		ldr r7, [pc, #-112] ; 0x8
005BCD5A  51F0     		str r0, [r6, +r7]

005BCD5C  B082     		sub sp, sp, #8
005BCD5E  F85F 706C		ldr r7, [pc, #-108] ; 0x14
005BCD62  59F7     		ldr r7, [r6, +r7]
005BCD64  F8CD 7000		str r7, [sp]
005BCD68  2700     		mov r7, #0 ; 0
005BCD6A  F8CD 7004		str r7, [sp, #+4]
005BCD6E  F8DF 481C		ldr r4, [pc, #+2076] ; 0x5BA53C
005BCD72  F044 0401		orr r4, r4, #1
005BCD76  47A0     		blx r4
005BCD78  B002     		add sp, sp, #8

005BCD7A  6030     		str r0, [r6]

005BCD7C  2003     		mov r0, #3 ; 3
005BCD7E  F85F 7084		ldr r7, [pc, #-132] ; 0x99
005BCD82  55F0     		strb r0, [r6, +r7]

005BCD84  E053     		b #166 ; 0x005BCE2E


005BCD88  F8DF 07D8		ldr r0, [pc, #+2008] ; 0x5BA0EC

005BCD8C  F85F 7074		ldr r7, [pc, #-116] ; 0xBC
005BCD90  51F0     		str r0, [r6, +r7]

005BCD92  B082     		sub sp, sp, #8
005BCD94  F85F 70B0		ldr r7, [pc, #-176] ; 0x8
005BCD98  59F7     		ldr r7, [r6, +r7]
005BCD9A  F8CD 7000		str r7, [sp]
005BCD9E  F85F 4060		ldr r4, [pc, #-96] ; 0x5BA574
005BCDA2  F044 0401		orr r4, r4, #1
005BCDA6  47A0     		blx r4
005BCDA8  B002     		add sp, sp, #8

005BCDAA  B082     		sub sp, sp, #8
005BCDAC  F8CD 0000		str r0, [sp]
005BCDB0  2000     		mov r0, #0 ; 0

005BCDB2  B082     		sub sp, sp, #8
005BCDB4  F85F 70D0		ldr r7, [pc, #-208] ; 0x8
005BCDB8  59F0     		ldr r0, [r6, +r7]
005BCDBA  2704     		mov r7, #4 ; 4
005BCDBC  4639     		mov r1, r7
005BCDBE  F85F 70A4		ldr r7, [pc, #-164] ; 0xBC
005BCDC2  59F7     		ldr r7, [r6, +r7]
005BCDC4  463A     		mov r2, r7
005BCDC6  2704     		mov r7, #4 ; 4
005BCDC8  463B     		mov r3, r7
005BCDCA  2700     		mov r7, #0 ; 0
005BCDCC  F8CD 7000		str r7, [sp]
005BCDD0  F85F 40AC		ldr r4, [pc, #-172] ; 0x4A237D
005BCDD4  F044 0401		orr r4, r4, #1
005BCDD8  47A0     		blx r4
005BCDDA  B002     		add sp, sp, #8

005BCDDC  4607     		mov r7, r0
005BCDDE  F8DD 0000		ldr r0, [sp]
005BCDE2  B002     		add sp, sp, #8
005BCDE4  42B8     		cmp r0, r7
005BCDE6  BF18 2000		nemov r0, #0
005BCDEA  BF08 2001		eqmov r0, #1

005BCDEE  2800     		cmp r0, #0
005BCDF0  D01D     		beq #58 ; 0x005BCE2E


005BCDF4  2004     		mov r0, #4 ; 4

005BCDF6  1E40     		sub r0, r0, #1

005BCDF8  F85F 7114		ldr r7, [pc, #-276] ; 0x8
005BCDFC  59F7     		ldr r7, [r6, +r7]
005BCDFE  19C0     		add r0, r0, r7

005BCE00  F85F 711C		ldr r7, [pc, #-284] ; 0x8
005BCE04  51F0     		str r0, [r6, +r7]

005BCE06  B082     		sub sp, sp, #8
005BCE08  F85F 7118		ldr r7, [pc, #-280] ; 0x14
005BCE0C  59F7     		ldr r7, [r6, +r7]
005BCE0E  F8CD 7000		str r7, [sp]
005BCE12  2701     		mov r7, #1 ; 1
005BCE14  F8CD 7004		str r7, [sp, #+4]
005BCE18  F8DF 4770		ldr r4, [pc, #+1904] ; 0x5BA53C
005BCE1C  F044 0401		orr r4, r4, #1
005BCE20  47A0     		blx r4
005BCE22  B002     		add sp, sp, #8

005BCE24  6030     		str r0, [r6]

005BCE26  2003     		mov r0, #3 ; 3
005BCE28  F85F 7130		ldr r7, [pc, #-304] ; 0x99
005BCE2C  55F0     		strb r0, [r6, +r7]

005BCE2E  E04B     		b #150 ; 0x005BCEC8


005BCE32  F85F 7128		ldr r7, [pc, #-296] ; 0xA8
005BCE36  59F0     		ldr r0, [r6, +r7]

005BCE38  273F     		mov r7, #63 ; 63
005BCE3A  42B8     		cmp r0, r7
005BCE3C  BF18 2000		nemov r0, #0
005BCE40  BF08 2001		eqmov r0, #1

005BCE44  B082     		sub sp, sp, #8
005BCE46  F8CD 0000		str r0, [sp]
005BCE4A  F85F 7140		ldr r7, [pc, #-320] ; 0xA8
005BCE4E  59F0     		ldr r0, [r6, +r7]

005BCE50  272B     		mov r7, #43 ; 43
005BCE52  42B8     		cmp r0, r7
005BCE54  BF18 2000		nemov r0, #0
005BCE58  BF08 2001		eqmov r0, #1

005BCE5C  4607     		mov r7, r0
005BCE5E  F8DD 0000		ldr r0, [sp]
005BCE62  B002     		add sp, sp, #8
005BCE64  4338     		orr r0, r0, r7

005BCE66  2800     		cmp r0, #0
005BCE68  D01C     		beq #56 ; 0x005BCEA4


005BCE6C  B082     		sub sp, sp, #8
005BCE6E  F85F 7188		ldr r7, [pc, #-392] ; 0x8
005BCE72  59F7     		ldr r7, [r6, +r7]
005BCE74  F8CD 7000		str r7, [sp]
005BCE78  F85F 4140		ldr r4, [pc, #-320] ; 0x5BA4E8
005BCE7C  F044 0401		orr r4, r4, #1
005BCE80  47A0     		blx r4
005BCE82  B002     		add sp, sp, #8

005BCE84  282E     		cmp r0, #46
005BCE86  BF08 2000		eqmov r0, #0
005BCE8A  BF18 2001		nemov r0, #1

005BCE8E  2800     		cmp r0, #0
005BCE90  D006     		beq #12 ; 0x005BCEA0


005BCE94  2018     		mov r0, #24 ; 24
005BCE96  F85F 7180		ldr r7, [pc, #-384] ; 0xB8
005BCE9A  55F0     		strb r0, [r6, +r7]

005BCE9C  E3D2     		b #1956 ; 0x005BD644


005BCEA0  E012     		b #36 ; 0x005BCEC8


005BCEA4  F85F 719C		ldr r7, [pc, #-412] ; 0xA8
005BCEA8  59F0     		ldr r0, [r6, +r7]

005BCEAA  2732     		mov r7, #50 ; 50
005BCEAC  42B8     		cmp r0, r7
005BCEAE  BF08 2000		eqmov r0, #0
005BCEB2  BF18 2001		nemov r0, #1

005BCEB6  2800     		cmp r0, #0
005BCEB8  D006     		beq #12 ; 0x005BCEC8


005BCEBC  2019     		mov r0, #25 ; 25
005BCEBE  F85F 71A8		ldr r7, [pc, #-424] ; 0xB8
005BCEC2  55F0     		strb r0, [r6, +r7]

005BCEC4  E3BE     		b #1916 ; 0x005BD644


005BCEC8  F85F 71E4		ldr r7, [pc, #-484] ; 0x8
005BCECC  59F0     		ldr r0, [r6, +r7]

005BCECE  1C40     		add r0, r0, #1

005BCED0  F85F 71EC		ldr r7, [pc, #-492] ; 0x8
005BCED4  51F0     		str r0, [r6, +r7]

005BCED6  F7FF BBCB		b #-2154 ; 0x005BC670

005BCEDA  F85F 71E0		ldr r7, [pc, #-480] ; 0x99
005BCEDE  5DF0     		ldrb r0, [r6, +r7]

005BCEE0  2805     		cmp r0, #5
005BCEE2  BF08 2000		eqmov r0, #0
005BCEE6  BF18 2001		nemov r0, #1

005BCEEA  2800     		cmp r0, #0
005BCEEC  D006     		beq #12 ; 0x005BCEFC


005BCEF0  2028     		mov r0, #40 ; 40
005BCEF2  F85F 71DC		ldr r7, [pc, #-476] ; 0xB8
005BCEF6  55F0     		strb r0, [r6, +r7]

005BCEF8  E3A4     		b #1864 ; 0x005BD644


005BCEFC  2002     		mov r0, #2 ; 2
005BCEFE  F85F 7204		ldr r7, [pc, #-516] ; 0x99
005BCF02  55F0     		strb r0, [r6, +r7]

005BCF04  F85F 7220		ldr r7, [pc, #-544] ; 0x8
005BCF08  59F0     		ldr r0, [r6, +r7]

005BCF0A  1C40     		add r0, r0, #1

005BCF0C  F85F 7228		ldr r7, [pc, #-552] ; 0x8
005BCF10  51F0     		str r0, [r6, +r7]

005BCF12  F85F 7214		ldr r7, [pc, #-532] ; 0x9C
005BCF16  59F0     		ldr r0, [r6, +r7]

005BCF18  1C40     		add r0, r0, #1

005BCF1A  F85F 721C		ldr r7, [pc, #-540] ; 0x9C
005BCF1E  51F0     		str r0, [r6, +r7]

005BCF20  F85F 7218		ldr r7, [pc, #-536] ; 0xA8
005BCF24  59F0     		ldr r0, [r6, +r7]

005BCF26  270A     		mov r7, #10 ; 10
005BCF28  42B8     		cmp r0, r7
005BCF2A  BF18 2000		nemov r0, #0
005BCF2E  BF08 2001		eqmov r0, #1

005BCF32  2800     		cmp r0, #0
005BCF34  F040 80CA		bne #404 ; 0x005BD0CC


005BCF38  F85F 7230		ldr r7, [pc, #-560] ; 0xA8
005BCF3C  59F0     		ldr r0, [r6, +r7]

005BCF3E  2715     		mov r7, #21 ; 21
005BCF40  42B8     		cmp r0, r7
005BCF42  BF18 2000		nemov r0, #0
005BCF46  BF08 2001		eqmov r0, #1

005BCF4A  2800     		cmp r0, #0
005BCF4C  F040 80C7		bne #398 ; 0x005BD0DE


005BCF50  F85F 7248		ldr r7, [pc, #-584] ; 0xA8
005BCF54  59F0     		ldr r0, [r6, +r7]

005BCF56  2716     		mov r7, #22 ; 22
005BCF58  42B8     		cmp r0, r7
005BCF5A  BF18 2000		nemov r0, #0
005BCF5E  BF08 2001		eqmov r0, #1

005BCF62  B082     		sub sp, sp, #8
005BCF64  F8CD 0000		str r0, [sp]
005BCF68  F85F 7260		ldr r7, [pc, #-608] ; 0xA8
005BCF6C  59F0     		ldr r0, [r6, +r7]

005BCF6E  2714     		mov r7, #20 ; 20
005BCF70  42B8     		cmp r0, r7
005BCF72  BF18 2000		nemov r0, #0
005BCF76  BF08 2001		eqmov r0, #1

005BCF7A  4607     		mov r7, r0
005BCF7C  F8DD 0000		ldr r0, [sp]
005BCF80  B002     		add sp, sp, #8
005BCF82  4338     		orr r0, r0, r7

005BCF84  2800     		cmp r0, #0
005BCF86  F040 80D8		bne #432 ; 0x005BD13A


005BCF8A  F85F 7280		ldr r7, [pc, #-640] ; 0xA8
005BCF8E  59F0     		ldr r0, [r6, +r7]

005BCF90  271F     		mov r7, #31 ; 31
005BCF92  42B8     		cmp r0, r7
005BCF94  BF18 2000		nemov r0, #0
005BCF98  BF08 2001		eqmov r0, #1

005BCF9C  2800     		cmp r0, #0
005BCF9E  F040 80FA		bne #500 ; 0x005BD196


005BCFA2  F85F 7298		ldr r7, [pc, #-664] ; 0xA8
005BCFA6  59F0     		ldr r0, [r6, +r7]

005BCFA8  2720     		mov r7, #32 ; 32
005BCFAA  42B8     		cmp r0, r7
005BCFAC  BF18 2000		nemov r0, #0
005BCFB0  BF08 2001		eqmov r0, #1

005BCFB4  B082     		sub sp, sp, #8
005BCFB6  F8CD 0000		str r0, [sp]
005BCFBA  F85F 72B0		ldr r7, [pc, #-688] ; 0xA8
005BCFBE  59F0     		ldr r0, [r6, +r7]

005BCFC0  271E     		mov r7, #30 ; 30
005BCFC2  42B8     		cmp r0, r7
005BCFC4  BF18 2000		nemov r0, #0
005BCFC8  BF08 2001		eqmov r0, #1

005BCFCC  4607     		mov r7, r0
005BCFCE  F8DD 0000		ldr r0, [sp]
005BCFD2  B002     		add sp, sp, #8
005BCFD4  4338     		orr r0, r0, r7

005BCFD6  2800     		cmp r0, #0
005BCFD8  F040 810B		bne #534 ; 0x005BD1F2


005BCFDC  F85F 72D4		ldr r7, [pc, #-724] ; 0xA8
005BCFE0  59F0     		ldr r0, [r6, +r7]

005BCFE2  2729     		mov r7, #41 ; 41
005BCFE4  42B8     		cmp r0, r7
005BCFE6  BF18 2000		nemov r0, #0
005BCFEA  BF08 2001		eqmov r0, #1

005BCFEE  2800     		cmp r0, #0
005BCFF0  F040 812D		bne #602 ; 0x005BD24E


005BCFF4  F85F 72EC		ldr r7, [pc, #-748] ; 0xA8
005BCFF8  59F0     		ldr r0, [r6, +r7]

005BCFFA  272A     		mov r7, #42 ; 42
005BCFFC  42B8     		cmp r0, r7
005BCFFE  BF18 2000		nemov r0, #0
005BD002  BF08 2001		eqmov r0, #1

005BD006  B082     		sub sp, sp, #8
005BD008  F8CD 0000		str r0, [sp]
005BD00C  F85F 7304		ldr r7, [pc, #-772] ; 0xA8
005BD010  59F0     		ldr r0, [r6, +r7]

005BD012  2728     		mov r7, #40 ; 40
005BD014  42B8     		cmp r0, r7
005BD016  BF18 2000		nemov r0, #0
005BD01A  BF08 2001		eqmov r0, #1

005BD01E  4607     		mov r7, r0
005BD020  F8DD 0000		ldr r0, [sp]
005BD024  B002     		add sp, sp, #8
005BD026  4338     		orr r0, r0, r7

005BD028  2800     		cmp r0, #0
005BD02A  F040 813E		bne #636 ; 0x005BD2AA


005BD02E  F85F 7324		ldr r7, [pc, #-804] ; 0xA8
005BD032  59F0     		ldr r0, [r6, +r7]

005BD034  273D     		mov r7, #61 ; 61
005BD036  42B8     		cmp r0, r7
005BD038  BF18 2000		nemov r0, #0
005BD03C  BF08 2001		eqmov r0, #1

005BD040  2800     		cmp r0, #0
005BD042  F040 8160		bne #704 ; 0x005BD306


005BD046  F85F 733C		ldr r7, [pc, #-828] ; 0xA8
005BD04A  59F0     		ldr r0, [r6, +r7]

005BD04C  273E     		mov r7, #62 ; 62
005BD04E  42B8     		cmp r0, r7
005BD050  BF18 2000		nemov r0, #0
005BD054  BF08 2001		eqmov r0, #1

005BD058  B082     		sub sp, sp, #8
005BD05A  F8CD 0000		str r0, [sp]
005BD05E  F85F 7354		ldr r7, [pc, #-852] ; 0xA8
005BD062  59F0     		ldr r0, [r6, +r7]

005BD064  273C     		mov r7, #60 ; 60
005BD066  42B8     		cmp r0, r7
005BD068  BF18 2000		nemov r0, #0
005BD06C  BF08 2001		eqmov r0, #1

005BD070  4607     		mov r7, r0
005BD072  F8DD 0000		ldr r0, [sp]
005BD076  B002     		add sp, sp, #8
005BD078  4338     		orr r0, r0, r7

005BD07A  2800     		cmp r0, #0
005BD07C  F040 8171		bne #738 ; 0x005BD362


005BD080  F85F 7378		ldr r7, [pc, #-888] ; 0xA8
005BD084  59F0     		ldr r0, [r6, +r7]

005BD086  272B     		mov r7, #43 ; 43
005BD088  42B8     		cmp r0, r7
005BD08A  BF18 2000		nemov r0, #0
005BD08E  BF08 2001		eqmov r0, #1

005BD092  2800     		cmp r0, #0
005BD094  F040 8193		bne #806 ; 0x005BD3BE


005BD098  F85F 7390		ldr r7, [pc, #-912] ; 0xA8
005BD09C  59F0     		ldr r0, [r6, +r7]

005BD09E  273F     		mov r7, #63 ; 63
005BD0A0  42B8     		cmp r0, r7
005BD0A2  BF18 2000		nemov r0, #0
005BD0A6  BF08 2001		eqmov r0, #1

005BD0AA  2800     		cmp r0, #0
005BD0AC  F040 81B5		bne #874 ; 0x005BD41A


005BD0B0  F85F 73A8		ldr r7, [pc, #-936] ; 0xA8
005BD0B4  59F0     		ldr r0, [r6, +r7]

005BD0B6  2732     		mov r7, #50 ; 50
005BD0B8  42B8     		cmp r0, r7
005BD0BA  BF18 2000		nemov r0, #0
005BD0BE  BF08 2001		eqmov r0, #1

005BD0C2  2800     		cmp r0, #0
005BD0C4  F040 81D7		bne #942 ; 0x005BD476


005BD0C8  E2A6     		b #1356 ; 0x005BD618


005BD0CC  F85F 73DC		ldr r7, [pc, #-988] ; 0x14
005BD0D0  59F0     		ldr r0, [r6, +r7]

005BD0D2  1C40     		add r0, r0, #1

005BD0D4  F85F 73E4		ldr r7, [pc, #-996] ; 0x14
005BD0D8  51F0     		str r0, [r6, +r7]

005BD0DA  E2A1     		b #1346 ; 0x005BD620


005BD0DE  F8DF 0488		ldr r0, [pc, #+1160] ; 0x5BA0F4

005BD0E2  F85F 73C8		ldr r7, [pc, #-968] ; 0xBC
005BD0E6  51F0     		str r0, [r6, +r7]

005BD0E8  F85F 7400		ldr r7, [pc, #-1024] ; 0xC
005BD0EC  59F7     		ldr r7, [r6, +r7]
005BD0EE  4638     		mov r0, r7
005BD0F0  F85F 73D8		ldr r7, [pc, #-984] ; 0xBC
005BD0F4  59F1     		ldr r1, [r6, +r7]
005BD0F6  F85F 73EC		ldr r7, [pc, #-1004] ; 0xA8
005BD0FA  59F2     		ldr r2, [r6, +r7]
005BD0FC  F85F 740C		ldr r7, [pc, #-1036] ; 0x14
005BD100  59F3     		ldr r3, [r6, +r7]
005BD102  F8DF 4454		ldr r4, [pc, #+1108] ; 0x4A1475
005BD106  F044 0401		orr r4, r4, #1
005BD10A  47A0     		blx r4

005BD10C  2800     		cmp r0, #0
005BD10E  BF08 2001		eqmov r0, #1
005BD112  BF18 2000		nemov r0, #0

005BD116  2800     		cmp r0, #0
005BD118  D006     		beq #12 ; 0x005BD128


005BD11C  2032     		mov r0, #50 ; 50
005BD11E  F85F 7408		ldr r7, [pc, #-1032] ; 0xB8
005BD122  55F0     		strb r0, [r6, +r7]

005BD124  E28E     		b #1308 ; 0x005BD644


005BD128  F85F 7438		ldr r7, [pc, #-1080] ; 0x14
005BD12C  59F0     		ldr r0, [r6, +r7]

005BD12E  1C40     		add r0, r0, #1

005BD130  F85F 7440		ldr r7, [pc, #-1088] ; 0x14
005BD134  51F0     		str r0, [r6, +r7]

005BD136  E273     		b #1254 ; 0x005BD620


005BD13A  F8DF 0430		ldr r0, [pc, #+1072] ; 0x5BA0F8

005BD13E  F85F 7424		ldr r7, [pc, #-1060] ; 0xBC
005BD142  51F0     		str r0, [r6, +r7]

005BD144  F85F 745C		ldr r7, [pc, #-1116] ; 0xC
005BD148  59F7     		ldr r7, [r6, +r7]
005BD14A  4638     		mov r0, r7
005BD14C  F85F 7434		ldr r7, [pc, #-1076] ; 0xBC
005BD150  59F1     		ldr r1, [r6, +r7]
005BD152  F85F 7448		ldr r7, [pc, #-1096] ; 0xA8
005BD156  59F2     		ldr r2, [r6, +r7]
005BD158  F85F 7468		ldr r7, [pc, #-1128] ; 0x14
005BD15C  59F3     		ldr r3, [r6, +r7]
005BD15E  F8DF 43F8		ldr r4, [pc, #+1016] ; 0x4A1475
005BD162  F044 0401		orr r4, r4, #1
005BD166  47A0     		blx r4

005BD168  2800     		cmp r0, #0
005BD16A  BF08 2001		eqmov r0, #1
005BD16E  BF18 2000		nemov r0, #0

005BD172  2800     		cmp r0, #0
005BD174  D006     		beq #12 ; 0x005BD184


005BD178  2032     		mov r0, #50 ; 50
005BD17A  F85F 7464		ldr r7, [pc, #-1124] ; 0xB8
005BD17E  55F0     		strb r0, [r6, +r7]

005BD180  E260     		b #1216 ; 0x005BD644


005BD184  F85F 7494		ldr r7, [pc, #-1172] ; 0x14
005BD188  59F0     		ldr r0, [r6, +r7]

005BD18A  1C40     		add r0, r0, #1

005BD18C  F85F 749C		ldr r7, [pc, #-1180] ; 0x14
005BD190  51F0     		str r0, [r6, +r7]

005BD192  E245     		b #1162 ; 0x005BD620


005BD196  F8DF 03D0		ldr r0, [pc, #+976] ; 0x5BA0F4

005BD19A  F85F 7480		ldr r7, [pc, #-1152] ; 0xBC
005BD19E  51F0     		str r0, [r6, +r7]

005BD1A0  F85F 74B8		ldr r7, [pc, #-1208] ; 0xC
005BD1A4  59F7     		ldr r7, [r6, +r7]
005BD1A6  4638     		mov r0, r7
005BD1A8  F85F 7490		ldr r7, [pc, #-1168] ; 0xBC
005BD1AC  59F1     		ldr r1, [r6, +r7]
005BD1AE  F85F 74A4		ldr r7, [pc, #-1188] ; 0xA8
005BD1B2  59F2     		ldr r2, [r6, +r7]
005BD1B4  F85F 74C4		ldr r7, [pc, #-1220] ; 0x14
005BD1B8  59F3     		ldr r3, [r6, +r7]
005BD1BA  F8DF 439C		ldr r4, [pc, #+924] ; 0x4A1475
005BD1BE  F044 0401		orr r4, r4, #1
005BD1C2  47A0     		blx r4

005BD1C4  2800     		cmp r0, #0
005BD1C6  BF08 2001		eqmov r0, #1
005BD1CA  BF18 2000		nemov r0, #0

005BD1CE  2800     		cmp r0, #0
005BD1D0  D006     		beq #12 ; 0x005BD1E0


005BD1D4  2033     		mov r0, #51 ; 51
005BD1D6  F85F 74C0		ldr r7, [pc, #-1216] ; 0xB8
005BD1DA  55F0     		strb r0, [r6, +r7]

005BD1DC  E232     		b #1124 ; 0x005BD644


005BD1E0  F85F 74F0		ldr r7, [pc, #-1264] ; 0x14
005BD1E4  59F0     		ldr r0, [r6, +r7]

005BD1E6  1C80     		add r0, r0, #2

005BD1E8  F85F 74F8		ldr r7, [pc, #-1272] ; 0x14
005BD1EC  51F0     		str r0, [r6, +r7]

005BD1EE  E217     		b #1070 ; 0x005BD620


005BD1F2  F8DF 0378		ldr r0, [pc, #+888] ; 0x5BA0F8

005BD1F6  F85F 74DC		ldr r7, [pc, #-1244] ; 0xBC
005BD1FA  51F0     		str r0, [r6, +r7]

005BD1FC  F85F 7514		ldr r7, [pc, #-1300] ; 0xC
005BD200  59F7     		ldr r7, [r6, +r7]
005BD202  4638     		mov r0, r7
005BD204  F85F 74EC		ldr r7, [pc, #-1260] ; 0xBC
005BD208  59F1     		ldr r1, [r6, +r7]
005BD20A  F85F 7500		ldr r7, [pc, #-1280] ; 0xA8
005BD20E  59F2     		ldr r2, [r6, +r7]
005BD210  F85F 7520		ldr r7, [pc, #-1312] ; 0x14
005BD214  59F3     		ldr r3, [r6, +r7]
005BD216  F8DF 4340		ldr r4, [pc, #+832] ; 0x4A1475
005BD21A  F044 0401		orr r4, r4, #1
005BD21E  47A0     		blx r4

005BD220  2800     		cmp r0, #0
005BD222  BF08 2001		eqmov r0, #1
005BD226  BF18 2000		nemov r0, #0

005BD22A  2800     		cmp r0, #0
005BD22C  D006     		beq #12 ; 0x005BD23C


005BD230  2033     		mov r0, #51 ; 51
005BD232  F85F 751C		ldr r7, [pc, #-1308] ; 0xB8
005BD236  55F0     		strb r0, [r6, +r7]

005BD238  E204     		b #1032 ; 0x005BD644


005BD23C  F85F 754C		ldr r7, [pc, #-1356] ; 0x14
005BD240  59F0     		ldr r0, [r6, +r7]

005BD242  1C80     		add r0, r0, #2

005BD244  F85F 7554		ldr r7, [pc, #-1364] ; 0x14
005BD248  51F0     		str r0, [r6, +r7]

005BD24A  E1E9     		b #978 ; 0x005BD620


005BD24E  F8DF 0320		ldr r0, [pc, #+800] ; 0x5BA0FC

005BD252  F85F 7538		ldr r7, [pc, #-1336] ; 0xBC
005BD256  51F0     		str r0, [r6, +r7]

005BD258  F85F 7570		ldr r7, [pc, #-1392] ; 0xC
005BD25C  59F7     		ldr r7, [r6, +r7]
005BD25E  4638     		mov r0, r7
005BD260  F85F 7548		ldr r7, [pc, #-1352] ; 0xBC
005BD264  59F1     		ldr r1, [r6, +r7]
005BD266  F85F 755C		ldr r7, [pc, #-1372] ; 0xA8
005BD26A  59F2     		ldr r2, [r6, +r7]
005BD26C  F85F 757C		ldr r7, [pc, #-1404] ; 0x14
005BD270  59F3     		ldr r3, [r6, +r7]
005BD272  F8DF 42E4		ldr r4, [pc, #+740] ; 0x4A1475
005BD276  F044 0401		orr r4, r4, #1
005BD27A  47A0     		blx r4

005BD27C  2800     		cmp r0, #0
005BD27E  BF08 2001		eqmov r0, #1
005BD282  BF18 2000		nemov r0, #0

005BD286  2800     		cmp r0, #0
005BD288  D006     		beq #12 ; 0x005BD298


005BD28C  2034     		mov r0, #52 ; 52
005BD28E  F85F 7578		ldr r7, [pc, #-1400] ; 0xB8
005BD292  55F0     		strb r0, [r6, +r7]

005BD294  E1D6     		b #940 ; 0x005BD644


005BD298  F85F 75A8		ldr r7, [pc, #-1448] ; 0x14
005BD29C  59F0     		ldr r0, [r6, +r7]

005BD29E  1D00     		add r0, r0, #4

005BD2A0  F85F 75B0		ldr r7, [pc, #-1456] ; 0x14
005BD2A4  51F0     		str r0, [r6, +r7]

005BD2A6  E1BB     		b #886 ; 0x005BD620


005BD2AA  F8DF 02C8		ldr r0, [pc, #+712] ; 0x5BA104

005BD2AE  F85F 7594		ldr r7, [pc, #-1428] ; 0xBC
005BD2B2  51F0     		str r0, [r6, +r7]

005BD2B4  F85F 75CC		ldr r7, [pc, #-1484] ; 0xC
005BD2B8  59F7     		ldr r7, [r6, +r7]
005BD2BA  4638     		mov r0, r7
005BD2BC  F85F 75A4		ldr r7, [pc, #-1444] ; 0xBC
005BD2C0  59F1     		ldr r1, [r6, +r7]
005BD2C2  F85F 75B8		ldr r7, [pc, #-1464] ; 0xA8
005BD2C6  59F2     		ldr r2, [r6, +r7]
005BD2C8  F85F 75D8		ldr r7, [pc, #-1496] ; 0x14
005BD2CC  59F3     		ldr r3, [r6, +r7]
005BD2CE  F8DF 4288		ldr r4, [pc, #+648] ; 0x4A1475
005BD2D2  F044 0401		orr r4, r4, #1
005BD2D6  47A0     		blx r4

005BD2D8  2800     		cmp r0, #0
005BD2DA  BF08 2001		eqmov r0, #1
005BD2DE  BF18 2000		nemov r0, #0

005BD2E2  2800     		cmp r0, #0
005BD2E4  D006     		beq #12 ; 0x005BD2F4


005BD2E8  2034     		mov r0, #52 ; 52
005BD2EA  F85F 75D4		ldr r7, [pc, #-1492] ; 0xB8
005BD2EE  55F0     		strb r0, [r6, +r7]

005BD2F0  E1A8     		b #848 ; 0x005BD644


005BD2F4  F85F 7604		ldr r7, [pc, #-1540] ; 0x14
005BD2F8  59F0     		ldr r0, [r6, +r7]

005BD2FA  1D00     		add r0, r0, #4

005BD2FC  F85F 760C		ldr r7, [pc, #-1548] ; 0x14
005BD300  51F0     		str r0, [r6, +r7]

005BD302  E18D     		b #794 ; 0x005BD620


005BD306  F8DF 0270		ldr r0, [pc, #+624] ; 0x5BA10C

005BD30A  F85F 75F0		ldr r7, [pc, #-1520] ; 0xBC
005BD30E  51F0     		str r0, [r6, +r7]

005BD310  F85F 7628		ldr r7, [pc, #-1576] ; 0xC
005BD314  59F7     		ldr r7, [r6, +r7]
005BD316  4638     		mov r0, r7
005BD318  F85F 7600		ldr r7, [pc, #-1536] ; 0xBC
005BD31C  59F1     		ldr r1, [r6, +r7]
005BD31E  F85F 7614		ldr r7, [pc, #-1556] ; 0xA8
005BD322  59F2     		ldr r2, [r6, +r7]
005BD324  F85F 7634		ldr r7, [pc, #-1588] ; 0x14
005BD328  59F3     		ldr r3, [r6, +r7]
005BD32A  F8DF 422C		ldr r4, [pc, #+556] ; 0x4A1475
005BD32E  F044 0401		orr r4, r4, #1
005BD332  47A0     		blx r4

005BD334  2800     		cmp r0, #0
005BD336  BF08 2001		eqmov r0, #1
005BD33A  BF18 2000		nemov r0, #0

005BD33E  2800     		cmp r0, #0
005BD340  D006     		beq #12 ; 0x005BD350


005BD344  2034     		mov r0, #52 ; 52
005BD346  F85F 7630		ldr r7, [pc, #-1584] ; 0xB8
005BD34A  55F0     		strb r0, [r6, +r7]

005BD34C  E17A     		b #756 ; 0x005BD644


005BD350  F85F 7660		ldr r7, [pc, #-1632] ; 0x14
005BD354  59F0     		ldr r0, [r6, +r7]

005BD356  1D00     		add r0, r0, #4

005BD358  F85F 7668		ldr r7, [pc, #-1640] ; 0x14
005BD35C  51F0     		str r0, [r6, +r7]

005BD35E  E15F     		b #702 ; 0x005BD620


005BD362  F8DF 0218		ldr r0, [pc, #+536] ; 0x5BA114

005BD366  F85F 764C		ldr r7, [pc, #-1612] ; 0xBC
005BD36A  51F0     		str r0, [r6, +r7]

005BD36C  F85F 7684		ldr r7, [pc, #-1668] ; 0xC
005BD370  59F7     		ldr r7, [r6, +r7]
005BD372  4638     		mov r0, r7
005BD374  F85F 765C		ldr r7, [pc, #-1628] ; 0xBC
005BD378  59F1     		ldr r1, [r6, +r7]
005BD37A  F85F 7670		ldr r7, [pc, #-1648] ; 0xA8
005BD37E  59F2     		ldr r2, [r6, +r7]
005BD380  F85F 7690		ldr r7, [pc, #-1680] ; 0x14
005BD384  59F3     		ldr r3, [r6, +r7]
005BD386  F8DF 41D0		ldr r4, [pc, #+464] ; 0x4A1475
005BD38A  F044 0401		orr r4, r4, #1
005BD38E  47A0     		blx r4

005BD390  2800     		cmp r0, #0
005BD392  BF08 2001		eqmov r0, #1
005BD396  BF18 2000		nemov r0, #0

005BD39A  2800     		cmp r0, #0
005BD39C  D006     		beq #12 ; 0x005BD3AC


005BD3A0  2034     		mov r0, #52 ; 52
005BD3A2  F85F 768C		ldr r7, [pc, #-1676] ; 0xB8
005BD3A6  55F0     		strb r0, [r6, +r7]

005BD3A8  E14C     		b #664 ; 0x005BD644


005BD3AC  F85F 76BC		ldr r7, [pc, #-1724] ; 0x14
005BD3B0  59F0     		ldr r0, [r6, +r7]

005BD3B2  1D00     		add r0, r0, #4

005BD3B4  F85F 76C4		ldr r7, [pc, #-1732] ; 0x14
005BD3B8  51F0     		str r0, [r6, +r7]

005BD3BA  E131     		b #610 ; 0x005BD620


005BD3BE  F8DF 01C0		ldr r0, [pc, #+448] ; 0x5BA11C

005BD3C2  F85F 76A8		ldr r7, [pc, #-1704] ; 0xBC
005BD3C6  51F0     		str r0, [r6, +r7]

005BD3C8  F85F 76E0		ldr r7, [pc, #-1760] ; 0xC
005BD3CC  59F7     		ldr r7, [r6, +r7]
005BD3CE  4638     		mov r0, r7
005BD3D0  F85F 76B8		ldr r7, [pc, #-1720] ; 0xBC
005BD3D4  59F1     		ldr r1, [r6, +r7]
005BD3D6  F85F 76CC		ldr r7, [pc, #-1740] ; 0xA8
005BD3DA  59F2     		ldr r2, [r6, +r7]
005BD3DC  F85F 76EC		ldr r7, [pc, #-1772] ; 0x14
005BD3E0  59F3     		ldr r3, [r6, +r7]
005BD3E2  F8DF 4174		ldr r4, [pc, #+372] ; 0x4A1475
005BD3E6  F044 0401		orr r4, r4, #1
005BD3EA  47A0     		blx r4

005BD3EC  2800     		cmp r0, #0
005BD3EE  BF08 2001		eqmov r0, #1
005BD3F2  BF18 2000		nemov r0, #0

005BD3F6  2800     		cmp r0, #0
005BD3F8  D006     		beq #12 ; 0x005BD408


005BD3FC  2035     		mov r0, #53 ; 53
005BD3FE  F85F 76E8		ldr r7, [pc, #-1768] ; 0xB8
005BD402  55F0     		strb r0, [r6, +r7]

005BD404  E11E     		b #572 ; 0x005BD644


005BD408  F85F 7718		ldr r7, [pc, #-1816] ; 0x14
005BD40C  59F0     		ldr r0, [r6, +r7]

005BD40E  1D00     		add r0, r0, #4

005BD410  F85F 7720		ldr r7, [pc, #-1824] ; 0x14
005BD414  51F0     		str r0, [r6, +r7]

005BD416  E103     		b #518 ; 0x005BD620


005BD41A  F8DF 0168		ldr r0, [pc, #+360] ; 0x5BA120

005BD41E  F85F 7704		ldr r7, [pc, #-1796] ; 0xBC
005BD422  51F0     		str r0, [r6, +r7]

005BD424  F85F 773C		ldr r7, [pc, #-1852] ; 0xC
005BD428  59F7     		ldr r7, [r6, +r7]
005BD42A  4638     		mov r0, r7
005BD42C  F85F 7714		ldr r7, [pc, #-1812] ; 0xBC
005BD430  59F1     		ldr r1, [r6, +r7]
005BD432  F85F 7728		ldr r7, [pc, #-1832] ; 0xA8
005BD436  59F2     		ldr r2, [r6, +r7]
005BD438  F85F 7748		ldr r7, [pc, #-1864] ; 0x14
005BD43C  59F3     		ldr r3, [r6, +r7]
005BD43E  F8DF 4118		ldr r4, [pc, #+280] ; 0x4A1475
005BD442  F044 0401		orr r4, r4, #1
005BD446  47A0     		blx r4

005BD448  2800     		cmp r0, #0
005BD44A  BF08 2001		eqmov r0, #1
005BD44E  BF18 2000		nemov r0, #0

005BD452  2800     		cmp r0, #0
005BD454  D006     		beq #12 ; 0x005BD464


005BD458  2035     		mov r0, #53 ; 53
005BD45A  F85F 7744		ldr r7, [pc, #-1860] ; 0xB8
005BD45E  55F0     		strb r0, [r6, +r7]

005BD460  E0F0     		b #480 ; 0x005BD644


005BD464  F85F 7774		ldr r7, [pc, #-1908] ; 0x14
005BD468  59F0     		ldr r0, [r6, +r7]

005BD46A  1D00     		add r0, r0, #4

005BD46C  F85F 777C		ldr r7, [pc, #-1916] ; 0x14
005BD470  51F0     		str r0, [r6, +r7]

005BD472  E0D5     		b #426 ; 0x005BD620


005BD476  F85F 7788		ldr r7, [pc, #-1928] ; 0x10
005BD47A  59F0     		ldr r0, [r6, +r7]

005BD47C  F85F 7794		ldr r7, [pc, #-1940] ; 0xC
005BD480  59F7     		ldr r7, [r6, +r7]
005BD482  1BC0     		sub r0, r0, r7

005BD484  F8DF 70C8		ldr r7, [pc, #+200] ; 0xB4
005BD488  59F7     		ldr r7, [r6, +r7]
005BD48A  42B8     		cmp r0, r7
005BD48C  BF38 2000		lomov r0, #0
005BD490  BF28 2001		hsmov r0, #1

005BD494  2800     		cmp r0, #0
005BD496  D00B     		beq #22 ; 0x005BD4B0


005BD49A  F85F 77B0		ldr r7, [pc, #-1968] ; 0xC
005BD49E  59F0     		ldr r0, [r6, +r7]

005BD4A0  F8DF 70AC		ldr r7, [pc, #+172] ; 0xB4
005BD4A4  59F7     		ldr r7, [r6, +r7]
005BD4A6  19C0     		add r0, r0, r7

005BD4A8  1E40     		sub r0, r0, #1

005BD4AA  F85F 77BC		ldr r7, [pc, #-1980] ; 0x10
005BD4AE  51F0     		str r0, [r6, +r7]

005BD4B0  F85F 77A0		ldr r7, [pc, #-1952] ; 0xB0
005BD4B4  59F0     		ldr r0, [r6, +r7]

005BD4B6  2801     		cmp r0, #1
005BD4B8  BF18 2000		nemov r0, #0
005BD4BC  BF08 2001		eqmov r0, #1

005BD4C0  2800     		cmp r0, #0
005BD4C2  D037     		beq #110 ; 0x005BD534


005BD4C6  F85F 77D4		ldr r7, [pc, #-2004] ; 0x14
005BD4CA  59F0     		ldr r0, [r6, +r7]
005BD4CC  2700     		mov r7, #0 ; 0
005BD4CE  4639     		mov r1, r7
005BD4D0  F8DF 707C		ldr r7, [pc, #+124] ; 0xB4
005BD4D4  59F2     		ldr r2, [r6, +r7]
005BD4D6  F8DF 4084		ldr r4, [pc, #+132] ; 0x4A22DD
005BD4DA  F044 0401		orr r4, r4, #1
005BD4DE  47A0     		blx r4

005BD4E0  6030     		str r0, [r6]

005BD4E2  F85F 77F4		ldr r7, [pc, #-2036] ; 0x10
005BD4E6  59F0     		ldr r0, [r6, +r7]

005BD4E8  F85F 7800		ldr r7, [pc, #-2048] ; 0xC
005BD4EC  59F7     		ldr r7, [r6, +r7]
005BD4EE  42B8     		cmp r0, r7
005BD4F0  BF08 2000		eqmov r0, #0
005BD4F4  BF18 2001		nemov r0, #1

005BD4F8  2800     		cmp r0, #0
005BD4FA  D019     		beq #50 ; 0x005BD530


005BD4FE  F85F 7810		ldr r7, [pc, #-2064] ; 0x10
005BD502  59F0     		ldr r0, [r6, +r7]

005BD504  F85F 781C		ldr r7, [pc, #-2076] ; 0xC
005BD508  59F7     		ldr r7, [r6, +r7]
005BD50A  1BC0     		sub r0, r0, r7

005BD50C  F8DF 7044		ldr r7, [pc, #+68] ; 0xC0
005BD510  51F0     		str r0, [r6, +r7]

005BD512  F85F 7820		ldr r7, [pc, #-2080] ; 0x14
005BD516  59F0     		ldr r0, [r6, +r7]
005BD518  F85F 7830		ldr r7, [pc, #-2096] ; 0xC
005BD51C  59F1     		ldr r1, [r6, +r7]
005BD51E  F8DF 7034		ldr r7, [pc, #+52] ; 0xC0
005BD522  59F2     		ldr r2, [r6, +r7]
005BD524  F8DF 4038		ldr r4, [pc, #+56] ; 0x4A232D
005BD528  F044 0401		orr r4, r4, #1
005BD52C  47A0     		blx r4

005BD52E  6030     		str r0, [r6]

005BD530  E070     		b #224 ; 0x005BD614


005BD534  B082     		sub sp, sp, #8
005BD536  F85F 7844		ldr r7, [pc, #-2116] ; 0x14
005BD53A  59F7     		ldr r7, [r6, +r7]
005BD53C  F8CD 7000		str r7, [sp]
005BD540  F8DF 4044		ldr r4, [pc, #+68] ; 0x5BA512
005BD544  F044 0401		orr r4, r4, #1
005BD548  47A0     		blx r4
005BD54A  B002     		add sp, sp, #8

005BD54C  E020     		b #64

005BD550  000000B4		; 0x000000B4
005BD554  000000C0		; 0x000000C0
005BD558  004A1475		; 0x004A1475
005BD55C  004A22DD		; 0x004A22DD
005BD560  004A232D		; 0x004A232D
005BD564  005BA0EC		; 0x005BA0EC
005BD568  005BA0F4		; 0x005BA0F4
005BD56C  005BA0F8		; 0x005BA0F8
005BD570  005BA0FC		; 0x005BA0FC
005BD574  005BA104		; 0x005BA104
005BD578  005BA10C		; 0x005BA10C
005BD57C  005BA114		; 0x005BA114
005BD580  005BA11C		; 0x005BA11C
005BD584  005BA120		; 0x005BA120
005BD588  005BA512		; 0x005BA512
005BD58C  005BA53C		; 0x005BA53C

005BD590  2700     		mov r7, #0 ; 0
005BD592  4639     		mov r1, r7
005BD594  F85F 7048		ldr r7, [pc, #-72] ; 0xB4
005BD598  59F2     		ldr r2, [r6, +r7]
005BD59A  F85F 4040		ldr r4, [pc, #-64] ; 0x4A22DD
005BD59E  F044 0401		orr r4, r4, #1
005BD5A2  47A0     		blx r4

005BD5A4  6030     		str r0, [r6]

005BD5A6  F85F 78B8		ldr r7, [pc, #-2232] ; 0x10
005BD5AA  59F0     		ldr r0, [r6, +r7]

005BD5AC  F85F 78C4		ldr r7, [pc, #-2244] ; 0xC
005BD5B0  59F7     		ldr r7, [r6, +r7]
005BD5B2  42B8     		cmp r0, r7
005BD5B4  BF08 2000		eqmov r0, #0
005BD5B8  BF18 2001		nemov r0, #1

005BD5BC  2800     		cmp r0, #0
005BD5BE  D022     		beq #68 ; 0x005BD606


005BD5C2  F85F 78D4		ldr r7, [pc, #-2260] ; 0x10
005BD5C6  59F0     		ldr r0, [r6, +r7]

005BD5C8  F85F 78E0		ldr r7, [pc, #-2272] ; 0xC
005BD5CC  59F7     		ldr r7, [r6, +r7]
005BD5CE  1BC0     		sub r0, r0, r7

005BD5D0  F85F 7080		ldr r7, [pc, #-128] ; 0xC0
005BD5D4  51F0     		str r0, [r6, +r7]

005BD5D6  B082     		sub sp, sp, #8
005BD5D8  F85F 78E8		ldr r7, [pc, #-2280] ; 0x14
005BD5DC  59F7     		ldr r7, [r6, +r7]
005BD5DE  F8CD 7000		str r7, [sp]
005BD5E2  F85F 405C		ldr r4, [pc, #-92] ; 0x5BA512
005BD5E6  F044 0401		orr r4, r4, #1
005BD5EA  47A0     		blx r4
005BD5EC  B002     		add sp, sp, #8

005BD5EE  F85F 7904		ldr r7, [pc, #-2308] ; 0xC
005BD5F2  59F1     		ldr r1, [r6, +r7]
005BD5F4  F85F 70A4		ldr r7, [pc, #-164] ; 0xC0
005BD5F8  59F2     		ldr r2, [r6, +r7]
005BD5FA  F85F 409C		ldr r4, [pc, #-156] ; 0x4A232D
005BD5FE  F044 0401		orr r4, r4, #1
005BD602  47A0     		blx r4

005BD604  6030     		str r0, [r6]

005BD606  F85F 7914		ldr r7, [pc, #-2324] ; 0x14
005BD60A  59F0     		ldr r0, [r6, +r7]

005BD60C  1D00     		add r0, r0, #4

005BD60E  F85F 791C		ldr r7, [pc, #-2332] ; 0x14
005BD612  51F0     		str r0, [r6, +r7]

005BD614  E004     		b #8 ; 0x005BD620


005BD618  2036     		mov r0, #54 ; 54
005BD61A  F85F 7904		ldr r7, [pc, #-2308] ; 0xB8
005BD61E  55F0     		strb r0, [r6, +r7]

005BD620  F85F 7924		ldr r7, [pc, #-2340] ; 0x9C
005BD624  59F0     		ldr r0, [r6, +r7]

005BD626  F85F 7914		ldr r7, [pc, #-2324] ; 0xB0
005BD62A  59F7     		ldr r7, [r6, +r7]
005BD62C  42B8     		cmp r0, r7
005BD62E  BF18 2000		nemov r0, #0
005BD632  BF08 2001		eqmov r0, #1

005BD636  2800     		cmp r0, #0
005BD638  D002     		beq #4 ; 0x005BD640


005BD63C  E002     		b #4 ; 0x005BD644


005BD640  F7FF B80C		b #-4072 ; 0x005BC65C

005BD644  E8BD 4040		ldmia sp!, { r6, lr }

005BD648  4770     		bx lr


Frame allocation:

	0000       : VAR i
	0004       : VAR OLength
	0008       : VAR Ptr
	0018       : VAR AStr
	0099       : VAR SFlag
	009C       : VAR ICount
	00A0       : VAR Object
	00A4       : VAR Name
	00A8       : VAR VType
	00AC       : VAR VAddress
	00B0       : VAR Count
	00B4       : VAR Size
	00B8       : VAR ECode

END_FUNCTION_BLOCK
**************************************************
	List function block: MQTTClient_v1
**************************************************

FUNCTION_BLOCK MQTTClient_v1

	{ DE:"(Sfr079d000) eLLabNetworkLib - Client for a MQTT server" }

        VAR_INPUT
Enable : BOOL;
SpyOn : BOOL;	{ DE:"Spy active" }
Publish : BOOL;	{ DE:"Publish command" }
Subscribe : BOOL;	{ DE:"Subscribe command" }
File : DWORD;	{ DE:"File pointer" }
ClientID : @STRING;	{ DE:"Client identifier string" }
Username : @STRING;	{ DE:"Username" }
Password : @STRING;	{ DE:"Password" }
KeepAlive : UINT;	{ DE:"Keep Alive time (S)" }
Flags : DWORD;	{ DE:"Protocol flags" }
QoS : USINT;	{ DE:"Quality of service" }
Topic : @STRING;	{ DE:"Topic name" }
Value : DWORD;	{ DE:"Topic value" }
VLength : UDINT;	{ DE:"Topic value length" }
TBufferRxD : @STRING;	{ DE:"Topic buffer received" }
TBLengthRxD : UDINT;	{ DE:"Topic buffer length received" }
VBufferRxD : DWORD;	{ DE:"Value buffer received" }
VBLengthRxD : UDINT;	{ DE:"Value buffer length received" }
	END_VAR

        VAR_OUTPUT
Connect : BOOL;	{ DE:"Connect to server" }
Connected : BOOL;	{ DE:"Connected to server" }
Fault : BOOL;	{ DE:"Execution fault" }
Published : BOOL;	{ DE:"Topic published (Pulse)" }
Subscribed : BOOL;	{ DE:"Topic subscribed (Pulse)" }
TopicRxD : BOOL;	{ DE:"Topic received (Pulse)" }
VLengthRxD : UDINT;	{ DE:"Topic value length received" }
CTime : REAL;	{ DE:"Communication time (S)" }
Errors : UDINT;	{ DE:"Error counter" }
TxPkts : UDINT;	{ DE:"Tx packets counter" }
RxPkts : UDINT;	{ DE:"Rx packets counter" }
	END_VAR

        VAR_EXTERNAL
	{G:"SystemVariables"}
SysActTaskID AT %MB0.64 : USINT;	{ DE:"System active task ID" }
	END_VAR

        VAR
AFPublish : ARRAY[0..1] OF BOOL;	{ DE:"Auxiliary flags (Publish)" }
AFSubscribe : ARRAY[0..1] OF BOOL;	{ DE:"Auxiliary flags (Subscribe)" }
BIDx : ARRAY[0..1] OF UDINT;	{ DE:"Buffer index [Rx][Tx]" }
BSpy : DWORD;	{ DE:"Buffer spy (SysRMAlloc)" }
CaseBk : USINT;	{ DE:"Case back" }
CaseNr : USINT;	{ DE:"Case number" }
ConnectionTBf : UDINT;	{ DE:"Connection time buffer (mS)" }
ConnectOn : BOOL;	{ DE:"Connection in progress" }
CTimeBf : ARRAY[0..2] OF UDINT;	{ DE:"Cases time buffer (mS) [Rx][Tx][Tx]" }
ErrorNr : UDINT;	{ DE:"Error number" }
AyB : BYTE;	{ DE:"Auxiliary byte buffer" }
AwB : WORD;	{ DE:"Auxiliary word buffer" }
AdB : DWORD;	{ DE:"Auxiliary double buffer" }
i : UDINT;	{ DE:"Auxiliary variable" }
PIDIDx : USINT;	{ DE:"Packet identifier index" }
PingOn : BOOL;	{ DE:"Ping in progress" }
PingTBf : UDINT;	{ DE:"Ping time buffer (mS)" }
PublishOn : BOOL;	{ DE:"Publish in progress" }
PublishPIDRx : ARRAY[0..7] OF UINT;	{ DE:"Publish packed ID (Received from broker)" }
PublishPIDTx : UINT;	{ DE:"Publish packed ID (Sent to broker)" }
RLength : ARRAY[0..1] OF UDINT;	{ DE:"Remaining length [Rx][Tx]" }
RLSize : UDINT;	{ DE:"Remaining length size" }
RxChrs : UDINT;	{ DE:"Number of Rx characters" }
SubscribeOn : BOOL;	{ DE:"Subscribe in progress" }
SubscribePID : UINT;	{ DE:"Subscribe packet ID" }
TLength : UDINT;	{ DE:"Topic length" }
RxData : DWORD;	{ DE:"Rx data buffer (SysRMAlloc)" }
LData : UDINT := 2048;	{ DE:"Data length (SysRMAlloc)" }
Header : ARRAY[0..6] OF BYTE;	{ DE:"MQTT header" }
TxData : DWORD;	{ DE:"Tx data buffer (SysRMAlloc)" }
SPtr : DWORD;	{ DE:"String pointer" }
SLgt : UDINT := 256;	{ DE:"Buffer spy length (SysRMAlloc)" }
	END_VAR

END_FUNCTION_BLOCK

005BD64A  E92D 4040		stmdb sp!, { r6, lr }
005BD64E  462E     		mov r6, r5

005BD650  2000     		mov r0, #0 ; 0
005BD652  F8DF 7884		ldr r7, [pc, #+2180] ; 0xC6
005BD656  55F0     		strb r0, [r6, +r7]

005BD658  2000     		mov r0, #0 ; 0
005BD65A  F8DF 7888		ldr r7, [pc, #+2184] ; 0xC9
005BD65E  55F0     		strb r0, [r6, +r7]

005BD660  2000     		mov r0, #0 ; 0
005BD662  F8DF 7878		ldr r7, [pc, #+2168] ; 0xC7
005BD666  55F0     		strb r0, [r6, +r7]

005BD668  2000     		mov r0, #0 ; 0
005BD66A  F8DF 7874		ldr r7, [pc, #+2164] ; 0xC8
005BD66E  55F0     		strb r0, [r6, +r7]

005BD670  F8DF 7848		ldr r7, [pc, #+2120] ; 0x8A
005BD674  5DF0     		ldrb r0, [r6, +r7]

005BD676  7837     		ldrb r7, [r6]
005BD678  42B8     		cmp r0, r7
005BD67A  BF08 2000		eqmov r0, #0
005BD67E  BF18 2001		nemov r0, #1

005BD682  2800     		cmp r0, #0
005BD684  D00E     		beq #28 ; 0x005BD6A4


005BD688  F8DF 7830		ldr r7, [pc, #+2096] ; 0x8A
005BD68C  5DF0     		ldrb r0, [r6, +r7]
005BD68E  7030     		strb r0, [r6]

005BD690  F8DF 7828		ldr r7, [pc, #+2088] ; 0x8A
005BD694  5DF0     		ldrb r0, [r6, +r7]

005BD696  2800     		cmp r0, #0
005BD698  D004     		beq #8 ; 0x005BD6A4


005BD69C  2001     		mov r0, #1 ; 1
005BD69E  F8DF 77B0		ldr r7, [pc, #+1968] ; 0x1
005BD6A2  55F0     		strb r0, [r6, +r7]

005BD6A4  F8DF 7818		ldr r7, [pc, #+2072] ; 0x8B
005BD6A8  5DF0     		ldrb r0, [r6, +r7]

005BD6AA  F8DF 77A8		ldr r7, [pc, #+1960] ; 0x2
005BD6AE  5DF7     		ldrb r7, [r6, +r7]
005BD6B0  42B8     		cmp r0, r7
005BD6B2  BF08 2000		eqmov r0, #0
005BD6B6  BF18 2001		nemov r0, #1

005BD6BA  2800     		cmp r0, #0
005BD6BC  D010     		beq #32 ; 0x005BD6E0


005BD6C0  F8DF 77FC		ldr r7, [pc, #+2044] ; 0x8B
005BD6C4  5DF0     		ldrb r0, [r6, +r7]
005BD6C6  F8DF 778C		ldr r7, [pc, #+1932] ; 0x2
005BD6CA  55F0     		strb r0, [r6, +r7]

005BD6CC  F8DF 77F0		ldr r7, [pc, #+2032] ; 0x8B
005BD6D0  5DF0     		ldrb r0, [r6, +r7]

005BD6D2  2800     		cmp r0, #0
005BD6D4  D004     		beq #8 ; 0x005BD6E0


005BD6D8  2001     		mov r0, #1 ; 1
005BD6DA  F8DF 777C		ldr r7, [pc, #+1916] ; 0x3
005BD6DE  55F0     		strb r0, [r6, +r7]

005BD6E0  F8DF 777C		ldr r7, [pc, #+1916] ; 0xC
005BD6E4  59F0     		ldr r0, [r6, +r7]

005BD6E6  2700     		mov r7, #0 ; 0
005BD6E8  42B8     		cmp r0, r7
005BD6EA  BF18 2000		nemov r0, #0
005BD6EE  BF08 2001		eqmov r0, #1

005BD6F2  F8DF 77C4		ldr r7, [pc, #+1988] ; 0x89
005BD6F6  5DF7     		ldrb r7, [r6, +r7]
005BD6F8  4038     		and r0, r0, r7

005BD6FA  2800     		cmp r0, #0
005BD6FC  D015     		beq #42 ; 0x005BD72A


005BD700  F8DF 775C		ldr r7, [pc, #+1884] ; 0xC
005BD704  19F0     		add r0, r6, r7

005BD706  F8DF 77E4		ldr r7, [pc, #+2020] ; 0xE0
005BD70A  51F0     		str r0, [r6, +r7]

005BD70C  F8DF 77A0		ldr r7, [pc, #+1952] ; 0x84
005BD710  59F0     		ldr r0, [r6, +r7]
005BD712  F8DF 77D8		ldr r7, [pc, #+2008] ; 0xE0
005BD716  59F7     		ldr r7, [r6, +r7]
005BD718  4639     		mov r1, r7
005BD71A  F8DF 4810		ldr r4, [pc, #+2064] ; 0x4A1F45
005BD71E  F044 0401		orr r4, r4, #1
005BD722  47A0     		blx r4

005BD724  F8DF 7758		ldr r7, [pc, #+1880] ; 0x34
005BD728  51F0     		str r0, [r6, +r7]

005BD72A  F8DF 7734		ldr r7, [pc, #+1844] ; 0xC
005BD72E  59F0     		ldr r0, [r6, +r7]

005BD730  2700     		mov r7, #0 ; 0
005BD732  42B8     		cmp r0, r7
005BD734  BF08 2000		eqmov r0, #0
005BD738  BF18 2001		nemov r0, #1

005BD73C  B082     		sub sp, sp, #8
005BD73E  F8CD 0000		str r0, [sp]
005BD742  F8DF 7774		ldr r7, [pc, #+1908] ; 0x89
005BD746  5DF0     		ldrb r0, [r6, +r7]

005BD748  2800     		cmp r0, #0
005BD74A  BF08 2001		eqmov r0, #1
005BD74E  BF18 2000		nemov r0, #0

005BD752  4607     		mov r7, r0
005BD754  F8DD 0000		ldr r0, [sp]
005BD758  B002     		add sp, sp, #8
005BD75A  4038     		and r0, r0, r7

005BD75C  2800     		cmp r0, #0
005BD75E  D00D     		beq #26 ; 0x005BD77C


005BD762  F8DF 76FC		ldr r7, [pc, #+1788] ; 0xC
005BD766  19F0     		add r0, r6, r7

005BD768  4607     		mov r7, r0
005BD76A  4638     		mov r0, r7
005BD76C  F8DF 47C0		ldr r4, [pc, #+1984] ; 0x4A1FD5
005BD770  F044 0401		orr r4, r4, #1
005BD774  47A0     		blx r4

005BD776  F8DF 7708		ldr r7, [pc, #+1800] ; 0x34
005BD77A  51F0     		str r0, [r6, +r7]

005BD77C  F8DF 76F8		ldr r7, [pc, #+1784] ; 0x28
005BD780  59F0     		ldr r0, [r6, +r7]

005BD782  2800     		cmp r0, #0
005BD784  BF08 2000		eqmov r0, #0
005BD788  BF18 2001		nemov r0, #1

005BD78C  2800     		cmp r0, #0
005BD78E  F000 80CF		beq #414 ; 0x005BD930


005BD792  F8DF 76CC		ldr r7, [pc, #+1740] ; 0xC
005BD796  59F0     		ldr r0, [r6, +r7]

005BD798  2700     		mov r7, #0 ; 0
005BD79A  42B8     		cmp r0, r7
005BD79C  BF08 2000		eqmov r0, #0
005BD7A0  BF18 2001		nemov r0, #1

005BD7A4  2800     		cmp r0, #0
005BD7A6  F000 8093		beq #294 ; 0x005BD8D0


005BD7AA  F8DF 07A0		ldr r0, [pc, #+1952] ; 0x5BA18C

005BD7AE  F8DF 7740		ldr r7, [pc, #+1856] ; 0xE4
005BD7B2  51F0     		str r0, [r6, +r7]

005BD7B4  F8DF 76C0		ldr r7, [pc, #+1728] ; 0x28
005BD7B8  19F0     		add r0, r6, r7

005BD7BA  F8DF 7738		ldr r7, [pc, #+1848] ; 0xE8
005BD7BE  51F0     		str r0, [r6, +r7]

005BD7C0  B082     		sub sp, sp, #8
005BD7C2  F8DF 769C		ldr r7, [pc, #+1692] ; 0xC
005BD7C6  59F7     		ldr r7, [r6, +r7]
005BD7C8  4638     		mov r0, r7
005BD7CA  F8DF 76E4		ldr r7, [pc, #+1764] ; 0x84
005BD7CE  59F1     		ldr r1, [r6, +r7]
005BD7D0  F8DF 771C		ldr r7, [pc, #+1820] ; 0xE4
005BD7D4  59F2     		ldr r2, [r6, +r7]
005BD7D6  232A     		mov r3, #42 ; 42
005BD7D8  F8DF 7718		ldr r7, [pc, #+1816] ; 0xE8
005BD7DC  59F7     		ldr r7, [r6, +r7]
005BD7DE  F8CD 7000		str r7, [sp]
005BD7E2  F8DF 4730		ldr r4, [pc, #+1840] ; 0x4A1321
005BD7E6  F044 0401		orr r4, r4, #1
005BD7EA  47A0     		blx r4
005BD7EC  B002     		add sp, sp, #8

005BD7EE  F8DF 7690		ldr r7, [pc, #+1680] ; 0x34
005BD7F2  51F0     		str r0, [r6, +r7]

005BD7F4  F8DF 0758		ldr r0, [pc, #+1880] ; 0x5BA198

005BD7F8  F8DF 76F4		ldr r7, [pc, #+1780] ; 0xE4
005BD7FC  51F0     		str r0, [r6, +r7]

005BD7FE  F8DF 7668		ldr r7, [pc, #+1640] ; 0x11
005BD802  19F0     		add r0, r6, r7

005BD804  F8DF 76F0		ldr r7, [pc, #+1776] ; 0xEC
005BD808  51F0     		str r0, [r6, +r7]

005BD80A  B082     		sub sp, sp, #8
005BD80C  F8DF 7650		ldr r7, [pc, #+1616] ; 0xC
005BD810  59F7     		ldr r7, [r6, +r7]
005BD812  4638     		mov r0, r7
005BD814  F8DF 7698		ldr r7, [pc, #+1688] ; 0x84
005BD818  59F1     		ldr r1, [r6, +r7]
005BD81A  F8DF 76D4		ldr r7, [pc, #+1748] ; 0xE4
005BD81E  59F2     		ldr r2, [r6, +r7]
005BD820  2316     		mov r3, #22 ; 22
005BD822  F8DF 76D4		ldr r7, [pc, #+1748] ; 0xEC
005BD826  59F7     		ldr r7, [r6, +r7]
005BD828  F8CD 7000		str r7, [sp]
005BD82C  F8DF 46E8		ldr r4, [pc, #+1768] ; 0x4A13A9
005BD830  F044 0401		orr r4, r4, #1
005BD834  47A0     		blx r4
005BD836  B002     		add sp, sp, #8

005BD838  F8DF 7644		ldr r7, [pc, #+1604] ; 0x34
005BD83C  51F0     		str r0, [r6, +r7]

005BD83E  F8DF 0714		ldr r0, [pc, #+1812] ; 0x5BA1A8

005BD842  F8DF 76AC		ldr r7, [pc, #+1708] ; 0xE4
005BD846  51F0     		str r0, [r6, +r7]

005BD848  F8DF 7618		ldr r7, [pc, #+1560] ; 0x10
005BD84C  19F0     		add r0, r6, r7

005BD84E  F8DF 76A8		ldr r7, [pc, #+1704] ; 0xEC
005BD852  51F0     		str r0, [r6, +r7]

005BD854  B082     		sub sp, sp, #8
005BD856  F8DF 7608		ldr r7, [pc, #+1544] ; 0xC
005BD85A  59F7     		ldr r7, [r6, +r7]
005BD85C  4638     		mov r0, r7
005BD85E  F8DF 7650		ldr r7, [pc, #+1616] ; 0x84
005BD862  59F1     		ldr r1, [r6, +r7]
005BD864  F8DF 7688		ldr r7, [pc, #+1672] ; 0xE4
005BD868  59F2     		ldr r2, [r6, +r7]
005BD86A  2316     		mov r3, #22 ; 22
005BD86C  F8DF 7688		ldr r7, [pc, #+1672] ; 0xEC
005BD870  59F7     		ldr r7, [r6, +r7]
005BD872  F8CD 7000		str r7, [sp]
005BD876  F8DF 46A0		ldr r4, [pc, #+1696] ; 0x4A13A9
005BD87A  F044 0401		orr r4, r4, #1
005BD87E  47A0     		blx r4
005BD880  B002     		add sp, sp, #8

005BD882  F8DF 75FC		ldr r7, [pc, #+1532] ; 0x34
005BD886  51F0     		str r0, [r6, +r7]

005BD888  F8DF 06CC		ldr r0, [pc, #+1740] ; 0x5BA1B8

005BD88C  F8DF 7660		ldr r7, [pc, #+1632] ; 0xE4
005BD890  51F0     		str r0, [r6, +r7]

005BD892  B082     		sub sp, sp, #8
005BD894  2001     		mov r0, #1 ; 1
005BD896  2700     		mov r7, #0 ; 0
005BD898  4639     		mov r1, r7
005BD89A  F04F 4780		mov r7, #1073741824 ; 1073741824
005BD89E  463A     		mov r2, r7
005BD8A0  F8DF 764C		ldr r7, [pc, #+1612] ; 0xE4
005BD8A4  59F3     		ldr r3, [r6, +r7]
005BD8A6  F8DF 75B8		ldr r7, [pc, #+1464] ; 0xC
005BD8AA  59F7     		ldr r7, [r6, +r7]
005BD8AC  F8CD 7000		str r7, [sp]
005BD8B0  F8DF 4668		ldr r4, [pc, #+1640] ; 0x4A17A9
005BD8B4  F044 0401		orr r4, r4, #1
005BD8B8  47A0     		blx r4
005BD8BA  B002     		add sp, sp, #8

005BD8BC  2800     		cmp r0, #0
005BD8BE  BF08 2001		eqmov r0, #1
005BD8C2  BF18 2000		nemov r0, #0

005BD8C6  2800     		cmp r0, #0
005BD8C8  D002     		beq #4 ; 0x005BD8D0


005BD8CC  F003 BAF3		b #13798 ; 0x005C0EB6


005BD8D0  2000     		mov r0, #0 ; 0
005BD8D2  F8DF 75FC		ldr r7, [pc, #+1532] ; 0xC4
005BD8D6  55F0     		strb r0, [r6, +r7]

005BD8D8  2000     		mov r0, #0 ; 0
005BD8DA  F8DF 75F8		ldr r7, [pc, #+1528] ; 0xC5
005BD8DE  55F0     		strb r0, [r6, +r7]

005BD8E0  F8DF 4640		ldr r4, [pc, #+1600] ; 0x4A1DED
005BD8E4  F044 0401		orr r4, r4, #1
005BD8E8  47A0     		blx r4

005BD8EA  F8DF 7580		ldr r7, [pc, #+1408] ; 0x14
005BD8EE  51F0     		str r0, [r6, +r7]

005BD8F0  F8DF 7584		ldr r7, [pc, #+1412] ; 0x28
005BD8F4  59F0     		ldr r0, [r6, +r7]
005BD8F6  F8DF 4630		ldr r4, [pc, #+1584] ; 0x4A1ECD
005BD8FA  F044 0401		orr r4, r4, #1
005BD8FE  47A0     		blx r4

005BD900  F8DF 757C		ldr r7, [pc, #+1404] ; 0x34
005BD904  51F0     		str r0, [r6, +r7]

005BD906  F8DF 75E0		ldr r7, [pc, #+1504] ; 0xD4
005BD90A  59F0     		ldr r0, [r6, +r7]

005BD90C  1C40     		add r0, r0, #1

005BD90E  F8DF 75D8		ldr r7, [pc, #+1496] ; 0xD4
005BD912  51F0     		str r0, [r6, +r7]

005BD914  2001     		mov r0, #1 ; 1
005BD916  F8DF 75C0		ldr r7, [pc, #+1472] ; 0xC6
005BD91A  55F0     		strb r0, [r6, +r7]

005BD91C  2000     		mov r0, #0 ; 0
005BD91E  F8DF 7558		ldr r7, [pc, #+1368] ; 0x28
005BD922  51F0     		str r0, [r6, +r7]

005BD924  2000     		mov r0, #0 ; 0
005BD926  F8DF 7540		ldr r7, [pc, #+1344] ; 0x11
005BD92A  55F0     		strb r0, [r6, +r7]

005BD92C  F003 BAC3		b #13702 ; 0x005C0EB6


005BD930  F8DF 7640		ldr r7, [pc, #+1600] ; 0x20419ABC
005BD934  7838     		ldrb r0, [r7]

005BD936  2701     		mov r7, #1 ; 1
005BD938  42B8     		cmp r0, r7
005BD93A  BF08 2000		eqmov r0, #0
005BD93E  BF18 2001		nemov r0, #1

005BD942  2800     		cmp r0, #0
005BD944  D008     		beq #16 ; 0x005BD958


005BD948  F8DF 7618		ldr r7, [pc, #+1560] ; 0x999C42
005BD94C  4638     		mov r0, r7
005BD94E  F8DF 7528		ldr r7, [pc, #+1320] ; 0x28
005BD952  51F0     		str r0, [r6, +r7]

005BD954  F003 BAAF		b #13662 ; 0x005C0EB6


005BD958  F8DF 7570		ldr r7, [pc, #+1392] ; 0x98
005BD95C  59F0     		ldr r0, [r6, +r7]

005BD95E  2700     		mov r7, #0 ; 0
005BD960  42B8     		cmp r0, r7
005BD962  BF08 2000		eqmov r0, #0
005BD966  BF18 2001		nemov r0, #1

005BD96A  B082     		sub sp, sp, #8
005BD96C  F8CD 0000		str r0, [sp]
005BD970  F8DF 7554		ldr r7, [pc, #+1364] ; 0x94
005BD974  59F0     		ldr r0, [r6, +r7]

005BD976  2700     		mov r7, #0 ; 0
005BD978  42B8     		cmp r0, r7
005BD97A  BF08 2000		eqmov r0, #0
005BD97E  BF18 2001		nemov r0, #1

005BD982  4607     		mov r7, r0
005BD984  F8DD 0000		ldr r0, [sp]
005BD988  B002     		add sp, sp, #8
005BD98A  4338     		orr r0, r0, r7

005BD98C  2800     		cmp r0, #0
005BD98E  D030     		beq #96 ; 0x005BD9F2


005BD992  F8DF 7570		ldr r7, [pc, #+1392] ; 0x3F2
005BD996  4638     		mov r0, r7
005BD998  F8DF 75DC		ldr r7, [pc, #+1500] ; 0x6B49D200
005BD99C  4639     		mov r1, r7
005BD99E  F8DF 4570		ldr r4, [pc, #+1392] ; 0x4A0BD5
005BD9A2  F044 0401		orr r4, r4, #1
005BD9A6  47A0     		blx r4

005BD9A8  B082     		sub sp, sp, #8
005BD9AA  F8CD 0000		str r0, [sp]
005BD9AE  2000     		mov r0, #0 ; 0

005BD9B0  2000     		mov r0, #0 ; 0
005BD9B2  F8DF 456C		ldr r4, [pc, #+1388] ; 0x4A1DA1
005BD9B6  F044 0401		orr r4, r4, #1
005BD9BA  47A0     		blx r4

005BD9BC  4607     		mov r7, r0
005BD9BE  F8DD 0000		ldr r0, [sp]
005BD9C2  B002     		add sp, sp, #8
005BD9C4  B082     		sub sp, sp, #8
005BD9C6  F8CD 1000		str r1, [sp]
005BD9CA  4639     		mov r1, r7
005BD9CC  F8DF 4578		ldr r4, [pc, #+1400] ; 0x4B9595
005BD9D0  F044 0401		orr r4, r4, #1
005BD9D4  47A0     		blx r4
005BD9D6  F8DD 1000		ldr r1, [sp]
005BD9DA  B002     		add sp, sp, #8

005BD9DC  2800     		cmp r0, #0
005BD9DE  D008     		beq #16 ; 0x005BD9F2


005BD9E2  F8DF 7584		ldr r7, [pc, #+1412] ; 0x999C4C
005BD9E6  4638     		mov r0, r7
005BD9E8  F8DF 748C		ldr r7, [pc, #+1164] ; 0x28
005BD9EC  51F0     		str r0, [r6, +r7]

005BD9EE  F003 BA62		b #13508 ; 0x005C0EB6


005BD9F2  F8DF 74C0		ldr r7, [pc, #+1216] ; 0x88
005BD9F6  5DF0     		ldrb r0, [r6, +r7]

005BD9F8  2800     		cmp r0, #0
005BD9FA  BF08 2001		eqmov r0, #1
005BD9FE  BF18 2000		nemov r0, #0

005BDA02  2800     		cmp r0, #0
005BDA04  D012     		beq #36 ; 0x005BDA2C


005BDA08  2000     		mov r0, #0 ; 0
005BDA0A  F8DF 74C4		ldr r7, [pc, #+1220] ; 0xC4
005BDA0E  55F0     		strb r0, [r6, +r7]

005BDA10  2000     		mov r0, #0 ; 0
005BDA12  F8DF 74C0		ldr r7, [pc, #+1216] ; 0xC5
005BDA16  55F0     		strb r0, [r6, +r7]

005BDA18  F8DF 4508		ldr r4, [pc, #+1288] ; 0x4A1DED
005BDA1C  F044 0401		orr r4, r4, #1
005BDA20  47A0     		blx r4

005BDA22  F8DF 7448		ldr r7, [pc, #+1096] ; 0x14
005BDA26  51F0     		str r0, [r6, +r7]

005BDA28  F003 BA45		b #13450 ; 0x005C0EB6


005BDA2C  F8DF 74A0		ldr r7, [pc, #+1184] ; 0xC4
005BDA30  5DF0     		ldrb r0, [r6, +r7]

005BDA32  2800     		cmp r0, #0
005BDA34  BF08 2001		eqmov r0, #1
005BDA38  BF18 2000		nemov r0, #0

005BDA3C  2800     		cmp r0, #0
005BDA3E  F000 808A		beq #276 ; 0x005BDB56


005BDA42  F8DF 44E0		ldr r4, [pc, #+1248] ; 0x4A1DED
005BDA46  F044 0401		orr r4, r4, #1
005BDA4A  47A0     		blx r4

005BDA4C  F8DF 741C		ldr r7, [pc, #+1052] ; 0x14
005BDA50  59F7     		ldr r7, [r6, +r7]
005BDA52  1BC0     		sub r0, r0, r7

005BDA54  B082     		sub sp, sp, #8
005BDA56  F8CD 0000		str r0, [sp]
005BDA5A  2000     		mov r0, #0 ; 0

005BDA5C  F8DF 74A8		ldr r7, [pc, #+1192] ; 0xBB8
005BDA60  4638     		mov r0, r7

005BDA62  4607     		mov r7, r0
005BDA64  F8DD 0000		ldr r0, [sp]
005BDA68  B002     		add sp, sp, #8
005BDA6A  42B8     		cmp r0, r7
005BDA6C  BF28 2000		hsmov r0, #0
005BDA70  BF38 2001		lomov r0, #1

005BDA74  2800     		cmp r0, #0
005BDA76  D002     		beq #4 ; 0x005BDA7E


005BDA7A  F003 BA1C		b #13368 ; 0x005C0EB6


005BDA7E  2000     		mov r0, #0 ; 0
005BDA80  F8DF 7404		ldr r7, [pc, #+1028] ; 0x39
005BDA84  55F0     		strb r0, [r6, +r7]

005BDA86  2000     		mov r0, #0 ; 0
005BDA88  F8DF 73E4		ldr r7, [pc, #+996] ; 0x18
005BDA8C  55F0     		strb r0, [r6, +r7]

005BDA8E  2000     		mov r0, #0 ; 0
005BDA90  F8DF 73FC		ldr r7, [pc, #+1020] ; 0x40
005BDA94  55F0     		strb r0, [r6, +r7]

005BDA96  2000     		mov r0, #0 ; 0
005BDA98  F8DF 7404		ldr r7, [pc, #+1028] ; 0x64
005BDA9C  55F0     		strb r0, [r6, +r7]

005BDA9E  2000     		mov r0, #0 ; 0
005BDAA0  F8DF 73AC		ldr r7, [pc, #+940] ; 0x1
005BDAA4  55F0     		strb r0, [r6, +r7]

005BDAA6  2000     		mov r0, #0 ; 0
005BDAA8  F8DF 73AC		ldr r7, [pc, #+940] ; 0x3
005BDAAC  55F0     		strb r0, [r6, +r7]

005BDAAE  2001     		mov r0, #1 ; 1
005BDAB0  F8DF 446C		ldr r4, [pc, #+1132] ; 0x4A1DA1
005BDAB4  F044 0401		orr r4, r4, #1
005BDAB8  47A0     		blx r4

005BDABA  F8DF 74A0		ldr r7, [pc, #+1184] ; 0x5BA1C8
005BDABE  683F     		ldr r7, [r7]
005BDAC0  B082     		sub sp, sp, #8
005BDAC2  F8CD 1000		str r1, [sp]
005BDAC6  4639     		mov r1, r7
005BDAC8  F8DF 4478		ldr r4, [pc, #+1144] ; 0x4B94F9
005BDACC  F044 0401		orr r4, r4, #1
005BDAD0  47A0     		blx r4
005BDAD2  F8DD 1000		ldr r1, [sp]
005BDAD6  B002     		add sp, sp, #8

005BDAD8  F8DF 4464		ldr r4, [pc, #+1124] ; 0x4B9489
005BDADC  F044 0401		orr r4, r4, #1
005BDAE0  47A0     		blx r4

005BDAE2  F8DF 73B0		ldr r7, [pc, #+944] ; 0x52
005BDAE6  53F0     		strh r0, [r6, +r7]

005BDAE8  2001     		mov r0, #1 ; 1
005BDAEA  F8DF 4434		ldr r4, [pc, #+1076] ; 0x4A1DA1
005BDAEE  F044 0401		orr r4, r4, #1
005BDAF2  47A0     		blx r4

005BDAF4  F8DF 7464		ldr r7, [pc, #+1124] ; 0x5BA1C8
005BDAF8  683F     		ldr r7, [r7]
005BDAFA  B082     		sub sp, sp, #8
005BDAFC  F8CD 1000		str r1, [sp]
005BDB00  4639     		mov r1, r7
005BDB02  F8DF 4440		ldr r4, [pc, #+1088] ; 0x4B94F9
005BDB06  F044 0401		orr r4, r4, #1
005BDB0A  47A0     		blx r4
005BDB0C  F8DD 1000		ldr r1, [sp]
005BDB10  B002     		add sp, sp, #8

005BDB12  F8DF 442C		ldr r4, [pc, #+1068] ; 0x4B9489
005BDB16  F044 0401		orr r4, r4, #1
005BDB1A  47A0     		blx r4

005BDB1C  F8DF 7384		ldr r7, [pc, #+900] ; 0x66
005BDB20  53F0     		strh r0, [r6, +r7]

005BDB22  2000     		mov r0, #0 ; 0
005BDB24  F8DF 735C		ldr r7, [pc, #+860] ; 0x38
005BDB28  55F0     		strb r0, [r6, +r7]

005BDB2A  2000     		mov r0, #0 ; 0
005BDB2C  F8DF 736C		ldr r7, [pc, #+876] ; 0x60
005BDB30  51F0     		str r0, [r6, +r7]

005BDB32  2000     		mov r0, #0 ; 0
005BDB34  F8DF 7330		ldr r7, [pc, #+816] ; 0x11
005BDB38  55F0     		strb r0, [r6, +r7]

005BDB3A  2001     		mov r0, #1 ; 1
005BDB3C  F8DF 7390		ldr r7, [pc, #+912] ; 0xC4
005BDB40  55F0     		strb r0, [r6, +r7]

005BDB42  F8DF 43E0		ldr r4, [pc, #+992] ; 0x4A1DED
005BDB46  F044 0401		orr r4, r4, #1
005BDB4A  47A0     		blx r4

005BDB4C  F8DF 733C		ldr r7, [pc, #+828] ; 0x3C
005BDB50  51F0     		str r0, [r6, +r7]

005BDB52  F003 B9B0		b #13152 ; 0x005C0EB6


005BDB56  F8DF 736C		ldr r7, [pc, #+876] ; 0x8C
005BDB5A  59F0     		ldr r0, [r6, +r7]
005BDB5C  F8DF 43D4		ldr r4, [pc, #+980] ; 0x4A2791
005BDB60  F044 0401		orr r4, r4, #1
005BDB64  47A0     		blx r4

005BDB66  2800     		cmp r0, #0
005BDB68  BF08 2001		eqmov r0, #1
005BDB6C  BF18 2000		nemov r0, #0

005BDB70  2800     		cmp r0, #0
005BDB72  D00E     		beq #28 ; 0x005BDB92


005BDB76  F8DF 735C		ldr r7, [pc, #+860] ; 0xC5
005BDB7A  5DF0     		ldrb r0, [r6, +r7]

005BDB7C  2800     		cmp r0, #0
005BDB7E  D006     		beq #12 ; 0x005BDB8E


005BDB82  F8DF 73E8		ldr r7, [pc, #+1000] ; 0x999C9C
005BDB86  4638     		mov r0, r7
005BDB88  F8DF 72EC		ldr r7, [pc, #+748] ; 0x28
005BDB8C  51F0     		str r0, [r6, +r7]

005BDB8E  F003 B992		b #13092 ; 0x005C0EB6


005BDB92  F8DF 7314		ldr r7, [pc, #+788] ; 0x6C
005BDB96  59F0     		ldr r0, [r6, +r7]

005BDB98  2700     		mov r7, #0 ; 0
005BDB9A  42B8     		cmp r0, r7
005BDB9C  BF08 2000		eqmov r0, #0
005BDBA0  BF18 2001		nemov r0, #1

005BDBA4  B082     		sub sp, sp, #8
005BDBA6  F8CD 0000		str r0, [sp]
005BDBAA  F8DF 72F0		ldr r7, [pc, #+752] ; 0x60
005BDBAE  59F0     		ldr r0, [r6, +r7]

005BDBB0  2800     		cmp r0, #0
005BDBB2  BF18 2000		nemov r0, #0
005BDBB6  BF08 2001		eqmov r0, #1

005BDBBA  4607     		mov r7, r0
005BDBBC  F8DD 0000		ldr r0, [sp]
005BDBC0  B002     		add sp, sp, #8
005BDBC2  4038     		and r0, r0, r7

005BDBC4  2800     		cmp r0, #0
005BDBC6  D00D     		beq #26 ; 0x005BDBE4


005BDBCA  F8DF 72DC		ldr r7, [pc, #+732] ; 0x6C
005BDBCE  19F0     		add r0, r6, r7

005BDBD0  4607     		mov r7, r0
005BDBD2  4638     		mov r0, r7
005BDBD4  F8DF 4358		ldr r4, [pc, #+856] ; 0x4A1FD5
005BDBD8  F044 0401		orr r4, r4, #1
005BDBDC  47A0     		blx r4

005BDBDE  F8DF 72A0		ldr r7, [pc, #+672] ; 0x34
005BDBE2  51F0     		str r0, [r6, +r7]

005BDBE4  F8DF 72DC		ldr r7, [pc, #+732] ; 0x8C
005BDBE8  59F0     		ldr r0, [r6, +r7]
005BDBEA  F8DF 4350		ldr r4, [pc, #+848] ; 0x4A293D
005BDBEE  F044 0401		orr r4, r4, #1
005BDBF2  47A0     		blx r4

005BDBF4  F8DF 7288		ldr r7, [pc, #+648] ; 0x34
005BDBF8  51F0     		str r0, [r6, +r7]

005BDBFA  F8DF 7284		ldr r7, [pc, #+644] ; 0x34
005BDBFE  59F0     		ldr r0, [r6, +r7]

005BDC00  2800     		cmp r0, #0
005BDC02  BF08 2000		eqmov r0, #0
005BDC06  BF18 2001		nemov r0, #1

005BDC0A  2800     		cmp r0, #0
005BDC0C  F000 80C3		beq #390 ; 0x005BDD96


005BDC10  F8DF 7294		ldr r7, [pc, #+660] ; 0x6C
005BDC14  59F0     		ldr r0, [r6, +r7]

005BDC16  2700     		mov r7, #0 ; 0
005BDC18  42B8     		cmp r0, r7
005BDC1A  BF18 2000		nemov r0, #0
005BDC1E  BF08 2001		eqmov r0, #1

005BDC22  2800     		cmp r0, #0
005BDC24  D01E     		beq #60 ; 0x005BDC64


005BDC28  F8DF 727C		ldr r7, [pc, #+636] ; 0x6C
005BDC2C  19F0     		add r0, r6, r7

005BDC2E  F8DF 72BC		ldr r7, [pc, #+700] ; 0xE0
005BDC32  51F0     		str r0, [r6, +r7]

005BDC34  F8DF 7274		ldr r7, [pc, #+628] ; 0x70
005BDC38  59F0     		ldr r0, [r6, +r7]
005BDC3A  F8DF 72B0		ldr r7, [pc, #+688] ; 0xE0
005BDC3E  59F7     		ldr r7, [r6, +r7]
005BDC40  4639     		mov r1, r7
005BDC42  F8DF 42E8		ldr r4, [pc, #+744] ; 0x4A1F45
005BDC46  F044 0401		orr r4, r4, #1
005BDC4A  47A0     		blx r4

005BDC4C  2800     		cmp r0, #0
005BDC4E  BF08 2001		eqmov r0, #1
005BDC52  BF18 2000		nemov r0, #0

005BDC56  2800     		cmp r0, #0
005BDC58  D004     		beq #8 ; 0x005BDC64


005BDC5C  2000     		mov r0, #0 ; 0
005BDC5E  F8DF 7248		ldr r7, [pc, #+584] ; 0x6C
005BDC62  51F0     		str r0, [r6, +r7]

005BDC64  F8DF 7240		ldr r7, [pc, #+576] ; 0x6C
005BDC68  59F0     		ldr r0, [r6, +r7]

005BDC6A  2700     		mov r7, #0 ; 0
005BDC6C  42B8     		cmp r0, r7
005BDC6E  BF08 2000		eqmov r0, #0
005BDC72  BF18 2001		nemov r0, #1

005BDC76  2800     		cmp r0, #0
005BDC78  F000 808D		beq #282 ; 0x005BDD96


005BDC7C  F8DF 722C		ldr r7, [pc, #+556] ; 0x70
005BDC80  59F0     		ldr r0, [r6, +r7]

005BDC82  F8DF 7218		ldr r7, [pc, #+536] ; 0x60
005BDC86  59F7     		ldr r7, [r6, +r7]
005BDC88  1BC0     		sub r0, r0, r7

005BDC8A  F8DF 71F0		ldr r7, [pc, #+496] ; 0x30
005BDC8E  51F0     		str r0, [r6, +r7]

005BDC90  F8DF 71E8		ldr r7, [pc, #+488] ; 0x30
005BDC94  59F0     		ldr r0, [r6, +r7]

005BDC96  2800     		cmp r0, #0
005BDC98  BF98 2000		lsmov r0, #0
005BDC9C  BF88 2001		himov r0, #1

005BDCA0  2800     		cmp r0, #0
005BDCA2  D078     		beq #240 ; 0x005BDD96


005BDCA6  F8DF 71D4		ldr r7, [pc, #+468] ; 0x30
005BDCAA  59F0     		ldr r0, [r6, +r7]

005BDCAC  F8DF 71D0		ldr r7, [pc, #+464] ; 0x34
005BDCB0  59F7     		ldr r7, [r6, +r7]
005BDCB2  42B8     		cmp r0, r7
005BDCB4  BF98 2000		lsmov r0, #0
005BDCB8  BF88 2001		himov r0, #1

005BDCBC  2800     		cmp r0, #0
005BDCBE  D006     		beq #12 ; 0x005BDCCE


005BDCC2  F8DF 71BC		ldr r7, [pc, #+444] ; 0x34
005BDCC6  59F0     		ldr r0, [r6, +r7]
005BDCC8  F8DF 71B0		ldr r7, [pc, #+432] ; 0x30
005BDCCC  51F0     		str r0, [r6, +r7]

005BDCCE  F8DF 71AC		ldr r7, [pc, #+428] ; 0x30
005BDCD2  59F0     		ldr r0, [r6, +r7]
005BDCD4  B200     		sxth r0, r0

005BDCD6  F8DF 7224		ldr r7, [pc, #+548] ; 0xF0
005BDCDA  53F0     		strh r0, [r6, +r7]

005BDCDC  F8DF 71C8		ldr r7, [pc, #+456] ; 0x6C
005BDCE0  59F0     		ldr r0, [r6, +r7]

005BDCE2  F8DF 71B8		ldr r7, [pc, #+440] ; 0x60
005BDCE6  59F7     		ldr r7, [r6, +r7]
005BDCE8  19C0     		add r0, r0, r7

005BDCEA  F8DF 7210		ldr r7, [pc, #+528] ; 0xF0
005BDCEE  5FF1     		ldrsh r1, [r6, +r7]
005BDCF0  2701     		mov r7, #1 ; 1
005BDCF2  463A     		mov r2, r7
005BDCF4  F8DF 71CC		ldr r7, [pc, #+460] ; 0x8C
005BDCF8  59F3     		ldr r3, [r6, +r7]
005BDCFA  F8DF 423C		ldr r4, [pc, #+572] ; 0x4A286D
005BDCFE  F044 0401		orr r4, r4, #1
005BDD02  47A0     		blx r4

005BDD04  F8DF 7178		ldr r7, [pc, #+376] ; 0x34
005BDD08  51F0     		str r0, [r6, +r7]

005BDD0A  F8DF 7170		ldr r7, [pc, #+368] ; 0x30
005BDD0E  59F0     		ldr r0, [r6, +r7]

005BDD10  F8DF 7188		ldr r7, [pc, #+392] ; 0x60
005BDD14  59F7     		ldr r7, [r6, +r7]
005BDD16  19C0     		add r0, r0, r7

005BDD18  F8DF 7180		ldr r7, [pc, #+384] ; 0x60
005BDD1C  51F0     		str r0, [r6, +r7]

005BDD1E  F8DF 4204		ldr r4, [pc, #+516] ; 0x4A1DED
005BDD22  F044 0401		orr r4, r4, #1
005BDD26  47A0     		blx r4

005BDD28  F8DF 7148		ldr r7, [pc, #+328] ; 0x1C
005BDD2C  51F0     		str r0, [r6, +r7]

005BDD2E  F8DF 7130		ldr r7, [pc, #+304] ; 0xC
005BDD32  59F0     		ldr r0, [r6, +r7]

005BDD34  2700     		mov r7, #0 ; 0
005BDD36  42B8     		cmp r0, r7
005BDD38  BF08 2000		eqmov r0, #0
005BDD3C  BF18 2001		nemov r0, #1

005BDD40  2800     		cmp r0, #0
005BDD42  D028     		beq #80 ; 0x005BDD96


005BDD46  F8DF 0218		ldr r0, [pc, #+536] ; 0x5BA1CC

005BDD4A  F8DF 71A4		ldr r7, [pc, #+420] ; 0xE4
005BDD4E  51F0     		str r0, [r6, +r7]

005BDD50  F8DF 7154		ldr r7, [pc, #+340] ; 0x6C
005BDD54  59F0     		ldr r0, [r6, +r7]

005BDD56  F8DF 7144		ldr r7, [pc, #+324] ; 0x60
005BDD5A  59F7     		ldr r7, [r6, +r7]
005BDD5C  19C0     		add r0, r0, r7

005BDD5E  F8DF 71A0		ldr r7, [pc, #+416] ; 0xF4
005BDD62  51F0     		str r0, [r6, +r7]

005BDD64  B082     		sub sp, sp, #8
005BDD66  2064     		mov r0, #100 ; 100
005BDD68  F8DF 7110		ldr r7, [pc, #+272] ; 0x30
005BDD6C  59F7     		ldr r7, [r6, +r7]
005BDD6E  4639     		mov r1, r7
005BDD70  2702     		mov r7, #2 ; 2
005BDD72  463A     		mov r2, r7
005BDD74  F8DF 7178		ldr r7, [pc, #+376] ; 0xE4
005BDD78  59F3     		ldr r3, [r6, +r7]
005BDD7A  F8DF 7184		ldr r7, [pc, #+388] ; 0xF4
005BDD7E  59F7     		ldr r7, [r6, +r7]
005BDD80  F8CD 7000		str r7, [sp]
005BDD84  F8DF 4194		ldr r4, [pc, #+404] ; 0x4A17A9
005BDD88  F044 0401		orr r4, r4, #1
005BDD8C  47A0     		blx r4
005BDD8E  B002     		add sp, sp, #8

005BDD90  F8DF 70EC		ldr r7, [pc, #+236] ; 0x34
005BDD94  51F0     		str r0, [r6, +r7]

005BDD96  F8DF 7104		ldr r7, [pc, #+260] ; 0x60
005BDD9A  59F0     		ldr r0, [r6, +r7]

005BDD9C  2800     		cmp r0, #0
005BDD9E  BF18 2000		nemov r0, #0
005BDDA2  BF08 2001		eqmov r0, #1

005BDDA6  2800     		cmp r0, #0
005BDDA8  D008     		beq #16 ; 0x005BDDBC


005BDDAC  F8DF 4174		ldr r4, [pc, #+372] ; 0x4A1DED
005BDDB0  F044 0401		orr r4, r4, #1
005BDDB4  47A0     		blx r4

005BDDB6  F8DF 70BC		ldr r7, [pc, #+188] ; 0x1C
005BDDBA  51F0     		str r0, [r6, +r7]

005BDDBC  F8DF 4164		ldr r4, [pc, #+356] ; 0x4A1DED
005BDDC0  F044 0401		orr r4, r4, #1
005BDDC4  47A0     		blx r4

005BDDC6  F8DF 70AC		ldr r7, [pc, #+172] ; 0x1C
005BDDCA  59F7     		ldr r7, [r6, +r7]
005BDDCC  1BC0     		sub r0, r0, r7

005BDDCE  B082     		sub sp, sp, #8
005BDDD0  F8CD 0000		str r0, [sp]
005BDDD4  2000     		mov r0, #0 ; 0

005BDDD6  F8DF 7134		ldr r7, [pc, #+308] ; 0x1388
005BDDDA  4638     		mov r0, r7

005BDDDC  4607     		mov r7, r0
005BDDDE  F8DD 0000		ldr r0, [sp]
005BDDE2  B002     		add sp, sp, #8
005BDDE4  42B8     		cmp r0, r7
005BDDE6  BF98 2000		lsmov r0, #0
005BDDEA  BF88 2001		himov r0, #1

005BDDEE  2800     		cmp r0, #0
005BDDF0  D008     		beq #16 ; 0x005BDE04


005BDDF4  F8DF 7178		ldr r7, [pc, #+376] ; 0x999D00
005BDDF8  4638     		mov r0, r7
005BDDFA  F8DF 707C		ldr r7, [pc, #+124] ; 0x28
005BDDFE  51F0     		str r0, [r6, +r7]

005BDE00  F003 B859		b #12466 ; 0x005C0EB6


005BDE04  2000     		mov r0, #0 ; 0
005BDE06  F8DF 7054		ldr r7, [pc, #+84] ; 0x4
005BDE0A  51F0     		str r0, [r6, +r7]

005BDE0C  2000     		mov r0, #0 ; 0
005BDE0E  F8DF 7088		ldr r7, [pc, #+136] ; 0x54
005BDE12  51F0     		str r0, [r6, +r7]

005BDE14  2001     		mov r0, #1 ; 1

005BDE16  2800     		cmp r0, #0
005BDE18  F001 8037		beq #4206 ; 0x005BEE8A


005BDE1C  F8DF 707C		ldr r7, [pc, #+124] ; 0x60
005BDE20  59F0     		ldr r0, [r6, +r7]

005BDE22  2800     		cmp r0, #0
005BDE24  BF18 2000		nemov r0, #0
005BDE28  BF08 2001		eqmov r0, #1

005BDE2C  2800     		cmp r0, #0
005BDE2E  D002     		beq #4 ; 0x005BDE36


005BDE32  F001 B82A		b #4180 ; 0x005BEE8A


005BDE36  F8DF 7064		ldr r7, [pc, #+100] ; 0x60
005BDE3A  59F0     		ldr r0, [r6, +r7]

005BDE3C  2807     		cmp r0, #7
005BDE3E  BF98 2000		lsmov r0, #0
005BDE42  BF88 2001		himov r0, #1

005BDE46  2800     		cmp r0, #0
005BDE48  F000 809E		beq #316 ; 0x005BDF88


005BDE4C  E096     		b #300

005BDE50  00000001		; 0x00000001
005BDE54  00000002		; 0x00000002
005BDE58  00000003		; 0x00000003
005BDE5C  00000004		; 0x00000004
005BDE60  0000000C		; 0x0000000C
005BDE64  00000010		; 0x00000010
005BDE68  00000011		; 0x00000011
005BDE6C  00000014		; 0x00000014
005BDE70  00000018		; 0x00000018
005BDE74  0000001C		; 0x0000001C
005BDE78  00000028		; 0x00000028
005BDE7C  00000030		; 0x00000030
005BDE80  00000034		; 0x00000034
005BDE84  00000038		; 0x00000038
005BDE88  00000039		; 0x00000039
005BDE8C  0000003C		; 0x0000003C
005BDE90  00000040		; 0x00000040
005BDE94  00000052		; 0x00000052
005BDE98  00000054		; 0x00000054
005BDE9C  00000060		; 0x00000060
005BDEA0  00000064		; 0x00000064
005BDEA4  00000066		; 0x00000066
005BDEA8  0000006C		; 0x0000006C
005BDEAC  00000070		; 0x00000070
005BDEB0  00000084		; 0x00000084
005BDEB4  00000088		; 0x00000088
005BDEB8  00000089		; 0x00000089
005BDEBC  0000008A		; 0x0000008A
005BDEC0  0000008B		; 0x0000008B
005BDEC4  0000008C		; 0x0000008C
005BDEC8  00000094		; 0x00000094
005BDECC  00000098		; 0x00000098
005BDED0  000000C4		; 0x000000C4
005BDED4  000000C5		; 0x000000C5
005BDED8  000000C6		; 0x000000C6
005BDEDC  000000C7		; 0x000000C7
005BDEE0  000000C8		; 0x000000C8
005BDEE4  000000C9		; 0x000000C9
005BDEE8  000000D4		; 0x000000D4
005BDEEC  000000E0		; 0x000000E0
005BDEF0  000000E4		; 0x000000E4
005BDEF4  000000E8		; 0x000000E8
005BDEF8  000000EC		; 0x000000EC
005BDEFC  000000F0		; 0x000000F0
005BDF00  000000F4		; 0x000000F4
005BDF04  000003F2		; 0x000003F2
005BDF08  00000BB8		; 0x00000BB8
005BDF0C  00001388		; 0x00001388
005BDF10  004A0BD5		; 0x004A0BD5
005BDF14  004A1321		; 0x004A1321
005BDF18  004A13A9		; 0x004A13A9
005BDF1C  004A17A9		; 0x004A17A9
005BDF20  004A1DA1		; 0x004A1DA1
005BDF24  004A1DED		; 0x004A1DED
005BDF28  004A1ECD		; 0x004A1ECD
005BDF2C  004A1F45		; 0x004A1F45
005BDF30  004A1FD5		; 0x004A1FD5
005BDF34  004A2791		; 0x004A2791
005BDF38  004A286D		; 0x004A286D
005BDF3C  004A293D		; 0x004A293D
005BDF40  004B9489		; 0x004B9489
005BDF44  004B94F9		; 0x004B94F9
005BDF48  004B9595		; 0x004B9595
005BDF4C  005BA18C		; 0x005BA18C
005BDF50  005BA198		; 0x005BA198
005BDF54  005BA1A8		; 0x005BA1A8
005BDF58  005BA1B8		; 0x005BA1B8
005BDF5C  005BA1C8		; 0x005BA1C8
005BDF60  005BA1CC		; 0x005BA1CC
005BDF64  00999C42		; 0x00999C42
005BDF68  00999C4C		; 0x00999C4C
005BDF6C  00999C9C		; 0x00999C9C
005BDF70  00999D00		; 0x00999D00
005BDF74  20419ABC		; 0x20419ABC
005BDF78  6B49D200		; 0x6B49D200

005BDF7C  2007     		mov r0, #7 ; 7
005BDF7E  F85F 7104		ldr r7, [pc, #-260] ; 0x30
005BDF82  51F0     		str r0, [r6, +r7]

005BDF84  E006     		b #12 ; 0x005BDF94


005BDF88  F85F 70F0		ldr r7, [pc, #-240] ; 0x60
005BDF8C  59F0     		ldr r0, [r6, +r7]
005BDF8E  F85F 7114		ldr r7, [pc, #-276] ; 0x30
005BDF92  51F0     		str r0, [r6, +r7]

005BDF94  F8DF 77F8		ldr r7, [pc, #+2040] ; 0x74
005BDF98  19F0     		add r0, r6, r7

005BDF9A  4607     		mov r7, r0
005BDF9C  4638     		mov r0, r7
005BDF9E  2700     		mov r7, #0 ; 0
005BDFA0  4639     		mov r1, r7
005BDFA2  2207     		mov r2, #7 ; 7
005BDFA4  F8DF 4818		ldr r4, [pc, #+2072] ; 0x4A22DD
005BDFA8  F044 0401		orr r4, r4, #1
005BDFAC  47A0     		blx r4

005BDFAE  F85F 7130		ldr r7, [pc, #-304] ; 0x34
005BDFB2  51F0     		str r0, [r6, +r7]

005BDFB4  F8DF 77D8		ldr r7, [pc, #+2008] ; 0x74
005BDFB8  19F0     		add r0, r6, r7

005BDFBA  4607     		mov r7, r0
005BDFBC  4638     		mov r0, r7
005BDFBE  F85F 7118		ldr r7, [pc, #-280] ; 0x6C
005BDFC2  59F1     		ldr r1, [r6, +r7]
005BDFC4  F85F 714C		ldr r7, [pc, #-332] ; 0x30
005BDFC8  59F7     		ldr r7, [r6, +r7]
005BDFCA  463A     		mov r2, r7
005BDFCC  F8DF 47F4		ldr r4, [pc, #+2036] ; 0x4A232D
005BDFD0  F044 0401		orr r4, r4, #1
005BDFD4  47A0     		blx r4

005BDFD6  F85F 7158		ldr r7, [pc, #-344] ; 0x34
005BDFDA  51F0     		str r0, [r6, +r7]

005BDFDC  F8DF 77B0		ldr r7, [pc, #+1968] ; 0x74
005BDFE0  5DF0     		ldrb r0, [r6, +r7]

005BDFE2  2820     		cmp r0, #32
005BDFE4  BF18 2000		nemov r0, #0
005BDFE8  BF08 2001		eqmov r0, #1

005BDFEC  2800     		cmp r0, #0
005BDFEE  D123     		bne #70 ; 0x005BE038


005BDFF2  F8DF 779C		ldr r7, [pc, #+1948] ; 0x74
005BDFF6  5DF0     		ldrb r0, [r6, +r7]

005BDFF8  2840     		cmp r0, #64
005BDFFA  BF18 2000		nemov r0, #0
005BDFFE  BF08 2001		eqmov r0, #1

005BE002  2800     		cmp r0, #0
005BE004  F040 80FF		bne #510 ; 0x005BE206


005BE008  F8DF 7784		ldr r7, [pc, #+1924] ; 0x74
005BE00C  5DF0     		ldrb r0, [r6, +r7]

005BE00E  2890     		cmp r0, #144
005BE010  BF18 2000		nemov r0, #0
005BE014  BF08 2001		eqmov r0, #1

005BE018  2800     		cmp r0, #0
005BE01A  F040 81A2		bne #836 ; 0x005BE362


005BE01E  F8DF 7770		ldr r7, [pc, #+1904] ; 0x74
005BE022  5DF0     		ldrb r0, [r6, +r7]

005BE024  28D0     		cmp r0, #208
005BE026  BF18 2000		nemov r0, #0
005BE02A  BF08 2001		eqmov r0, #1

005BE02E  2800     		cmp r0, #0
005BE030  F040 8286		bne #1292 ; 0x005BE540


005BE034  E2F5     		b #1514 ; 0x005BE622


005BE038  F85F 71A0		ldr r7, [pc, #-416] ; 0x60
005BE03C  59F0     		ldr r0, [r6, +r7]

005BE03E  2804     		cmp r0, #4
005BE040  BF28 2000		hsmov r0, #0
005BE044  BF38 2001		lomov r0, #1

005BE048  2800     		cmp r0, #0
005BE04A  D002     		beq #4 ; 0x005BE052


005BE04E  F000 BF1C		b #3640 ; 0x005BEE8A


005BE052  F85F 71F4		ldr r7, [pc, #-500] ; 0xC
005BE056  59F0     		ldr r0, [r6, +r7]

005BE058  2700     		mov r7, #0 ; 0
005BE05A  42B8     		cmp r0, r7
005BE05C  BF08 2000		eqmov r0, #0
005BE060  BF18 2001		nemov r0, #1

005BE064  2800     		cmp r0, #0
005BE066  D021     		beq #66 ; 0x005BE0AC


005BE06A  F85F 010C		ldr r0, [pc, #-268] ; 0x5BA1CC

005BE06E  F85F 7180		ldr r7, [pc, #-384] ; 0xE4
005BE072  51F0     		str r0, [r6, +r7]

005BE074  F8DF 0750		ldr r0, [pc, #+1872] ; 0x5BA1DC

005BE078  F8DF 7730		ldr r7, [pc, #+1840] ; 0xF8
005BE07C  51F0     		str r0, [r6, +r7]

005BE07E  B082     		sub sp, sp, #8
005BE080  2001     		mov r0, #1 ; 1
005BE082  2700     		mov r7, #0 ; 0
005BE084  4639     		mov r1, r7
005BE086  2702     		mov r7, #2 ; 2
005BE088  463A     		mov r2, r7
005BE08A  F85F 719C		ldr r7, [pc, #-412] ; 0xE4
005BE08E  59F3     		ldr r3, [r6, +r7]
005BE090  F8DF 7718		ldr r7, [pc, #+1816] ; 0xF8
005BE094  59F7     		ldr r7, [r6, +r7]
005BE096  F8CD 7000		str r7, [sp]
005BE09A  F85F 4180		ldr r4, [pc, #-384] ; 0x4A17A9
005BE09E  F044 0401		orr r4, r4, #1
005BE0A2  47A0     		blx r4
005BE0A4  B002     		add sp, sp, #8

005BE0A6  F85F 7228		ldr r7, [pc, #-552] ; 0x34
005BE0AA  51F0     		str r0, [r6, +r7]

005BE0AC  F85F 7240		ldr r7, [pc, #-576] ; 0x18
005BE0B0  5DF0     		ldrb r0, [r6, +r7]

005BE0B2  2800     		cmp r0, #0
005BE0B4  BF08 2001		eqmov r0, #1
005BE0B8  BF18 2000		nemov r0, #0

005BE0BC  2800     		cmp r0, #0
005BE0BE  D008     		beq #16 ; 0x005BE0D2


005BE0C2  F8DF 771C		ldr r7, [pc, #+1820] ; 0x999D0A
005BE0C6  4638     		mov r0, r7
005BE0C8  F85F 7254		ldr r7, [pc, #-596] ; 0x28
005BE0CC  51F0     		str r0, [r6, +r7]

005BE0CE  F002 BEF2		b #11748 ; 0x005C0EB6


005BE0D2  F8DF 76C0		ldr r7, [pc, #+1728] ; 0x75
005BE0D6  5DF0     		ldrb r0, [r6, +r7]

005BE0D8  2802     		cmp r0, #2
005BE0DA  BF08 2000		eqmov r0, #0
005BE0DE  BF18 2001		nemov r0, #1

005BE0E2  2800     		cmp r0, #0
005BE0E4  D008     		beq #16 ; 0x005BE0F8


005BE0E8  F8DF 76F8		ldr r7, [pc, #+1784] ; 0x999D0B
005BE0EC  4638     		mov r0, r7
005BE0EE  F85F 7278		ldr r7, [pc, #-632] ; 0x28
005BE0F2  51F0     		str r0, [r6, +r7]

005BE0F4  F002 BEDF		b #11710 ; 0x005C0EB6


005BE0F8  F8DF 769C		ldr r7, [pc, #+1692] ; 0x76
005BE0FC  5DF0     		ldrb r0, [r6, +r7]

005BE0FE  27FE     		mov r7, #254 ; 254
005BE100  4038     		and r0, r0, r7

005BE102  2800     		cmp r0, #0
005BE104  BF08 2000		eqmov r0, #0
005BE108  BF18 2001		nemov r0, #1

005BE10C  2800     		cmp r0, #0
005BE10E  D008     		beq #16 ; 0x005BE122


005BE112  F8DF 76D4		ldr r7, [pc, #+1748] ; 0x999D0C
005BE116  4638     		mov r0, r7
005BE118  F85F 72A4		ldr r7, [pc, #-676] ; 0x28
005BE11C  51F0     		str r0, [r6, +r7]

005BE11E  F002 BECA		b #11668 ; 0x005C0EB6


005BE122  F8DF 7678		ldr r7, [pc, #+1656] ; 0x77
005BE126  5DF0     		ldrb r0, [r6, +r7]

005BE128  2800     		cmp r0, #0
005BE12A  BF08 2000		eqmov r0, #0
005BE12E  BF18 2001		nemov r0, #1

005BE132  2800     		cmp r0, #0
005BE134  D056     		beq #172 ; 0x005BE1E4


005BE138  F8DF 76B0		ldr r7, [pc, #+1712] ; 0x999D0D
005BE13C  4638     		mov r0, r7
005BE13E  F85F 72C8		ldr r7, [pc, #-712] ; 0x28
005BE142  51F0     		str r0, [r6, +r7]

005BE144  F85F 72E8		ldr r7, [pc, #-744] ; 0xC
005BE148  59F0     		ldr r0, [r6, +r7]

005BE14A  2700     		mov r7, #0 ; 0
005BE14C  42B8     		cmp r0, r7
005BE14E  BF08 2000		eqmov r0, #0
005BE152  BF18 2001		nemov r0, #1

005BE156  2800     		cmp r0, #0
005BE158  D042     		beq #132 ; 0x005BE1E0


005BE15C  F8DF 066C		ldr r0, [pc, #+1644] ; 0x5BA1F0

005BE160  F85F 7274		ldr r7, [pc, #-628] ; 0xE4
005BE164  51F0     		str r0, [r6, +r7]

005BE166  F8DF 7634		ldr r7, [pc, #+1588] ; 0x77
005BE16A  19F0     		add r0, r6, r7

005BE16C  F8DF 7640		ldr r7, [pc, #+1600] ; 0xFC
005BE170  51F0     		str r0, [r6, +r7]

005BE172  B082     		sub sp, sp, #8
005BE174  F85F 7318		ldr r7, [pc, #-792] ; 0xC
005BE178  59F7     		ldr r7, [r6, +r7]
005BE17A  4638     		mov r0, r7
005BE17C  F85F 72D0		ldr r7, [pc, #-720] ; 0x84
005BE180  59F1     		ldr r1, [r6, +r7]
005BE182  F85F 7294		ldr r7, [pc, #-660] ; 0xE4
005BE186  59F2     		ldr r2, [r6, +r7]
005BE188  2314     		mov r3, #20 ; 20
005BE18A  F8DF 7624		ldr r7, [pc, #+1572] ; 0xFC
005BE18E  59F7     		ldr r7, [r6, +r7]
005BE190  F8CD 7000		str r7, [sp]
005BE194  F85F 4284		ldr r4, [pc, #-644] ; 0x4A1321
005BE198  F044 0401		orr r4, r4, #1
005BE19C  47A0     		blx r4
005BE19E  B002     		add sp, sp, #8

005BE1A0  F85F 7324		ldr r7, [pc, #-804] ; 0x34
005BE1A4  51F0     		str r0, [r6, +r7]

005BE1A6  F85F 0250		ldr r0, [pc, #-592] ; 0x5BA1B8

005BE1AA  F85F 72BC		ldr r7, [pc, #-700] ; 0xE4
005BE1AE  51F0     		str r0, [r6, +r7]

005BE1B0  B082     		sub sp, sp, #8
005BE1B2  2001     		mov r0, #1 ; 1
005BE1B4  2700     		mov r7, #0 ; 0
005BE1B6  4639     		mov r1, r7
005BE1B8  F04F 4780		mov r7, #1073741824 ; 1073741824
005BE1BC  463A     		mov r2, r7
005BE1BE  F85F 72D0		ldr r7, [pc, #-720] ; 0xE4
005BE1C2  59F3     		ldr r3, [r6, +r7]
005BE1C4  F85F 7368		ldr r7, [pc, #-872] ; 0xC
005BE1C8  59F7     		ldr r7, [r6, +r7]
005BE1CA  F8CD 7000		str r7, [sp]
005BE1CE  F85F 42B4		ldr r4, [pc, #-692] ; 0x4A17A9
005BE1D2  F044 0401		orr r4, r4, #1
005BE1D6  47A0     		blx r4
005BE1D8  B002     		add sp, sp, #8

005BE1DA  F85F 735C		ldr r7, [pc, #-860] ; 0x34
005BE1DE  51F0     		str r0, [r6, +r7]

005BE1E0  F002 BE69		b #11474 ; 0x005C0EB6


005BE1E4  2000     		mov r0, #0 ; 0
005BE1E6  F85F 7378		ldr r7, [pc, #-888] ; 0x18
005BE1EA  55F0     		strb r0, [r6, +r7]

005BE1EC  F8DF 75B8		ldr r7, [pc, #+1464] ; 0xDC
005BE1F0  59F0     		ldr r0, [r6, +r7]

005BE1F2  1C40     		add r0, r0, #1

005BE1F4  F8DF 75B0		ldr r7, [pc, #+1456] ; 0xDC
005BE1F8  51F0     		str r0, [r6, +r7]

005BE1FA  2004     		mov r0, #4 ; 4
005BE1FC  F85F 73A4		ldr r7, [pc, #-932] ; 0x4
005BE200  51F0     		str r0, [r6, +r7]

005BE202  F000 BDFD		b #3066 ; 0x005BEE00


005BE206  F85F 736C		ldr r7, [pc, #-876] ; 0x60
005BE20A  59F0     		ldr r0, [r6, +r7]

005BE20C  2804     		cmp r0, #4
005BE20E  BF28 2000		hsmov r0, #0
005BE212  BF38 2001		lomov r0, #1

005BE216  2800     		cmp r0, #0
005BE218  D002     		beq #4 ; 0x005BE220


005BE21C  F000 BE35		b #3178 ; 0x005BEE8A


005BE220  F85F 73C4		ldr r7, [pc, #-964] ; 0xC
005BE224  59F0     		ldr r0, [r6, +r7]

005BE226  2700     		mov r7, #0 ; 0
005BE228  42B8     		cmp r0, r7
005BE22A  BF08 2000		eqmov r0, #0
005BE22E  BF18 2001		nemov r0, #1

005BE232  2800     		cmp r0, #0
005BE234  D041     		beq #130 ; 0x005BE2BA


005BE238  F8DF 0594		ldr r0, [pc, #+1428] ; 0x5BA218

005BE23C  F85F 7350		ldr r7, [pc, #-848] ; 0xE4
005BE240  51F0     		str r0, [r6, +r7]

005BE242  F85F 73B0		ldr r7, [pc, #-944] ; 0x52
005BE246  19F0     		add r0, r6, r7

005BE248  F8DF 7568		ldr r7, [pc, #+1384] ; 0x100
005BE24C  51F0     		str r0, [r6, +r7]

005BE24E  B082     		sub sp, sp, #8
005BE250  F85F 73F4		ldr r7, [pc, #-1012] ; 0xC
005BE254  59F7     		ldr r7, [r6, +r7]
005BE256  4638     		mov r0, r7
005BE258  F85F 73AC		ldr r7, [pc, #-940] ; 0x84
005BE25C  59F1     		ldr r1, [r6, +r7]
005BE25E  F85F 7370		ldr r7, [pc, #-880] ; 0xE4
005BE262  59F2     		ldr r2, [r6, +r7]
005BE264  2320     		mov r3, #32 ; 32
005BE266  F8DF 754C		ldr r7, [pc, #+1356] ; 0x100
005BE26A  59F7     		ldr r7, [r6, +r7]
005BE26C  F8CD 7000		str r7, [sp]
005BE270  F85F 4360		ldr r4, [pc, #-864] ; 0x4A1321
005BE274  F044 0401		orr r4, r4, #1
005BE278  47A0     		blx r4
005BE27A  B002     		add sp, sp, #8

005BE27C  F85F 7400		ldr r7, [pc, #-1024] ; 0x34
005BE280  51F0     		str r0, [r6, +r7]

005BE282  F85F 0324		ldr r0, [pc, #-804] ; 0x5BA1CC

005BE286  F85F 7398		ldr r7, [pc, #-920] ; 0xE4
005BE28A  51F0     		str r0, [r6, +r7]

005BE28C  B082     		sub sp, sp, #8
005BE28E  2001     		mov r0, #1 ; 1
005BE290  2700     		mov r7, #0 ; 0
005BE292  4639     		mov r1, r7
005BE294  2702     		mov r7, #2 ; 2
005BE296  463A     		mov r2, r7
005BE298  F85F 73AC		ldr r7, [pc, #-940] ; 0xE4
005BE29C  59F3     		ldr r3, [r6, +r7]
005BE29E  F85F 7440		ldr r7, [pc, #-1088] ; 0xC
005BE2A2  59F7     		ldr r7, [r6, +r7]
005BE2A4  F8CD 7000		str r7, [sp]
005BE2A8  F85F 4390		ldr r4, [pc, #-912] ; 0x4A17A9
005BE2AC  F044 0401		orr r4, r4, #1
005BE2B0  47A0     		blx r4
005BE2B2  B002     		add sp, sp, #8

005BE2B4  F85F 7438		ldr r7, [pc, #-1080] ; 0x34
005BE2B8  51F0     		str r0, [r6, +r7]

005BE2BA  F85F 742C		ldr r7, [pc, #-1068] ; 0x40
005BE2BE  5DF0     		ldrb r0, [r6, +r7]

005BE2C0  2800     		cmp r0, #0
005BE2C2  BF08 2001		eqmov r0, #1
005BE2C6  BF18 2000		nemov r0, #0

005BE2CA  2800     		cmp r0, #0
005BE2CC  D008     		beq #16 ; 0x005BE2E0


005BE2D0  F8DF 751C		ldr r7, [pc, #+1308] ; 0x999D14
005BE2D4  4638     		mov r0, r7
005BE2D6  F85F 7460		ldr r7, [pc, #-1120] ; 0x28
005BE2DA  51F0     		str r0, [r6, +r7]

005BE2DC  F002 BDEB		b #11222 ; 0x005C0EB6


005BE2E0  F8DF 74B0		ldr r7, [pc, #+1200] ; 0x75
005BE2E4  5DF0     		ldrb r0, [r6, +r7]

005BE2E6  2802     		cmp r0, #2
005BE2E8  BF08 2000		eqmov r0, #0
005BE2EC  BF18 2001		nemov r0, #1

005BE2F0  2800     		cmp r0, #0
005BE2F2  D008     		beq #16 ; 0x005BE306


005BE2F6  F8DF 74FC		ldr r7, [pc, #+1276] ; 0x999D15
005BE2FA  4638     		mov r0, r7
005BE2FC  F85F 7488		ldr r7, [pc, #-1160] ; 0x28
005BE300  51F0     		str r0, [r6, +r7]

005BE302  F002 BDD8		b #11184 ; 0x005C0EB6


005BE306  F8DF 7490		ldr r7, [pc, #+1168] ; 0x76
005BE30A  5DF0     		ldrb r0, [r6, +r7]

005BE30C  F44F 7780		mov r7, #256 ; 256
005BE310  4378     		mul r0, r0, r7

005BE312  F8DF 7488		ldr r7, [pc, #+1160] ; 0x77
005BE316  5DF7     		ldrb r7, [r6, +r7]
005BE318  19C0     		add r0, r0, r7

005BE31A  F85F 7488		ldr r7, [pc, #-1160] ; 0x52
005BE31E  5BF7     		ldrh r7, [r6, +r7]
005BE320  42B8     		cmp r0, r7
005BE322  BF08 2000		eqmov r0, #0
005BE326  BF18 2001		nemov r0, #1

005BE32A  2800     		cmp r0, #0
005BE32C  D008     		beq #16 ; 0x005BE340


005BE330  F8DF 74C4		ldr r7, [pc, #+1220] ; 0x999D16
005BE334  4638     		mov r0, r7
005BE336  F85F 74C0		ldr r7, [pc, #-1216] ; 0x28
005BE33A  51F0     		str r0, [r6, +r7]

005BE33C  F002 BDBB		b #11126 ; 0x005C0EB6


005BE340  2000     		mov r0, #0 ; 0
005BE342  F85F 74B4		ldr r7, [pc, #-1204] ; 0x40
005BE346  55F0     		strb r0, [r6, +r7]

005BE348  F8DF 745C		ldr r7, [pc, #+1116] ; 0xDC
005BE34C  59F0     		ldr r0, [r6, +r7]

005BE34E  1C40     		add r0, r0, #1

005BE350  F8DF 7454		ldr r7, [pc, #+1108] ; 0xDC
005BE354  51F0     		str r0, [r6, +r7]

005BE356  2004     		mov r0, #4 ; 4
005BE358  F85F 7500		ldr r7, [pc, #-1280] ; 0x4
005BE35C  51F0     		str r0, [r6, +r7]

005BE35E  F000 BD4F		b #2718 ; 0x005BEE00


005BE362  F85F 74C8		ldr r7, [pc, #-1224] ; 0x60
005BE366  59F0     		ldr r0, [r6, +r7]

005BE368  2805     		cmp r0, #5
005BE36A  BF28 2000		hsmov r0, #0
005BE36E  BF38 2001		lomov r0, #1

005BE372  2800     		cmp r0, #0
005BE374  D002     		beq #4 ; 0x005BE37C


005BE378  F000 BD87		b #2830 ; 0x005BEE8A


005BE37C  F8DF 7418		ldr r7, [pc, #+1048] ; 0x76
005BE380  5DF0     		ldrb r0, [r6, +r7]

005BE382  F44F 7780		mov r7, #256 ; 256
005BE386  4378     		mul r0, r0, r7

005BE388  F8DF 7410		ldr r7, [pc, #+1040] ; 0x77
005BE38C  5DF7     		ldrb r7, [r6, +r7]
005BE38E  19C0     		add r0, r0, r7

005BE390  F85F 7518		ldr r7, [pc, #-1304] ; 0x30
005BE394  51F0     		str r0, [r6, +r7]

005BE396  F85F 7538		ldr r7, [pc, #-1336] ; 0xC
005BE39A  59F0     		ldr r0, [r6, +r7]

005BE39C  2700     		mov r7, #0 ; 0
005BE39E  42B8     		cmp r0, r7
005BE3A0  BF08 2000		eqmov r0, #0
005BE3A4  BF18 2001		nemov r0, #1

005BE3A8  2800     		cmp r0, #0
005BE3AA  D066     		beq #204 ; 0x005BE47A


005BE3AE  F8DF 0424		ldr r0, [pc, #+1060] ; 0x5BA234

005BE3B2  F85F 74C4		ldr r7, [pc, #-1220] ; 0xE4
005BE3B6  51F0     		str r0, [r6, +r7]

005BE3B8  F85F 7540		ldr r7, [pc, #-1344] ; 0x30
005BE3BC  19F0     		add r0, r6, r7

005BE3BE  F85F 74D4		ldr r7, [pc, #-1236] ; 0xE0
005BE3C2  51F0     		str r0, [r6, +r7]

005BE3C4  B082     		sub sp, sp, #8
005BE3C6  F85F 7568		ldr r7, [pc, #-1384] ; 0xC
005BE3CA  59F7     		ldr r7, [r6, +r7]
005BE3CC  4638     		mov r0, r7
005BE3CE  F85F 7520		ldr r7, [pc, #-1312] ; 0x84
005BE3D2  59F1     		ldr r1, [r6, +r7]
005BE3D4  F85F 74E8		ldr r7, [pc, #-1256] ; 0xE4
005BE3D8  59F2     		ldr r2, [r6, +r7]
005BE3DA  232A     		mov r3, #42 ; 42
005BE3DC  F85F 74F4		ldr r7, [pc, #-1268] ; 0xE0
005BE3E0  59F7     		ldr r7, [r6, +r7]
005BE3E2  F8CD 7000		str r7, [sp]
005BE3E6  F85F 44D4		ldr r4, [pc, #-1236] ; 0x4A1321
005BE3EA  F044 0401		orr r4, r4, #1
005BE3EE  47A0     		blx r4
005BE3F0  B002     		add sp, sp, #8

005BE3F2  F85F 7574		ldr r7, [pc, #-1396] ; 0x34
005BE3F6  51F0     		str r0, [r6, +r7]

005BE3F8  F8DF 03DC		ldr r0, [pc, #+988] ; 0x5BA250

005BE3FC  F85F 7510		ldr r7, [pc, #-1296] ; 0xE4
005BE400  51F0     		str r0, [r6, +r7]

005BE402  F8DF 739C		ldr r7, [pc, #+924] ; 0x78
005BE406  19F0     		add r0, r6, r7

005BE408  F8DF 73A4		ldr r7, [pc, #+932] ; 0xFC
005BE40C  51F0     		str r0, [r6, +r7]

005BE40E  B082     		sub sp, sp, #8
005BE410  F85F 75B4		ldr r7, [pc, #-1460] ; 0xC
005BE414  59F7     		ldr r7, [r6, +r7]
005BE416  4638     		mov r0, r7
005BE418  F85F 756C		ldr r7, [pc, #-1388] ; 0x84
005BE41C  59F1     		ldr r1, [r6, +r7]
005BE41E  F85F 7530		ldr r7, [pc, #-1328] ; 0xE4
005BE422  59F2     		ldr r2, [r6, +r7]
005BE424  2314     		mov r3, #20 ; 20
005BE426  F8DF 7388		ldr r7, [pc, #+904] ; 0xFC
005BE42A  59F7     		ldr r7, [r6, +r7]
005BE42C  F8CD 7000		str r7, [sp]
005BE430  F85F 451C		ldr r4, [pc, #-1308] ; 0x4A13A9
005BE434  F044 0401		orr r4, r4, #1
005BE438  47A0     		blx r4
005BE43A  B002     		add sp, sp, #8

005BE43C  F85F 75C0		ldr r7, [pc, #-1472] ; 0x34
005BE440  51F0     		str r0, [r6, +r7]

005BE442  F85F 04E4		ldr r0, [pc, #-1252] ; 0x5BA1CC

005BE446  F85F 7558		ldr r7, [pc, #-1368] ; 0xE4
005BE44A  51F0     		str r0, [r6, +r7]

005BE44C  B082     		sub sp, sp, #8
005BE44E  2001     		mov r0, #1 ; 1
005BE450  2700     		mov r7, #0 ; 0
005BE452  4639     		mov r1, r7
005BE454  2702     		mov r7, #2 ; 2
005BE456  463A     		mov r2, r7
005BE458  F85F 756C		ldr r7, [pc, #-1388] ; 0xE4
005BE45C  59F3     		ldr r3, [r6, +r7]
005BE45E  F85F 7600		ldr r7, [pc, #-1536] ; 0xC
005BE462  59F7     		ldr r7, [r6, +r7]
005BE464  F8CD 7000		str r7, [sp]
005BE468  F85F 4550		ldr r4, [pc, #-1360] ; 0x4A17A9
005BE46C  F044 0401		orr r4, r4, #1
005BE470  47A0     		blx r4
005BE472  B002     		add sp, sp, #8

005BE474  F85F 75F8		ldr r7, [pc, #-1528] ; 0x34
005BE478  51F0     		str r0, [r6, +r7]

005BE47A  F85F 75DC		ldr r7, [pc, #-1500] ; 0x64
005BE47E  5DF0     		ldrb r0, [r6, +r7]

005BE480  2800     		cmp r0, #0
005BE482  BF08 2001		eqmov r0, #1
005BE486  BF18 2000		nemov r0, #0

005BE48A  2800     		cmp r0, #0
005BE48C  D008     		beq #16 ; 0x005BE4A0


005BE490  F8DF 7368		ldr r7, [pc, #+872] ; 0x999D1E
005BE494  4638     		mov r0, r7
005BE496  F85F 7620		ldr r7, [pc, #-1568] ; 0x28
005BE49A  51F0     		str r0, [r6, +r7]

005BE49C  F002 BD0B		b #10774 ; 0x005C0EB6


005BE4A0  F8DF 72F0		ldr r7, [pc, #+752] ; 0x75
005BE4A4  5DF0     		ldrb r0, [r6, +r7]

005BE4A6  2803     		cmp r0, #3
005BE4A8  BF08 2000		eqmov r0, #0
005BE4AC  BF18 2001		nemov r0, #1

005BE4B0  2800     		cmp r0, #0
005BE4B2  D008     		beq #16 ; 0x005BE4C6


005BE4B6  F8DF 7348		ldr r7, [pc, #+840] ; 0x999D1F
005BE4BA  4638     		mov r0, r7
005BE4BC  F85F 7648		ldr r7, [pc, #-1608] ; 0x28
005BE4C0  51F0     		str r0, [r6, +r7]

005BE4C2  F002 BCF8		b #10736 ; 0x005C0EB6


005BE4C6  F85F 764C		ldr r7, [pc, #-1612] ; 0x30
005BE4CA  59F0     		ldr r0, [r6, +r7]

005BE4CC  F85F 762C		ldr r7, [pc, #-1580] ; 0x66
005BE4D0  5BF7     		ldrh r7, [r6, +r7]
005BE4D2  42B8     		cmp r0, r7
005BE4D4  BF08 2000		eqmov r0, #0
005BE4D8  BF18 2001		nemov r0, #1

005BE4DC  2800     		cmp r0, #0
005BE4DE  D008     		beq #16 ; 0x005BE4F2


005BE4E2  F8DF 7320		ldr r7, [pc, #+800] ; 0x999D20
005BE4E6  4638     		mov r0, r7
005BE4E8  F85F 7674		ldr r7, [pc, #-1652] ; 0x28
005BE4EC  51F0     		str r0, [r6, +r7]

005BE4EE  F002 BCE2		b #10692 ; 0x005C0EB6


005BE4F2  F8DF 72AC		ldr r7, [pc, #+684] ; 0x78
005BE4F6  5DF0     		ldrb r0, [r6, +r7]

005BE4F8  F8DF 72A8		ldr r7, [pc, #+680] ; 0xA4
005BE4FC  5DF7     		ldrb r7, [r6, +r7]
005BE4FE  42B8     		cmp r0, r7
005BE500  BF08 2000		eqmov r0, #0
005BE504  BF18 2001		nemov r0, #1

005BE508  2800     		cmp r0, #0
005BE50A  D008     		beq #16 ; 0x005BE51E


005BE50E  F8DF 72F8		ldr r7, [pc, #+760] ; 0x999D21
005BE512  4638     		mov r0, r7
005BE514  F85F 76A0		ldr r7, [pc, #-1696] ; 0x28
005BE518  51F0     		str r0, [r6, +r7]

005BE51A  F002 BCCC		b #10648 ; 0x005C0EB6


005BE51E  2000     		mov r0, #0 ; 0
005BE520  F85F 7684		ldr r7, [pc, #-1668] ; 0x64
005BE524  55F0     		strb r0, [r6, +r7]

005BE526  F8DF 7280		ldr r7, [pc, #+640] ; 0xDC
005BE52A  59F0     		ldr r0, [r6, +r7]

005BE52C  1C40     		add r0, r0, #1

005BE52E  F8DF 7278		ldr r7, [pc, #+632] ; 0xDC
005BE532  51F0     		str r0, [r6, +r7]

005BE534  2005     		mov r0, #5 ; 5
005BE536  F85F 76DC		ldr r7, [pc, #-1756] ; 0x4
005BE53A  51F0     		str r0, [r6, +r7]

005BE53C  F000 BC60		b #2240 ; 0x005BEE00


005BE540  F85F 76A8		ldr r7, [pc, #-1704] ; 0x60
005BE544  59F0     		ldr r0, [r6, +r7]

005BE546  2802     		cmp r0, #2
005BE548  BF28 2000		hsmov r0, #0
005BE54C  BF38 2001		lomov r0, #1

005BE550  2800     		cmp r0, #0
005BE552  D002     		beq #4 ; 0x005BE55A


005BE556  F000 BC98		b #2352 ; 0x005BEE8A


005BE55A  F85F 76FC		ldr r7, [pc, #-1788] ; 0xC
005BE55E  59F0     		ldr r0, [r6, +r7]

005BE560  2700     		mov r7, #0 ; 0
005BE562  42B8     		cmp r0, r7
005BE564  BF08 2000		eqmov r0, #0
005BE568  BF18 2001		nemov r0, #1

005BE56C  2800     		cmp r0, #0
005BE56E  D021     		beq #66 ; 0x005BE5B4


005BE572  F85F 0614		ldr r0, [pc, #-1556] ; 0x5BA1CC

005BE576  F85F 7688		ldr r7, [pc, #-1672] ; 0xE4
005BE57A  51F0     		str r0, [r6, +r7]

005BE57C  F8DF 025C		ldr r0, [pc, #+604] ; 0x5BA25C

005BE580  F8DF 7228		ldr r7, [pc, #+552] ; 0xF8
005BE584  51F0     		str r0, [r6, +r7]

005BE586  B082     		sub sp, sp, #8
005BE588  2001     		mov r0, #1 ; 1
005BE58A  2700     		mov r7, #0 ; 0
005BE58C  4639     		mov r1, r7
005BE58E  2702     		mov r7, #2 ; 2
005BE590  463A     		mov r2, r7
005BE592  F85F 76A4		ldr r7, [pc, #-1700] ; 0xE4
005BE596  59F3     		ldr r3, [r6, +r7]
005BE598  F8DF 7210		ldr r7, [pc, #+528] ; 0xF8
005BE59C  59F7     		ldr r7, [r6, +r7]
005BE59E  F8CD 7000		str r7, [sp]
005BE5A2  F85F 4688		ldr r4, [pc, #-1672] ; 0x4A17A9
005BE5A6  F044 0401		orr r4, r4, #1
005BE5AA  47A0     		blx r4
005BE5AC  B002     		add sp, sp, #8

005BE5AE  F85F 7730		ldr r7, [pc, #-1840] ; 0x34
005BE5B2  51F0     		str r0, [r6, +r7]

005BE5B4  F85F 7730		ldr r7, [pc, #-1840] ; 0x39
005BE5B8  5DF0     		ldrb r0, [r6, +r7]

005BE5BA  2800     		cmp r0, #0
005BE5BC  BF08 2001		eqmov r0, #1
005BE5C0  BF18 2000		nemov r0, #0

005BE5C4  2800     		cmp r0, #0
005BE5C6  D008     		beq #16 ; 0x005BE5DA


005BE5CA  F8DF 7240		ldr r7, [pc, #+576] ; 0x999D28
005BE5CE  4638     		mov r0, r7
005BE5D0  F85F 775C		ldr r7, [pc, #-1884] ; 0x28
005BE5D4  51F0     		str r0, [r6, +r7]

005BE5D6  F002 BC6E		b #10460 ; 0x005C0EB6


005BE5DA  F8DF 71B8		ldr r7, [pc, #+440] ; 0x75
005BE5DE  5DF0     		ldrb r0, [r6, +r7]

005BE5E0  2800     		cmp r0, #0
005BE5E2  BF08 2000		eqmov r0, #0
005BE5E6  BF18 2001		nemov r0, #1

005BE5EA  2800     		cmp r0, #0
005BE5EC  D008     		beq #16 ; 0x005BE600


005BE5F0  F8DF 721C		ldr r7, [pc, #+540] ; 0x999D29
005BE5F4  4638     		mov r0, r7
005BE5F6  F85F 7780		ldr r7, [pc, #-1920] ; 0x28
005BE5FA  51F0     		str r0, [r6, +r7]

005BE5FC  F002 BC5B		b #10422 ; 0x005C0EB6


005BE600  2000     		mov r0, #0 ; 0
005BE602  F85F 777C		ldr r7, [pc, #-1916] ; 0x39
005BE606  55F0     		strb r0, [r6, +r7]

005BE608  F8DF 719C		ldr r7, [pc, #+412] ; 0xDC
005BE60C  59F0     		ldr r0, [r6, +r7]

005BE60E  1C40     		add r0, r0, #1

005BE610  F8DF 7194		ldr r7, [pc, #+404] ; 0xDC
005BE614  51F0     		str r0, [r6, +r7]

005BE616  2002     		mov r0, #2 ; 2
005BE618  F85F 77C0		ldr r7, [pc, #-1984] ; 0x4
005BE61C  51F0     		str r0, [r6, +r7]

005BE61E  E3EF     		b #2014 ; 0x005BEE00


005BE622  F85F 778C		ldr r7, [pc, #-1932] ; 0x54
005BE626  59F0     		ldr r0, [r6, +r7]

005BE628  2800     		cmp r0, #0
005BE62A  BF18 2000		nemov r0, #0
005BE62E  BF08 2001		eqmov r0, #1

005BE632  2800     		cmp r0, #0
005BE634  F000 8093		beq #294 ; 0x005BE75E


005BE638  F85F 77A0		ldr r7, [pc, #-1952] ; 0x60
005BE63C  59F0     		ldr r0, [r6, +r7]

005BE63E  2805     		cmp r0, #5
005BE640  BF28 2000		hsmov r0, #0
005BE644  BF38 2001		lomov r0, #1

005BE648  2800     		cmp r0, #0
005BE64A  D002     		beq #4 ; 0x005BE652


005BE64E  F000 BC1C		b #2104 ; 0x005BEE8A


005BE652  F8DF 713C		ldr r7, [pc, #+316] ; 0x74
005BE656  5DF0     		ldrb r0, [r6, +r7]

005BE658  27F0     		mov r7, #240 ; 240
005BE65A  4038     		and r0, r0, r7

005BE65C  2830     		cmp r0, #48
005BE65E  BF08 2000		eqmov r0, #0
005BE662  BF18 2001		nemov r0, #1

005BE666  2800     		cmp r0, #0
005BE668  D008     		beq #16 ; 0x005BE67C


005BE66C  F8DF 71A4		ldr r7, [pc, #+420] ; 0x999D50
005BE670  4638     		mov r0, r7
005BE672  F85F 77FC		ldr r7, [pc, #-2044] ; 0x28
005BE676  51F0     		str r0, [r6, +r7]

005BE678  F002 BC1D		b #10298 ; 0x005C0EB6


005BE67C  2001     		mov r0, #1 ; 1
005BE67E  F85F 7804		ldr r7, [pc, #-2052] ; 0x30
005BE682  51F0     		str r0, [r6, +r7]

005BE684  2000     		mov r0, #0 ; 0
005BE686  F85F 782C		ldr r7, [pc, #-2092] ; 0x4
005BE68A  51F0     		str r0, [r6, +r7]

005BE68C  F85F 7834		ldr r7, [pc, #-2100] ; 0x4
005BE690  59F0     		ldr r0, [r6, +r7]

005BE692  1C40     		add r0, r0, #1

005BE694  F85F 783C		ldr r7, [pc, #-2108] ; 0x4
005BE698  51F0     		str r0, [r6, +r7]

005BE69A  F85F 7840		ldr r7, [pc, #-2112] ; 0x4
005BE69E  59F0     		ldr r0, [r6, +r7]
005BE6A0  F8DF 7114		ldr r7, [pc, #+276] ; 0x104
005BE6A4  51F0     		str r0, [r6, +r7]

005BE6A6  F8DF 7110		ldr r7, [pc, #+272] ; 0x104
005BE6AA  59F5     		ldr r5, [r6, +r7]
005BE6AC  2774     		mov r7, #116
005BE6AE  F8DF 70E0		ldr r7, [pc, #+224] ; 0x74
005BE6B2  EB07 0705		add r7, r7, r5, lsl #0
005BE6B6  5DF0     		ldrb r0, [r6, +r7]

005BE6B8  277F     		mov r7, #127 ; 127
005BE6BA  4038     		and r0, r0, r7

005BE6BC  F85F 7844		ldr r7, [pc, #-2116] ; 0x30
005BE6C0  59F7     		ldr r7, [r6, +r7]
005BE6C2  4378     		mul r0, r0, r7

005BE6C4  F85F 7830		ldr r7, [pc, #-2096] ; 0x54
005BE6C8  59F7     		ldr r7, [r6, +r7]
005BE6CA  19C0     		add r0, r0, r7

005BE6CC  F85F 7838		ldr r7, [pc, #-2104] ; 0x54
005BE6D0  51F0     		str r0, [r6, +r7]

005BE6D2  F85F 7858		ldr r7, [pc, #-2136] ; 0x30
005BE6D6  59F0     		ldr r0, [r6, +r7]

005BE6D8  2780     		mov r7, #128 ; 128
005BE6DA  4378     		mul r0, r0, r7

005BE6DC  F85F 7864		ldr r7, [pc, #-2148] ; 0x30
005BE6E0  51F0     		str r0, [r6, +r7]

005BE6E2  F85F 7888		ldr r7, [pc, #-2184] ; 0x4
005BE6E6  59F0     		ldr r0, [r6, +r7]

005BE6E8  F8DF 70D0		ldr r7, [pc, #+208] ; 0x108
005BE6EC  51F0     		str r0, [r6, +r7]

005BE6EE  F8DF 70CC		ldr r7, [pc, #+204] ; 0x108
005BE6F2  59F5     		ldr r5, [r6, +r7]
005BE6F4  2774     		mov r7, #116
005BE6F6  F8DF 7098		ldr r7, [pc, #+152] ; 0x74
005BE6FA  EB07 0705		add r7, r7, r5, lsl #0
005BE6FE  5DF0     		ldrb r0, [r6, +r7]

005BE700  2780     		mov r7, #128 ; 128
005BE702  4038     		and r0, r0, r7

005BE704  2800     		cmp r0, #0
005BE706  BF18 2000		nemov r0, #0
005BE70A  BF08 2001		eqmov r0, #1

005BE70E  2800     		cmp r0, #0
005BE710  D0BC     		beq #-136 ; 0x005BE68C

005BE712  F85F 78B8		ldr r7, [pc, #-2232] ; 0x4
005BE716  59F0     		ldr r0, [r6, +r7]

005BE718  2804     		cmp r0, #4
005BE71A  BF98 2000		lsmov r0, #0
005BE71E  BF88 2001		himov r0, #1

005BE722  2800     		cmp r0, #0
005BE724  D008     		beq #16 ; 0x005BE738


005BE728  F8DF 70EC		ldr r7, [pc, #+236] ; 0x999D51
005BE72C  4638     		mov r0, r7
005BE72E  F85F 78B8		ldr r7, [pc, #-2232] ; 0x28
005BE732  51F0     		str r0, [r6, +r7]

005BE734  F002 BBBF		b #10110 ; 0x005C0EB6


005BE738  F85F 78A4		ldr r7, [pc, #-2212] ; 0x54
005BE73C  59F0     		ldr r0, [r6, +r7]

005BE73E  2803     		cmp r0, #3
005BE740  BF28 2000		hsmov r0, #0
005BE744  BF38 2001		lomov r0, #1

005BE748  2800     		cmp r0, #0
005BE74A  D008     		beq #16 ; 0x005BE75E


005BE74E  F8DF 70CC		ldr r7, [pc, #+204] ; 0x999D52
005BE752  4638     		mov r0, r7
005BE754  F85F 78E0		ldr r7, [pc, #-2272] ; 0x28
005BE758  51F0     		str r0, [r6, +r7]

005BE75A  F002 BBAC		b #10072 ; 0x005C0EB6


005BE75E  F85F 78C4		ldr r7, [pc, #-2244] ; 0x60
005BE762  59F0     		ldr r0, [r6, +r7]

005BE764  B082     		sub sp, sp, #8
005BE766  F8CD 0000		str r0, [sp]
005BE76A  F85F 78D4		ldr r7, [pc, #-2260] ; 0x54
005BE76E  59F0     		ldr r0, [r6, +r7]

005BE770  F85F 7918		ldr r7, [pc, #-2328] ; 0x4
005BE774  59F7     		ldr r7, [r6, +r7]
005BE776  19C0     		add r0, r0, r7

005BE778  1C40     		add r0, r0, #1

005BE77A  4607     		mov r7, r0
005BE77C  F8DD 0000		ldr r0, [sp]
005BE780  B002     		add sp, sp, #8
005BE782  42B8     		cmp r0, r7
005BE784  BF28 2000		hsmov r0, #0
005BE788  BF38 2001		lomov r0, #1

005BE78C  E048     		b #144

005BE790  00000074		; 0x00000074
005BE794  00000075		; 0x00000075
005BE798  00000076		; 0x00000076
005BE79C  00000077		; 0x00000077
005BE7A0  00000078		; 0x00000078
005BE7A4  000000A4		; 0x000000A4
005BE7A8  000000DC		; 0x000000DC
005BE7AC  000000F8		; 0x000000F8
005BE7B0  000000FC		; 0x000000FC
005BE7B4  00000100		; 0x00000100
005BE7B8  00000104		; 0x00000104
005BE7BC  00000108		; 0x00000108
005BE7C0  004A22DD		; 0x004A22DD
005BE7C4  004A232D		; 0x004A232D
005BE7C8  005BA1DC		; 0x005BA1DC
005BE7CC  005BA1F0		; 0x005BA1F0
005BE7D0  005BA218		; 0x005BA218
005BE7D4  005BA234		; 0x005BA234
005BE7D8  005BA250		; 0x005BA250
005BE7DC  005BA25C		; 0x005BA25C
005BE7E0  00999D0A		; 0x00999D0A
005BE7E4  00999D0B		; 0x00999D0B
005BE7E8  00999D0C		; 0x00999D0C
005BE7EC  00999D0D		; 0x00999D0D
005BE7F0  00999D14		; 0x00999D14
005BE7F4  00999D15		; 0x00999D15
005BE7F8  00999D16		; 0x00999D16
005BE7FC  00999D1E		; 0x00999D1E
005BE800  00999D1F		; 0x00999D1F
005BE804  00999D20		; 0x00999D20
005BE808  00999D21		; 0x00999D21
005BE80C  00999D28		; 0x00999D28
005BE810  00999D29		; 0x00999D29
005BE814  00999D50		; 0x00999D50
005BE818  00999D51		; 0x00999D51
005BE81C  00999D52		; 0x00999D52

005BE820  2800     		cmp r0, #0
005BE822  D002     		beq #4 ; 0x005BE82A


005BE826  E330     		b #1632 ; 0x005BEE8A


005BE82A  F85F 79D0		ldr r7, [pc, #-2512] ; 0x4
005BE82E  59F0     		ldr r0, [r6, +r7]

005BE830  1C40     		add r0, r0, #1

005BE832  F85F 79D8		ldr r7, [pc, #-2520] ; 0x4
005BE836  51F0     		str r0, [r6, +r7]

005BE838  F85F 79E0		ldr r7, [pc, #-2528] ; 0x4
005BE83C  59F0     		ldr r0, [r6, +r7]
005BE83E  F8DF 780C		ldr r7, [pc, #+2060] ; 0x10C
005BE842  51F0     		str r0, [r6, +r7]

005BE844  F85F 79EC		ldr r7, [pc, #-2540] ; 0x4
005BE848  59F0     		ldr r0, [r6, +r7]

005BE84A  1C40     		add r0, r0, #1

005BE84C  F8DF 7800		ldr r7, [pc, #+2048] ; 0x110
005BE850  51F0     		str r0, [r6, +r7]

005BE852  F8DF 77F8		ldr r7, [pc, #+2040] ; 0x10C
005BE856  59F5     		ldr r5, [r6, +r7]
005BE858  2774     		mov r7, #116
005BE85A  F85F 70CC		ldr r7, [pc, #-204] ; 0x74
005BE85E  EB07 0705		add r7, r7, r5, lsl #0
005BE862  5DF0     		ldrb r0, [r6, +r7]

005BE864  F44F 7780		mov r7, #256 ; 256
005BE868  4378     		mul r0, r0, r7

005BE86A  F8DF 77E4		ldr r7, [pc, #+2020] ; 0x110
005BE86E  59F5     		ldr r5, [r6, +r7]
005BE870  2774     		mov r7, #116
005BE872  F85F 70E4		ldr r7, [pc, #-228] ; 0x74
005BE876  EB07 0705		add r7, r7, r5, lsl #0
005BE87A  5DF7     		ldrb r7, [r6, +r7]
005BE87C  19C0     		add r0, r0, r7

005BE87E  F8DF 77B4		ldr r7, [pc, #+1972] ; 0x68
005BE882  51F0     		str r0, [r6, +r7]

005BE884  F85F 7A2C		ldr r7, [pc, #-2604] ; 0x4
005BE888  59F0     		ldr r0, [r6, +r7]

005BE88A  1C80     		add r0, r0, #2

005BE88C  F85F 7A34		ldr r7, [pc, #-2612] ; 0x4
005BE890  51F0     		str r0, [r6, +r7]

005BE892  F8DF 77A0		ldr r7, [pc, #+1952] ; 0x68
005BE896  59F0     		ldr r0, [r6, +r7]

005BE898  B082     		sub sp, sp, #8
005BE89A  F8CD 0000		str r0, [sp]
005BE89E  F85F 7A08		ldr r7, [pc, #-2568] ; 0x54
005BE8A2  59F0     		ldr r0, [r6, +r7]

005BE8A4  1E80     		sub r0, r0, #2

005BE8A6  4607     		mov r7, r0
005BE8A8  F8DD 0000		ldr r0, [sp]
005BE8AC  B002     		add sp, sp, #8
005BE8AE  42B8     		cmp r0, r7
005BE8B0  BF98 2000		lsmov r0, #0
005BE8B4  BF88 2001		himov r0, #1

005BE8B8  B082     		sub sp, sp, #8
005BE8BA  F8CD 0000		str r0, [sp]
005BE8BE  F8DF 7774		ldr r7, [pc, #+1908] ; 0x68
005BE8C2  59F0     		ldr r0, [r6, +r7]

005BE8C4  2801     		cmp r0, #1
005BE8C6  BF28 2000		hsmov r0, #0
005BE8CA  BF38 2001		lomov r0, #1

005BE8CE  4607     		mov r7, r0
005BE8D0  F8DD 0000		ldr r0, [sp]
005BE8D4  B002     		add sp, sp, #8
005BE8D6  4338     		orr r0, r0, r7

005BE8D8  2800     		cmp r0, #0
005BE8DA  D008     		beq #16 ; 0x005BE8EE


005BE8DE  F8DF 778C		ldr r7, [pc, #+1932] ; 0x999D53
005BE8E2  4638     		mov r0, r7
005BE8E4  F85F 7A70		ldr r7, [pc, #-2672] ; 0x28
005BE8E8  51F0     		str r0, [r6, +r7]

005BE8EA  F002 BAE4		b #9672 ; 0x005C0EB6


005BE8EE  F8DF 7744		ldr r7, [pc, #+1860] ; 0x68
005BE8F2  59F0     		ldr r0, [r6, +r7]

005BE8F4  F8DF 7744		ldr r7, [pc, #+1860] ; 0xB8
005BE8F8  59F7     		ldr r7, [r6, +r7]
005BE8FA  42B8     		cmp r0, r7
005BE8FC  BF98 2000		lsmov r0, #0
005BE900  BF88 2001		himov r0, #1

005BE904  2800     		cmp r0, #0
005BE906  D008     		beq #16 ; 0x005BE91A


005BE90A  F8DF 7764		ldr r7, [pc, #+1892] ; 0x999D54
005BE90E  4638     		mov r0, r7
005BE910  F85F 7A9C		ldr r7, [pc, #-2716] ; 0x28
005BE914  51F0     		str r0, [r6, +r7]

005BE916  F002 BACE		b #9628 ; 0x005C0EB6


005BE91A  F8DF 771C		ldr r7, [pc, #+1820] ; 0xB4
005BE91E  59F0     		ldr r0, [r6, +r7]

005BE920  2700     		mov r7, #0 ; 0
005BE922  42B8     		cmp r0, r7
005BE924  BF18 2000		nemov r0, #0
005BE928  BF08 2001		eqmov r0, #1

005BE92C  2800     		cmp r0, #0
005BE92E  D008     		beq #16 ; 0x005BE942


005BE932  F8DF 7740		ldr r7, [pc, #+1856] ; 0x999D55
005BE936  4638     		mov r0, r7
005BE938  F85F 7AC4		ldr r7, [pc, #-2756] ; 0x28
005BE93C  51F0     		str r0, [r6, +r7]

005BE93E  F002 BABA		b #9588 ; 0x005C0EB6


005BE942  F8DF 76F4		ldr r7, [pc, #+1780] ; 0xB4
005BE946  59F7     		ldr r7, [r6, +r7]
005BE948  4638     		mov r0, r7
005BE94A  2700     		mov r7, #0 ; 0
005BE94C  4639     		mov r1, r7
005BE94E  F8DF 76EC		ldr r7, [pc, #+1772] ; 0xB8
005BE952  59F2     		ldr r2, [r6, +r7]
005BE954  F85F 4198		ldr r4, [pc, #-408] ; 0x4A22DD
005BE958  F044 0401		orr r4, r4, #1
005BE95C  47A0     		blx r4

005BE95E  F85F 7AE0		ldr r7, [pc, #-2784] ; 0x34
005BE962  51F0     		str r0, [r6, +r7]

005BE964  F85F 7AC0		ldr r7, [pc, #-2752] ; 0x6C
005BE968  59F0     		ldr r0, [r6, +r7]

005BE96A  F85F 7B10		ldr r7, [pc, #-2832] ; 0x4
005BE96E  59F7     		ldr r7, [r6, +r7]
005BE970  19C0     		add r0, r0, r7

005BE972  F85F 7A74		ldr r7, [pc, #-2676] ; 0xF4
005BE976  51F0     		str r0, [r6, +r7]

005BE978  F8DF 76BC		ldr r7, [pc, #+1724] ; 0xB4
005BE97C  59F7     		ldr r7, [r6, +r7]
005BE97E  4638     		mov r0, r7
005BE980  F85F 7A84		ldr r7, [pc, #-2692] ; 0xF4
005BE984  59F1     		ldr r1, [r6, +r7]
005BE986  F8DF 76AC		ldr r7, [pc, #+1708] ; 0x68
005BE98A  59F2     		ldr r2, [r6, +r7]
005BE98C  F85F 41CC		ldr r4, [pc, #-460] ; 0x4A232D
005BE990  F044 0401		orr r4, r4, #1
005BE994  47A0     		blx r4

005BE996  F85F 7B18		ldr r7, [pc, #-2840] ; 0x34
005BE99A  51F0     		str r0, [r6, +r7]

005BE99C  F85F 7B44		ldr r7, [pc, #-2884] ; 0x4
005BE9A0  59F0     		ldr r0, [r6, +r7]

005BE9A2  F8DF 7690		ldr r7, [pc, #+1680] ; 0x68
005BE9A6  59F7     		ldr r7, [r6, +r7]
005BE9A8  19C0     		add r0, r0, r7

005BE9AA  F85F 7B50		ldr r7, [pc, #-2896] ; 0x4
005BE9AE  51F0     		str r0, [r6, +r7]

005BE9B0  F85F 7224		ldr r7, [pc, #-548] ; 0x74
005BE9B4  5DF0     		ldrb r0, [r6, +r7]

005BE9B6  2702     		mov r7, #2 ; 2
005BE9B8  B082     		sub sp, sp, #8
005BE9BA  F8CD 1000		str r1, [sp]
005BE9BE  4639     		mov r1, r7
005BE9C0  FBB0 F0F1		udiv r0, r0, r1
005BE9C4  F8DD 1000		ldr r1, [sp]
005BE9C8  B002     		add sp, sp, #8

005BE9CA  2703     		mov r7, #3 ; 3
005BE9CC  4038     		and r0, r0, r7

005BE9CE  F85F 7B54		ldr r7, [pc, #-2900] ; 0x30
005BE9D2  51F0     		str r0, [r6, +r7]

005BE9D4  F85F 7B5C		ldr r7, [pc, #-2908] ; 0x30
005BE9D8  59F0     		ldr r0, [r6, +r7]

005BE9DA  2800     		cmp r0, #0
005BE9DC  BF08 2000		eqmov r0, #0
005BE9E0  BF18 2001		nemov r0, #1

005BE9E4  2800     		cmp r0, #0
005BE9E6  F000 80C3		beq #390 ; 0x005BEB70


005BE9EA  F85F 7B70		ldr r7, [pc, #-2928] ; 0x30
005BE9EE  59F0     		ldr r0, [r6, +r7]

005BE9F0  2801     		cmp r0, #1
005BE9F2  BF08 2000		eqmov r0, #0
005BE9F6  BF18 2001		nemov r0, #1

005BE9FA  2800     		cmp r0, #0
005BE9FC  D056     		beq #172 ; 0x005BEAAC


005BEA00  F8DF 7674		ldr r7, [pc, #+1652] ; 0x999D56
005BEA04  4638     		mov r0, r7
005BEA06  F85F 7B90		ldr r7, [pc, #-2960] ; 0x28
005BEA0A  51F0     		str r0, [r6, +r7]

005BEA0C  F85F 7BB0		ldr r7, [pc, #-2992] ; 0xC
005BEA10  59F0     		ldr r0, [r6, +r7]

005BEA12  2700     		mov r7, #0 ; 0
005BEA14  42B8     		cmp r0, r7
005BEA16  BF08 2000		eqmov r0, #0
005BEA1A  BF18 2001		nemov r0, #1

005BEA1E  2800     		cmp r0, #0
005BEA20  D042     		beq #132 ; 0x005BEAA8


005BEA24  F8DF 0630		ldr r0, [pc, #+1584] ; 0x5BA270

005BEA28  F85F 7B3C		ldr r7, [pc, #-2876] ; 0xE4
005BEA2C  51F0     		str r0, [r6, +r7]

005BEA2E  F85F 7BB4		ldr r7, [pc, #-2996] ; 0x30
005BEA32  19F0     		add r0, r6, r7

005BEA34  F85F 7B4C		ldr r7, [pc, #-2892] ; 0xE0
005BEA38  51F0     		str r0, [r6, +r7]

005BEA3A  B082     		sub sp, sp, #8
005BEA3C  F85F 7BE0		ldr r7, [pc, #-3040] ; 0xC
005BEA40  59F7     		ldr r7, [r6, +r7]
005BEA42  4638     		mov r0, r7
005BEA44  F85F 7B98		ldr r7, [pc, #-2968] ; 0x84
005BEA48  59F1     		ldr r1, [r6, +r7]
005BEA4A  F85F 7B5C		ldr r7, [pc, #-2908] ; 0xE4
005BEA4E  59F2     		ldr r2, [r6, +r7]
005BEA50  232A     		mov r3, #42 ; 42
005BEA52  F85F 7B68		ldr r7, [pc, #-2920] ; 0xE0
005BEA56  59F7     		ldr r7, [r6, +r7]
005BEA58  F8CD 7000		str r7, [sp]
005BEA5C  F85F 4B4C		ldr r4, [pc, #-2892] ; 0x4A1321
005BEA60  F044 0401		orr r4, r4, #1
005BEA64  47A0     		blx r4
005BEA66  B002     		add sp, sp, #8

005BEA68  F85F 7BEC		ldr r7, [pc, #-3052] ; 0x34
005BEA6C  51F0     		str r0, [r6, +r7]

005BEA6E  F85F 0B18		ldr r0, [pc, #-2840] ; 0x5BA1B8

005BEA72  F85F 7B84		ldr r7, [pc, #-2948] ; 0xE4
005BEA76  51F0     		str r0, [r6, +r7]

005BEA78  B082     		sub sp, sp, #8
005BEA7A  2001     		mov r0, #1 ; 1
005BEA7C  2700     		mov r7, #0 ; 0
005BEA7E  4639     		mov r1, r7
005BEA80  F04F 4780		mov r7, #1073741824 ; 1073741824
005BEA84  463A     		mov r2, r7
005BEA86  F85F 7B98		ldr r7, [pc, #-2968] ; 0xE4
005BEA8A  59F3     		ldr r3, [r6, +r7]
005BEA8C  F85F 7C30		ldr r7, [pc, #-3120] ; 0xC
005BEA90  59F7     		ldr r7, [r6, +r7]
005BEA92  F8CD 7000		str r7, [sp]
005BEA96  F85F 4B7C		ldr r4, [pc, #-2940] ; 0x4A17A9
005BEA9A  F044 0401		orr r4, r4, #1
005BEA9E  47A0     		blx r4
005BEAA0  B002     		add sp, sp, #8

005BEAA2  F85F 7C24		ldr r7, [pc, #-3108] ; 0x34
005BEAA6  51F0     		str r0, [r6, +r7]

005BEAA8  F002 BA05		b #9226 ; 0x005C0EB6


005BEAAC  F85F 7C2C		ldr r7, [pc, #-3116] ; 0x38
005BEAB0  5DF0     		ldrb r0, [r6, +r7]

005BEAB2  B082     		sub sp, sp, #8
005BEAB4  F8CD 0000		str r0, [sp]
005BEAB8  2010     		mov r0, #16 ; 16

005BEABA  2702     		mov r7, #2 ; 2
005BEABC  B082     		sub sp, sp, #8
005BEABE  F8CD 1000		str r1, [sp]
005BEAC2  4639     		mov r1, r7
005BEAC4  FBB0 F0F1		udiv r0, r0, r1
005BEAC8  F8DD 1000		ldr r1, [sp]
005BEACC  B002     		add sp, sp, #8

005BEACE  4607     		mov r7, r0
005BEAD0  F8DD 0000		ldr r0, [sp]
005BEAD4  B002     		add sp, sp, #8
005BEAD6  42B8     		cmp r0, r7
005BEAD8  BF38 2000		lomov r0, #0
005BEADC  BF28 2001		hsmov r0, #1

005BEAE0  2800     		cmp r0, #0
005BEAE2  D008     		beq #16 ; 0x005BEAF6


005BEAE6  F8DF 7594		ldr r7, [pc, #+1428] ; 0x999D57
005BEAEA  4638     		mov r0, r7
005BEAEC  F85F 7C78		ldr r7, [pc, #-3192] ; 0x28
005BEAF0  51F0     		str r0, [r6, +r7]

005BEAF2  F002 B9E0		b #9152 ; 0x005C0EB6


005BEAF6  F85F 7C74		ldr r7, [pc, #-3188] ; 0x38
005BEAFA  5DF5     		ldrb r5, [r6, +r7]
005BEAFC  F8DF 7530		ldr r7, [pc, #+1328] ; 0x42
005BEB00  EB07 0745		add r7, r7, r5, lsl #1
005BEB04  19F0     		add r0, r6, r7

005BEB06  F85F 7354		ldr r7, [pc, #-852] ; 0x100
005BEB0A  51F0     		str r0, [r6, +r7]

005BEB0C  F85F 7C68		ldr r7, [pc, #-3176] ; 0x6C
005BEB10  59F0     		ldr r0, [r6, +r7]

005BEB12  F85F 7CB8		ldr r7, [pc, #-3256] ; 0x4
005BEB16  59F7     		ldr r7, [r6, +r7]
005BEB18  19C0     		add r0, r0, r7

005BEB1A  F85F 7C1C		ldr r7, [pc, #-3100] ; 0xF4
005BEB1E  51F0     		str r0, [r6, +r7]

005BEB20  B084     		sub sp, sp, #16
005BEB22  2701     		mov r7, #1 ; 1
005BEB24  F8CD 7000		str r7, [sp]
005BEB28  271E     		mov r7, #30 ; 30
005BEB2A  F8CD 7004		str r7, [sp, #+4]
005BEB2E  F85F 737C		ldr r7, [pc, #-892] ; 0x100
005BEB32  59F7     		ldr r7, [r6, +r7]
005BEB34  F8CD 7008		str r7, [sp, #+8]
005BEB38  F85F 7C3C		ldr r7, [pc, #-3132] ; 0xF4
005BEB3C  59F7     		ldr r7, [r6, +r7]
005BEB3E  F8CD 700C		str r7, [sp, #+12]
005BEB42  F8DF 4524		ldr r4, [pc, #+1316] ; 0x5BA910
005BEB46  F044 0401		orr r4, r4, #1
005BEB4A  47A0     		blx r4
005BEB4C  B004     		add sp, sp, #16

005BEB4E  F85F 7CD0		ldr r7, [pc, #-3280] ; 0x34
005BEB52  51F0     		str r0, [r6, +r7]

005BEB54  F85F 7CD4		ldr r7, [pc, #-3284] ; 0x38
005BEB58  5DF0     		ldrb r0, [r6, +r7]

005BEB5A  1C40     		add r0, r0, #1

005BEB5C  F85F 7CDC		ldr r7, [pc, #-3292] ; 0x38
005BEB60  55F0     		strb r0, [r6, +r7]

005BEB62  F85F 7D08		ldr r7, [pc, #-3336] ; 0x4
005BEB66  59F0     		ldr r0, [r6, +r7]

005BEB68  1C80     		add r0, r0, #2

005BEB6A  F85F 7D10		ldr r7, [pc, #-3344] ; 0x4
005BEB6E  51F0     		str r0, [r6, +r7]

005BEB70  F85F 7CDC		ldr r7, [pc, #-3292] ; 0x54
005BEB74  59F0     		ldr r0, [r6, +r7]

005BEB76  B082     		sub sp, sp, #8
005BEB78  F8CD 0000		str r0, [sp]
005BEB7C  F8DF 74B4		ldr r7, [pc, #+1204] ; 0x68
005BEB80  59F0     		ldr r0, [r6, +r7]

005BEB82  1C80     		add r0, r0, #2

005BEB84  4607     		mov r7, r0
005BEB86  F8DD 0000		ldr r0, [sp]
005BEB8A  B002     		add sp, sp, #8
005BEB8C  1BC0     		sub r0, r0, r7

005BEB8E  F8DF 74B8		ldr r7, [pc, #+1208] ; 0xCC
005BEB92  51F0     		str r0, [r6, +r7]

005BEB94  F85F 7D1C		ldr r7, [pc, #-3356] ; 0x30
005BEB98  59F0     		ldr r0, [r6, +r7]

005BEB9A  2800     		cmp r0, #0
005BEB9C  BF08 2000		eqmov r0, #0
005BEBA0  BF18 2001		nemov r0, #1

005BEBA4  2800     		cmp r0, #0
005BEBA6  D01A     		beq #52 ; 0x005BEBDE


005BEBAA  F8DF 749C		ldr r7, [pc, #+1180] ; 0xCC
005BEBAE  59F0     		ldr r0, [r6, +r7]

005BEBB0  2802     		cmp r0, #2
005BEBB2  BF28 2000		hsmov r0, #0
005BEBB6  BF38 2001		lomov r0, #1

005BEBBA  2800     		cmp r0, #0
005BEBBC  D008     		beq #16 ; 0x005BEBD0


005BEBC0  F8DF 74BC		ldr r7, [pc, #+1212] ; 0x999D58
005BEBC4  4638     		mov r0, r7
005BEBC6  F85F 7D50		ldr r7, [pc, #-3408] ; 0x28
005BEBCA  51F0     		str r0, [r6, +r7]

005BEBCC  F002 B973		b #8934 ; 0x005C0EB6


005BEBD0  F8DF 7474		ldr r7, [pc, #+1140] ; 0xCC
005BEBD4  59F0     		ldr r0, [r6, +r7]

005BEBD6  1E80     		sub r0, r0, #2

005BEBD8  F8DF 746C		ldr r7, [pc, #+1132] ; 0xCC
005BEBDC  51F0     		str r0, [r6, +r7]

005BEBDE  F8DF 7468		ldr r7, [pc, #+1128] ; 0xCC
005BEBE2  59F0     		ldr r0, [r6, +r7]

005BEBE4  F8DF 745C		ldr r7, [pc, #+1116] ; 0xC0
005BEBE8  59F7     		ldr r7, [r6, +r7]
005BEBEA  42B8     		cmp r0, r7
005BEBEC  BF98 2000		lsmov r0, #0
005BEBF0  BF88 2001		himov r0, #1

005BEBF4  B082     		sub sp, sp, #8
005BEBF6  F8CD 0000		str r0, [sp]
005BEBFA  F8DF 744C		ldr r7, [pc, #+1100] ; 0xCC
005BEBFE  59F0     		ldr r0, [r6, +r7]

005BEC00  2800     		cmp r0, #0
005BEC02  BF18 2000		nemov r0, #0
005BEC06  BF08 2001		eqmov r0, #1

005BEC0A  4607     		mov r7, r0
005BEC0C  F8DD 0000		ldr r0, [sp]
005BEC10  B002     		add sp, sp, #8
005BEC12  4338     		orr r0, r0, r7

005BEC14  2800     		cmp r0, #0
005BEC16  D008     		beq #16 ; 0x005BEC2A


005BEC1A  F8DF 7468		ldr r7, [pc, #+1128] ; 0x999D59
005BEC1E  4638     		mov r0, r7
005BEC20  F85F 7DAC		ldr r7, [pc, #-3500] ; 0x28
005BEC24  51F0     		str r0, [r6, +r7]

005BEC26  F002 B946		b #8844 ; 0x005C0EB6


005BEC2A  F8DF 7414		ldr r7, [pc, #+1044] ; 0xBC
005BEC2E  59F0     		ldr r0, [r6, +r7]

005BEC30  2700     		mov r7, #0 ; 0
005BEC32  42B8     		cmp r0, r7
005BEC34  BF18 2000		nemov r0, #0
005BEC38  BF08 2001		eqmov r0, #1

005BEC3C  2800     		cmp r0, #0
005BEC3E  D008     		beq #16 ; 0x005BEC52


005BEC42  F8DF 7444		ldr r7, [pc, #+1092] ; 0x999D5A
005BEC46  4638     		mov r0, r7
005BEC48  F85F 7DD4		ldr r7, [pc, #-3540] ; 0x28
005BEC4C  51F0     		str r0, [r6, +r7]

005BEC4E  F002 B932		b #8804 ; 0x005C0EB6


005BEC52  F8DF 73EC		ldr r7, [pc, #+1004] ; 0xBC
005BEC56  59F0     		ldr r0, [r6, +r7]
005BEC58  2700     		mov r7, #0 ; 0
005BEC5A  4639     		mov r1, r7
005BEC5C  F8DF 73E4		ldr r7, [pc, #+996] ; 0xC0
005BEC60  59F2     		ldr r2, [r6, +r7]
005BEC62  F85F 44A4		ldr r4, [pc, #-1188] ; 0x4A22DD
005BEC66  F044 0401		orr r4, r4, #1
005BEC6A  47A0     		blx r4

005BEC6C  F85F 7DF0		ldr r7, [pc, #-3568] ; 0x34
005BEC70  51F0     		str r0, [r6, +r7]

005BEC72  F85F 7DCC		ldr r7, [pc, #-3532] ; 0x6C
005BEC76  59F0     		ldr r0, [r6, +r7]

005BEC78  F85F 7E20		ldr r7, [pc, #-3616] ; 0x4
005BEC7C  59F7     		ldr r7, [r6, +r7]
005BEC7E  19C0     		add r0, r0, r7

005BEC80  F85F 7D84		ldr r7, [pc, #-3460] ; 0xF4
005BEC84  51F0     		str r0, [r6, +r7]

005BEC86  F8DF 73B8		ldr r7, [pc, #+952] ; 0xBC
005BEC8A  59F0     		ldr r0, [r6, +r7]
005BEC8C  F85F 7D90		ldr r7, [pc, #-3472] ; 0xF4
005BEC90  59F1     		ldr r1, [r6, +r7]
005BEC92  F8DF 73B4		ldr r7, [pc, #+948] ; 0xCC
005BEC96  59F2     		ldr r2, [r6, +r7]
005BEC98  F85F 44D8		ldr r4, [pc, #-1240] ; 0x4A232D
005BEC9C  F044 0401		orr r4, r4, #1
005BECA0  47A0     		blx r4

005BECA2  F85F 7E24		ldr r7, [pc, #-3620] ; 0x34
005BECA6  51F0     		str r0, [r6, +r7]

005BECA8  F85F 7E50		ldr r7, [pc, #-3664] ; 0x4
005BECAC  59F0     		ldr r0, [r6, +r7]

005BECAE  F8DF 7398		ldr r7, [pc, #+920] ; 0xCC
005BECB2  59F7     		ldr r7, [r6, +r7]
005BECB4  19C0     		add r0, r0, r7

005BECB6  F85F 7E5C		ldr r7, [pc, #-3676] ; 0x4
005BECBA  51F0     		str r0, [r6, +r7]

005BECBC  2001     		mov r0, #1 ; 1
005BECBE  F85F 7DDC		ldr r7, [pc, #-3548] ; 0xC9
005BECC2  55F0     		strb r0, [r6, +r7]

005BECC4  F85F 7520		ldr r7, [pc, #-1312] ; 0xDC
005BECC8  59F0     		ldr r0, [r6, +r7]

005BECCA  1C40     		add r0, r0, #1

005BECCC  F85F 7528		ldr r7, [pc, #-1320] ; 0xDC
005BECD0  51F0     		str r0, [r6, +r7]

005BECD2  F85F 7E74		ldr r7, [pc, #-3700] ; 0xC
005BECD6  59F0     		ldr r0, [r6, +r7]

005BECD8  2700     		mov r7, #0 ; 0
005BECDA  42B8     		cmp r0, r7
005BECDC  BF08 2000		eqmov r0, #0
005BECE0  BF18 2001		nemov r0, #1

005BECE4  2800     		cmp r0, #0
005BECE6  F000 808B		beq #278 ; 0x005BEE00


005BECEA  F8DF 0370		ldr r0, [pc, #+880] ; 0x5BA28C

005BECEE  F85F 7E00		ldr r7, [pc, #-3584] ; 0xE4
005BECF2  51F0     		str r0, [r6, +r7]

005BECF4  F85F 7E74		ldr r7, [pc, #-3700] ; 0x38
005BECF8  5DF0     		ldrb r0, [r6, +r7]

005BECFA  1E40     		sub r0, r0, #1

005BECFC  F8DF 7354		ldr r7, [pc, #+852] ; 0x114
005BED00  55F0     		strb r0, [r6, +r7]

005BED02  F8DF 7350		ldr r7, [pc, #+848] ; 0x114
005BED06  5DF5     		ldrb r5, [r6, +r7]
005BED08  F8DF 7324		ldr r7, [pc, #+804] ; 0x42
005BED0C  EB07 0745		add r7, r7, r5, lsl #1
005BED10  19F0     		add r0, r6, r7

005BED12  F85F 7560		ldr r7, [pc, #-1376] ; 0x100
005BED16  51F0     		str r0, [r6, +r7]

005BED18  B082     		sub sp, sp, #8
005BED1A  F85F 7EBC		ldr r7, [pc, #-3772] ; 0xC
005BED1E  59F7     		ldr r7, [r6, +r7]
005BED20  4638     		mov r0, r7
005BED22  F85F 7E74		ldr r7, [pc, #-3700] ; 0x84
005BED26  59F1     		ldr r1, [r6, +r7]
005BED28  F85F 7E3C		ldr r7, [pc, #-3644] ; 0xE4
005BED2C  59F2     		ldr r2, [r6, +r7]
005BED2E  2320     		mov r3, #32 ; 32
005BED30  F85F 7580		ldr r7, [pc, #-1408] ; 0x100
005BED34  59F7     		ldr r7, [r6, +r7]
005BED36  F8CD 7000		str r7, [sp]
005BED3A  F85F 4E28		ldr r4, [pc, #-3624] ; 0x4A1321
005BED3E  F044 0401		orr r4, r4, #1
005BED42  47A0     		blx r4
005BED44  B002     		add sp, sp, #8

005BED46  F85F 7EC8		ldr r7, [pc, #-3784] ; 0x34
005BED4A  51F0     		str r0, [r6, +r7]

005BED4C  F8DF 0310		ldr r0, [pc, #+784] ; 0x5BA2A4

005BED50  F85F 7E64		ldr r7, [pc, #-3684] ; 0xE4
005BED54  51F0     		str r0, [r6, +r7]

005BED56  B082     		sub sp, sp, #8
005BED58  F85F 7EFC		ldr r7, [pc, #-3836] ; 0xC
005BED5C  59F7     		ldr r7, [r6, +r7]
005BED5E  4638     		mov r0, r7
005BED60  F85F 7EB4		ldr r7, [pc, #-3764] ; 0x84
005BED64  59F1     		ldr r1, [r6, +r7]
005BED66  F85F 7E78		ldr r7, [pc, #-3704] ; 0xE4
005BED6A  59F2     		ldr r2, [r6, +r7]
005BED6C  2332     		mov r3, #50 ; 50
005BED6E  F8DF 72C8		ldr r7, [pc, #+712] ; 0xB4
005BED72  59F7     		ldr r7, [r6, +r7]
005BED74  F8CD 7000		str r7, [sp]
005BED78  F85F 4E64		ldr r4, [pc, #-3684] ; 0x4A13A9
005BED7C  F044 0401		orr r4, r4, #1
005BED80  47A0     		blx r4
005BED82  B002     		add sp, sp, #8

005BED84  F85F 7F08		ldr r7, [pc, #-3848] ; 0x34
005BED88  51F0     		str r0, [r6, +r7]

005BED8A  F8DF 02D8		ldr r0, [pc, #+728] ; 0x5BA2B0

005BED8E  F85F 7EA0		ldr r7, [pc, #-3744] ; 0xE4
005BED92  51F0     		str r0, [r6, +r7]

005BED94  B082     		sub sp, sp, #8
005BED96  F85F 7F38		ldr r7, [pc, #-3896] ; 0xC
005BED9A  59F7     		ldr r7, [r6, +r7]
005BED9C  4638     		mov r0, r7
005BED9E  F85F 7EF0		ldr r7, [pc, #-3824] ; 0x84
005BEDA2  59F1     		ldr r1, [r6, +r7]
005BEDA4  F85F 7EB8		ldr r7, [pc, #-3768] ; 0xE4
005BEDA8  59F2     		ldr r2, [r6, +r7]
005BEDAA  2332     		mov r3, #50 ; 50
005BEDAC  F8DF 7290		ldr r7, [pc, #+656] ; 0xBC
005BEDB0  59F7     		ldr r7, [r6, +r7]
005BEDB2  F8CD 7000		str r7, [sp]
005BEDB6  F85F 4EA0		ldr r4, [pc, #-3744] ; 0x4A13A9
005BEDBA  F044 0401		orr r4, r4, #1
005BEDBE  47A0     		blx r4
005BEDC0  B002     		add sp, sp, #8

005BEDC2  F85F 7F44		ldr r7, [pc, #-3908] ; 0x34
005BEDC6  51F0     		str r0, [r6, +r7]

005BEDC8  F85F 0E6C		ldr r0, [pc, #-3692] ; 0x5BA1CC

005BEDCC  F85F 7EE0		ldr r7, [pc, #-3808] ; 0xE4
005BEDD0  51F0     		str r0, [r6, +r7]

005BEDD2  B082     		sub sp, sp, #8
005BEDD4  2001     		mov r0, #1 ; 1
005BEDD6  2700     		mov r7, #0 ; 0
005BEDD8  4639     		mov r1, r7
005BEDDA  2702     		mov r7, #2 ; 2
005BEDDC  463A     		mov r2, r7
005BEDDE  F85F 7EF0		ldr r7, [pc, #-3824] ; 0xE4
005BEDE2  59F3     		ldr r3, [r6, +r7]
005BEDE4  F85F 7F88		ldr r7, [pc, #-3976] ; 0xC
005BEDE8  59F7     		ldr r7, [r6, +r7]
005BEDEA  F8CD 7000		str r7, [sp]
005BEDEE  F85F 4ED4		ldr r4, [pc, #-3796] ; 0x4A17A9
005BEDF2  F044 0401		orr r4, r4, #1
005BEDF6  47A0     		blx r4
005BEDF8  B002     		add sp, sp, #8

005BEDFA  F85F 7F7C		ldr r7, [pc, #-3964] ; 0x34
005BEDFE  51F0     		str r0, [r6, +r7]

005BEE00  F85F 7F68		ldr r7, [pc, #-3944] ; 0x60
005BEE04  59F0     		ldr r0, [r6, +r7]

005BEE06  F85F 7FAC		ldr r7, [pc, #-4012] ; 0x4
005BEE0A  59F7     		ldr r7, [r6, +r7]
005BEE0C  42B8     		cmp r0, r7
005BEE0E  BF28 2000		hsmov r0, #0
005BEE12  BF38 2001		lomov r0, #1

005BEE16  2800     		cmp r0, #0
005BEE18  D008     		beq #16 ; 0x005BEE2C


005BEE1C  F8DF 726C		ldr r7, [pc, #+620] ; 0x999D5B
005BEE20  4638     		mov r0, r7
005BEE22  F85F 7FAC		ldr r7, [pc, #-4012] ; 0x28
005BEE26  51F0     		str r0, [r6, +r7]

005BEE28  F002 B845		b #8330 ; 0x005C0EB6


005BEE2C  F85F 7F94		ldr r7, [pc, #-3988] ; 0x60
005BEE30  59F0     		ldr r0, [r6, +r7]

005BEE32  F85F 7FD8		ldr r7, [pc, #-4056] ; 0x4
005BEE36  59F7     		ldr r7, [r6, +r7]
005BEE38  1BC0     		sub r0, r0, r7

005BEE3A  F85F 7FA0		ldr r7, [pc, #-4000] ; 0x60
005BEE3E  51F0     		str r0, [r6, +r7]

005BEE40  F85F 7F9C		ldr r7, [pc, #-3996] ; 0x6C
005BEE44  59F0     		ldr r0, [r6, +r7]

005BEE46  F85F 7FEC		ldr r7, [pc, #-4076] ; 0x4
005BEE4A  59F7     		ldr r7, [r6, +r7]
005BEE4C  19C0     		add r0, r0, r7

005BEE4E  F85F 7F50		ldr r7, [pc, #-3920] ; 0xF4
005BEE52  51F0     		str r0, [r6, +r7]

005BEE54  F85F 7FB0		ldr r7, [pc, #-4016] ; 0x6C
005BEE58  59F0     		ldr r0, [r6, +r7]
005BEE5A  F85F 7F5C		ldr r7, [pc, #-3932] ; 0xF4
005BEE5E  59F1     		ldr r1, [r6, +r7]
005BEE60  F85F 7FC8		ldr r7, [pc, #-4040] ; 0x60
005BEE64  59F2     		ldr r2, [r6, +r7]
005BEE66  F85F 46A4		ldr r4, [pc, #-1700] ; 0x4A232D
005BEE6A  F044 0401		orr r4, r4, #1
005BEE6E  47A0     		blx r4

005BEE70  F85F 7FF4		ldr r7, [pc, #-4084] ; 0x34
005BEE74  51F0     		str r0, [r6, +r7]

005BEE76  F85F 4F54		ldr r4, [pc, #-3924] ; 0x4A1DED
005BEE7A  F044 0401		orr r4, r4, #1
005BEE7E  47A0     		blx r4

005BEE80  F8DF 71A8		ldr r7, [pc, #+424] ; 0x1C
005BEE84  51F0     		str r0, [r6, +r7]

005BEE86  F7FE BFC5		b #-4214 ; 0x005BDE14

005BEE8A  2001     		mov r0, #1 ; 1

005BEE8C  2800     		cmp r0, #0
005BEE8E  F002 8012		beq #8228 ; 0x005C0EB6


005BEE92  F8DF 7194		ldr r7, [pc, #+404] ; 0x11
005BEE96  5DF0     		ldrb r0, [r6, +r7]

005BEE98  2800     		cmp r0, #0
005BEE9A  BF18 2000		nemov r0, #0
005BEE9E  BF08 2001		eqmov r0, #1

005BEEA2  2800     		cmp r0, #0
005BEEA4  F040 816C		bne #728 ; 0x005BF180


005BEEA8  F8DF 717C		ldr r7, [pc, #+380] ; 0x11
005BEEAC  5DF0     		ldrb r0, [r6, +r7]

005BEEAE  280A     		cmp r0, #10
005BEEB0  BF18 2000		nemov r0, #0
005BEEB4  BF08 2001		eqmov r0, #1

005BEEB8  2800     		cmp r0, #0
005BEEBA  F040 823B		bne #1142 ; 0x005BF334


005BEEBE  F8DF 7168		ldr r7, [pc, #+360] ; 0x11
005BEEC2  5DF0     		ldrb r0, [r6, +r7]

005BEEC4  280B     		cmp r0, #11
005BEEC6  BF18 2000		nemov r0, #0
005BEECA  BF08 2001		eqmov r0, #1

005BEECE  2800     		cmp r0, #0
005BEED0  F040 829C		bne #1336 ; 0x005BF40C


005BEED4  F8DF 7150		ldr r7, [pc, #+336] ; 0x11
005BEED8  5DF0     		ldrb r0, [r6, +r7]

005BEEDA  280C     		cmp r0, #12
005BEEDC  BF18 2000		nemov r0, #0
005BEEE0  BF08 2001		eqmov r0, #1

005BEEE4  2800     		cmp r0, #0
005BEEE6  F040 82A3		bne #1350 ; 0x005BF430


005BEEEA  F8DF 713C		ldr r7, [pc, #+316] ; 0x11
005BEEEE  5DF0     		ldrb r0, [r6, +r7]

005BEEF0  280D     		cmp r0, #13
005BEEF2  BF18 2000		nemov r0, #0
005BEEF6  BF08 2001		eqmov r0, #1

005BEEFA  2800     		cmp r0, #0
005BEEFC  F040 8330		bne #1632 ; 0x005BF560


005BEF00  F8DF 7124		ldr r7, [pc, #+292] ; 0x11
005BEF04  5DF0     		ldrb r0, [r6, +r7]

005BEF06  280E     		cmp r0, #14
005BEF08  BF18 2000		nemov r0, #0
005BEF0C  BF08 2001		eqmov r0, #1

005BEF10  2800     		cmp r0, #0
005BEF12  F040 8382		bne #1796 ; 0x005BF61A


005BEF16  F8DF 7110		ldr r7, [pc, #+272] ; 0x11
005BEF1A  5DF0     		ldrb r0, [r6, +r7]

005BEF1C  280F     		cmp r0, #15
005BEF1E  BF18 2000		nemov r0, #0
005BEF22  BF08 2001		eqmov r0, #1

005BEF26  2800     		cmp r0, #0
005BEF28  F040 839C		bne #1848 ; 0x005BF664


005BEF2C  F8DF 70F8		ldr r7, [pc, #+248] ; 0x11
005BEF30  5DF0     		ldrb r0, [r6, +r7]

005BEF32  2810     		cmp r0, #16
005BEF34  BF18 2000		nemov r0, #0
005BEF38  BF08 2001		eqmov r0, #1

005BEF3C  2800     		cmp r0, #0
005BEF3E  F040 83B6		bne #1900 ; 0x005BF6AE


005BEF42  F8DF 70E4		ldr r7, [pc, #+228] ; 0x11
005BEF46  5DF0     		ldrb r0, [r6, +r7]

005BEF48  2811     		cmp r0, #17
005BEF4A  BF18 2000		nemov r0, #0
005BEF4E  BF08 2001		eqmov r0, #1

005BEF52  2800     		cmp r0, #0
005BEF54  F040 83B8		bne #1904 ; 0x005BF6C8


005BEF58  F8DF 70CC		ldr r7, [pc, #+204] ; 0x11
005BEF5C  5DF0     		ldrb r0, [r6, +r7]

005BEF5E  2812     		cmp r0, #18
005BEF60  BF18 2000		nemov r0, #0
005BEF64  BF08 2001		eqmov r0, #1

005BEF68  2800     		cmp r0, #0
005BEF6A  F040 83C6		bne #1932 ; 0x005BF6FA


005BEF6E  F8DF 70B8		ldr r7, [pc, #+184] ; 0x11
005BEF72  5DF0     		ldrb r0, [r6, +r7]

005BEF74  2813     		cmp r0, #19
005BEF76  BF18 2000		nemov r0, #0
005BEF7A  BF08 2001		eqmov r0, #1

005BEF7E  2800     		cmp r0, #0
005BEF80  F040 8418		bne #2096 ; 0x005BF7B4


005BEF84  F8DF 70A0		ldr r7, [pc, #+160] ; 0x11
005BEF88  5DF0     		ldrb r0, [r6, +r7]

005BEF8A  2832     		cmp r0, #50
005BEF8C  BF18 2000		nemov r0, #0
005BEF90  BF08 2001		eqmov r0, #1

005BEF94  2800     		cmp r0, #0
005BEF96  F040 84D4		bne #2472 ; 0x005BF942


005BEF9A  F8DF 708C		ldr r7, [pc, #+140] ; 0x11
005BEF9E  5DF0     		ldrb r0, [r6, +r7]

005BEFA0  2833     		cmp r0, #51
005BEFA2  BF18 2000		nemov r0, #0
005BEFA6  BF08 2001		eqmov r0, #1

005BEFAA  2800     		cmp r0, #0
005BEFAC  F040 8539		bne #2674 ; 0x005BFA22


005BEFB0  F8DF 7074		ldr r7, [pc, #+116] ; 0x11
005BEFB4  5DF0     		ldrb r0, [r6, +r7]

005BEFB6  2864     		cmp r0, #100
005BEFB8  BF18 2000		nemov r0, #0
005BEFBC  BF08 2001		eqmov r0, #1

005BEFC0  2800     		cmp r0, #0
005BEFC2  F040 85CD		bne #2970 ; 0x005BFB60


005BEFC6  F8DF 7060		ldr r7, [pc, #+96] ; 0x11
005BEFCA  5DF0     		ldrb r0, [r6, +r7]

005BEFCC  2865     		cmp r0, #101
005BEFCE  BF18 2000		nemov r0, #0
005BEFD2  BF08 2001		eqmov r0, #1

005BEFD6  2800     		cmp r0, #0
005BEFD8  F040 8673		bne #3302 ; 0x005BFCC2


005BEFDC  F8DF 7048		ldr r7, [pc, #+72] ; 0x11
005BEFE0  5DF0     		ldrb r0, [r6, +r7]

005BEFE2  2866     		cmp r0, #102
005BEFE4  BF18 2000		nemov r0, #0
005BEFE8  BF08 2001		eqmov r0, #1

005BEFEC  2800     		cmp r0, #0
005BEFEE  F040 8792		bne #3876 ; 0x005BFF16


005BEFF2  F8DF 7034		ldr r7, [pc, #+52] ; 0x11
005BEFF6  5DF0     		ldrb r0, [r6, +r7]

005BEFF8  2867     		cmp r0, #103
005BEFFA  BF18 2000		nemov r0, #0
005BEFFE  BF08 2001		eqmov r0, #1

005BF002  2800     		cmp r0, #0
005BF004  F040 87B6		bne #3948 ; 0x005BFF74


005BF008  F8DF 701C		ldr r7, [pc, #+28] ; 0x11
005BF00C  5DF0     		ldrb r0, [r6, +r7]

005BF00E  2868     		cmp r0, #104
005BF010  BF18 2000		nemov r0, #0
005BF014  BF08 2001		eqmov r0, #1

005BF018  2800     		cmp r0, #0
005BF01A  F041 8001		bne #4098 ; 0x005C0020


005BF01E  F8DF 7008		ldr r7, [pc, #+8] ; 0x11
005BF022  5DF0     		ldrb r0, [r6, +r7]

005BF024  E034     		b #104

005BF028  00000011		; 0x00000011
005BF02C  0000001C		; 0x0000001C
005BF030  00000042		; 0x00000042
005BF034  00000068		; 0x00000068
005BF038  000000B4		; 0x000000B4
005BF03C  000000B8		; 0x000000B8
005BF040  000000BC		; 0x000000BC
005BF044  000000C0		; 0x000000C0
005BF048  000000CC		; 0x000000CC
005BF04C  0000010C		; 0x0000010C
005BF050  00000110		; 0x00000110
005BF054  00000114		; 0x00000114
005BF058  005BA270		; 0x005BA270
005BF05C  005BA28C		; 0x005BA28C
005BF060  005BA2A4		; 0x005BA2A4
005BF064  005BA2B0		; 0x005BA2B0
005BF068  005BA910		; 0x005BA910
005BF06C  00999D53		; 0x00999D53
005BF070  00999D54		; 0x00999D54
005BF074  00999D55		; 0x00999D55
005BF078  00999D56		; 0x00999D56
005BF07C  00999D57		; 0x00999D57
005BF080  00999D58		; 0x00999D58
005BF084  00999D59		; 0x00999D59
005BF088  00999D5A		; 0x00999D5A
005BF08C  00999D5B		; 0x00999D5B

005BF090  2878     		cmp r0, #120
005BF092  BF18 2000		nemov r0, #0
005BF096  BF08 2001		eqmov r0, #1

005BF09A  2800     		cmp r0, #0
005BF09C  F041 809F		bne #4414 ; 0x005C01DE


005BF0A0  F85F 707C		ldr r7, [pc, #-124] ; 0x11
005BF0A4  5DF0     		ldrb r0, [r6, +r7]

005BF0A6  2879     		cmp r0, #121
005BF0A8  BF18 2000		nemov r0, #0
005BF0AC  BF08 2001		eqmov r0, #1

005BF0B0  2800     		cmp r0, #0
005BF0B2  F041 8154		bne #4776 ; 0x005C035E


005BF0B6  F85F 7090		ldr r7, [pc, #-144] ; 0x11
005BF0BA  5DF0     		ldrb r0, [r6, +r7]

005BF0BC  287A     		cmp r0, #122
005BF0BE  BF18 2000		nemov r0, #0
005BF0C2  BF08 2001		eqmov r0, #1

005BF0C6  2800     		cmp r0, #0
005BF0C8  F041 8176		bne #4844 ; 0x005C03B8


005BF0CC  F85F 70A8		ldr r7, [pc, #-168] ; 0x11
005BF0D0  5DF0     		ldrb r0, [r6, +r7]

005BF0D2  287B     		cmp r0, #123
005BF0D4  BF18 2000		nemov r0, #0
005BF0D8  BF08 2001		eqmov r0, #1

005BF0DC  2800     		cmp r0, #0
005BF0DE  F041 8184		bne #4872 ; 0x005C03EA


005BF0E2  F85F 70BC		ldr r7, [pc, #-188] ; 0x11
005BF0E6  5DF0     		ldrb r0, [r6, +r7]

005BF0E8  2896     		cmp r0, #150
005BF0EA  BF18 2000		nemov r0, #0
005BF0EE  BF08 2001		eqmov r0, #1

005BF0F2  2800     		cmp r0, #0
005BF0F4  F041 821C		bne #5176 ; 0x005C0530


005BF0F8  F85F 70D4		ldr r7, [pc, #-212] ; 0x11
005BF0FC  5DF0     		ldrb r0, [r6, +r7]

005BF0FE  2897     		cmp r0, #151
005BF100  BF18 2000		nemov r0, #0
005BF104  BF08 2001		eqmov r0, #1

005BF108  2800     		cmp r0, #0
005BF10A  F041 8301		bne #5634 ; 0x005C0710


005BF10E  F85F 70E8		ldr r7, [pc, #-232] ; 0x11
005BF112  5DF0     		ldrb r0, [r6, +r7]

005BF114  28C8     		cmp r0, #200
005BF116  BF18 2000		nemov r0, #0
005BF11A  BF08 2001		eqmov r0, #1

005BF11E  2800     		cmp r0, #0
005BF120  F041 8329		bne #5714 ; 0x005C0776


005BF124  F85F 7100		ldr r7, [pc, #-256] ; 0x11
005BF128  5DF0     		ldrb r0, [r6, +r7]

005BF12A  28D2     		cmp r0, #210
005BF12C  BF18 2000		nemov r0, #0
005BF130  BF08 2001		eqmov r0, #1

005BF134  2800     		cmp r0, #0
005BF136  F041 8425		bne #6218 ; 0x005C0984


005BF13A  F85F 7114		ldr r7, [pc, #-276] ; 0x11
005BF13E  5DF0     		ldrb r0, [r6, +r7]

005BF140  28DC     		cmp r0, #220
005BF142  BF18 2000		nemov r0, #0
005BF146  BF08 2001		eqmov r0, #1

005BF14A  2800     		cmp r0, #0
005BF14C  F041 8545		bne #6794 ; 0x005C0BDA


005BF150  F85F 712C		ldr r7, [pc, #-300] ; 0x11
005BF154  5DF0     		ldrb r0, [r6, +r7]

005BF156  28DD     		cmp r0, #221
005BF158  BF18 2000		nemov r0, #0
005BF15C  BF08 2001		eqmov r0, #1

005BF160  2800     		cmp r0, #0
005BF162  F041 85B3		bne #7014 ; 0x005C0CCC


005BF166  F85F 7140		ldr r7, [pc, #-320] ; 0x11
005BF16A  5DF0     		ldrb r0, [r6, +r7]

005BF16C  28DE     		cmp r0, #222
005BF16E  BF18 2000		nemov r0, #0
005BF172  BF08 2001		eqmov r0, #1

005BF176  2800     		cmp r0, #0
005BF178  F041 864E		bne #7324 ; 0x005C0E18


005BF17C  F001 BE99		b #7474 ; 0x005C0EB2


005BF180  F8DF 7710		ldr r7, [pc, #+1808] ; 0x1
005BF184  5DF0     		ldrb r0, [r6, +r7]

005BF186  2800     		cmp r0, #0
005BF188  D004     		beq #8 ; 0x005BF194


005BF18C  2064     		mov r0, #100 ; 100
005BF18E  F85F 7168		ldr r7, [pc, #-360] ; 0x11
005BF192  55F0     		strb r0, [r6, +r7]

005BF194  F8DF 7700		ldr r7, [pc, #+1792] ; 0x3
005BF198  5DF0     		ldrb r0, [r6, +r7]

005BF19A  2800     		cmp r0, #0
005BF19C  D004     		beq #8 ; 0x005BF1A8


005BF1A0  2078     		mov r0, #120 ; 120
005BF1A2  F85F 717C		ldr r7, [pc, #-380] ; 0x11
005BF1A6  55F0     		strb r0, [r6, +r7]

005BF1A8  F8DF 7710		ldr r7, [pc, #+1808] ; 0x38
005BF1AC  5DF0     		ldrb r0, [r6, +r7]

005BF1AE  2800     		cmp r0, #0
005BF1B0  BF08 2000		eqmov r0, #0
005BF1B4  BF18 2001		nemov r0, #1

005BF1B8  2800     		cmp r0, #0
005BF1BA  D004     		beq #8 ; 0x005BF1C6


005BF1BE  2096     		mov r0, #150 ; 150
005BF1C0  F85F 719C		ldr r7, [pc, #-412] ; 0x11
005BF1C4  55F0     		strb r0, [r6, +r7]

005BF1C6  F8DF 771C		ldr r7, [pc, #+1820] ; 0xC5
005BF1CA  5DF0     		ldrb r0, [r6, +r7]

005BF1CC  2800     		cmp r0, #0
005BF1CE  BF08 2001		eqmov r0, #1
005BF1D2  BF18 2000		nemov r0, #0

005BF1D6  2800     		cmp r0, #0
005BF1D8  D004     		beq #8 ; 0x005BF1E4


005BF1DC  200A     		mov r0, #10 ; 10
005BF1DE  F85F 71B8		ldr r7, [pc, #-440] ; 0x11
005BF1E2  55F0     		strb r0, [r6, +r7]

005BF1E4  F8DF 4720		ldr r4, [pc, #+1824] ; 0x4A1DED
005BF1E8  F044 0401		orr r4, r4, #1
005BF1EC  47A0     		blx r4

005BF1EE  F8DF 76D0		ldr r7, [pc, #+1744] ; 0x3C
005BF1F2  59F7     		ldr r7, [r6, +r7]
005BF1F4  1BC0     		sub r0, r0, r7

005BF1F6  B082     		sub sp, sp, #8
005BF1F8  F8CD 0000		str r0, [sp]
005BF1FC  F8DF 76E0		ldr r7, [pc, #+1760] ; 0x9C
005BF200  5BF0     		ldrh r0, [r6, +r7]

005BF202  2702     		mov r7, #2 ; 2
005BF204  B082     		sub sp, sp, #8
005BF206  F8CD 1000		str r1, [sp]
005BF20A  4639     		mov r1, r7
005BF20C  FBB0 F0F1		udiv r0, r0, r1
005BF210  F8DD 1000		ldr r1, [sp]
005BF214  B002     		add sp, sp, #8

005BF216  F44F 777A		mov r7, #1000 ; 1000
005BF21A  4378     		mul r0, r0, r7

005BF21C  4607     		mov r7, r0
005BF21E  F8DD 0000		ldr r0, [sp]
005BF222  B002     		add sp, sp, #8
005BF224  42B8     		cmp r0, r7
005BF226  BF38 2000		lomov r0, #0
005BF22A  BF28 2001		hsmov r0, #1

005BF22E  B082     		sub sp, sp, #8
005BF230  F8CD 0000		str r0, [sp]
005BF234  F85F 7210		ldr r7, [pc, #-528] ; 0x11
005BF238  5DF0     		ldrb r0, [r6, +r7]

005BF23A  2800     		cmp r0, #0
005BF23C  BF18 2000		nemov r0, #0
005BF240  BF08 2001		eqmov r0, #1

005BF244  B082     		sub sp, sp, #8
005BF246  F8CD 0000		str r0, [sp]
005BF24A  F8DF 7694		ldr r7, [pc, #+1684] ; 0x9C
005BF24E  5BF0     		ldrh r0, [r6, +r7]

005BF250  2800     		cmp r0, #0
005BF252  BF08 2000		eqmov r0, #0
005BF256  BF18 2001		nemov r0, #1

005BF25A  4607     		mov r7, r0
005BF25C  F8DD 0000		ldr r0, [sp]
005BF260  B002     		add sp, sp, #8
005BF262  4038     		and r0, r0, r7

005BF264  4607     		mov r7, r0
005BF266  F8DD 0000		ldr r0, [sp]
005BF26A  B002     		add sp, sp, #8
005BF26C  4038     		and r0, r0, r7

005BF26E  2800     		cmp r0, #0
005BF270  D00C     		beq #24 ; 0x005BF28C


005BF274  F8DF 4690		ldr r4, [pc, #+1680] ; 0x4A1DED
005BF278  F044 0401		orr r4, r4, #1
005BF27C  47A0     		blx r4

005BF27E  F8DF 7640		ldr r7, [pc, #+1600] ; 0x3C
005BF282  51F0     		str r0, [r6, +r7]

005BF284  2032     		mov r0, #50 ; 50
005BF286  F85F 7260		ldr r7, [pc, #-608] ; 0x11
005BF28A  55F0     		strb r0, [r6, +r7]

005BF28C  F8DF 7638		ldr r7, [pc, #+1592] ; 0x7C
005BF290  59F0     		ldr r0, [r6, +r7]

005BF292  2700     		mov r7, #0 ; 0
005BF294  42B8     		cmp r0, r7
005BF296  BF08 2000		eqmov r0, #0
005BF29A  BF18 2001		nemov r0, #1

005BF29E  B082     		sub sp, sp, #8
005BF2A0  F8CD 0000		str r0, [sp]
005BF2A4  F85F 7280		ldr r7, [pc, #-640] ; 0x11
005BF2A8  5DF0     		ldrb r0, [r6, +r7]

005BF2AA  2800     		cmp r0, #0
005BF2AC  BF18 2000		nemov r0, #0
005BF2B0  BF08 2001		eqmov r0, #1

005BF2B4  4607     		mov r7, r0
005BF2B6  F8DD 0000		ldr r0, [sp]
005BF2BA  B002     		add sp, sp, #8
005BF2BC  4038     		and r0, r0, r7

005BF2BE  2800     		cmp r0, #0
005BF2C0  D00D     		beq #26 ; 0x005BF2DE


005BF2C4  F8DF 7600		ldr r7, [pc, #+1536] ; 0x7C
005BF2C8  19F0     		add r0, r6, r7

005BF2CA  4607     		mov r7, r0
005BF2CC  4638     		mov r0, r7
005BF2CE  F8DF 4640		ldr r4, [pc, #+1600] ; 0x4A1FD5
005BF2D2  F044 0401		orr r4, r4, #1
005BF2D6  47A0     		blx r4

005BF2D8  F8DF 75DC		ldr r7, [pc, #+1500] ; 0x34
005BF2DC  51F0     		str r0, [r6, +r7]

005BF2DE  F85F 72B8		ldr r7, [pc, #-696] ; 0x11
005BF2E2  5DF0     		ldrb r0, [r6, +r7]

005BF2E4  2800     		cmp r0, #0
005BF2E6  BF18 2000		nemov r0, #0
005BF2EA  BF08 2001		eqmov r0, #1

005BF2EE  2800     		cmp r0, #0
005BF2F0  D002     		beq #4 ; 0x005BF2F8


005BF2F4  F001 BDDF		b #7102 ; 0x005C0EB6


005BF2F8  F8DF 75CC		ldr r7, [pc, #+1484] ; 0x7C
005BF2FC  19F0     		add r0, r6, r7

005BF2FE  F8DF 75EC		ldr r7, [pc, #+1516] ; 0xE0
005BF302  51F0     		str r0, [r6, +r7]

005BF304  F8DF 75BC		ldr r7, [pc, #+1468] ; 0x70
005BF308  59F0     		ldr r0, [r6, +r7]
005BF30A  F8DF 75E0		ldr r7, [pc, #+1504] ; 0xE0
005BF30E  59F7     		ldr r7, [r6, +r7]
005BF310  4639     		mov r1, r7
005BF312  F8DF 45F8		ldr r4, [pc, #+1528] ; 0x4A1F45
005BF316  F044 0401		orr r4, r4, #1
005BF31A  47A0     		blx r4

005BF31C  2800     		cmp r0, #0
005BF31E  BF08 2001		eqmov r0, #1
005BF322  BF18 2000		nemov r0, #0

005BF326  2800     		cmp r0, #0
005BF328  D002     		beq #4 ; 0x005BF330


005BF32C  F001 BDC3		b #7046 ; 0x005C0EB6


005BF330  F001 BDBF		b #7038 ; 0x005C0EB2


005BF334  2001     		mov r0, #1 ; 1
005BF336  F8DF 7564		ldr r7, [pc, #+1380] ; 0x8
005BF33A  51F0     		str r0, [r6, +r7]

005BF33C  B082     		sub sp, sp, #8
005BF33E  F8DF 7588		ldr r7, [pc, #+1416] ; 0x7C
005BF342  59F7     		ldr r7, [r6, +r7]
005BF344  F8CD 7000		str r7, [sp]
005BF348  2710     		mov r7, #16 ; 16
005BF34A  F8CD 7004		str r7, [sp, #+4]
005BF34E  F8DF 45E0		ldr r4, [pc, #+1504] ; 0x5BA53C
005BF352  F044 0401		orr r4, r4, #1
005BF356  47A0     		blx r4
005BF358  B002     		add sp, sp, #8

005BF35A  F8DF 755C		ldr r7, [pc, #+1372] ; 0x34
005BF35E  51F0     		str r0, [r6, +r7]

005BF360  F85F 733C		ldr r7, [pc, #-828] ; 0x11
005BF364  5DF0     		ldrb r0, [r6, +r7]

005BF366  1C40     		add r0, r0, #1

005BF368  F85F 7344		ldr r7, [pc, #-836] ; 0x11
005BF36C  55F0     		strb r0, [r6, +r7]

005BF36E  F8DF 7530		ldr r7, [pc, #+1328] ; 0xC
005BF372  59F0     		ldr r0, [r6, +r7]

005BF374  2700     		mov r7, #0 ; 0
005BF376  42B8     		cmp r0, r7
005BF378  BF08 2000		eqmov r0, #0
005BF37C  BF18 2001		nemov r0, #1

005BF380  2800     		cmp r0, #0
005BF382  D041     		beq #130 ; 0x005BF408


005BF386  F8DF 0594		ldr r0, [pc, #+1428] ; 0x5BA2BC

005BF38A  F8DF 7564		ldr r7, [pc, #+1380] ; 0xE4
005BF38E  51F0     		str r0, [r6, +r7]

005BF390  F8DF 754C		ldr r7, [pc, #+1356] ; 0x9C
005BF394  19F0     		add r0, r6, r7

005BF396  F85F 7BE4		ldr r7, [pc, #-3044] ; 0x100
005BF39A  51F0     		str r0, [r6, +r7]

005BF39C  B082     		sub sp, sp, #8
005BF39E  F8DF 7500		ldr r7, [pc, #+1280] ; 0xC
005BF3A2  59F7     		ldr r7, [r6, +r7]
005BF3A4  4638     		mov r0, r7
005BF3A6  F8DF 7528		ldr r7, [pc, #+1320] ; 0x84
005BF3AA  59F1     		ldr r1, [r6, +r7]
005BF3AC  F8DF 7540		ldr r7, [pc, #+1344] ; 0xE4
005BF3B0  59F2     		ldr r2, [r6, +r7]
005BF3B2  2320     		mov r3, #32 ; 32
005BF3B4  F85F 7C04		ldr r7, [pc, #-3076] ; 0x100
005BF3B8  59F7     		ldr r7, [r6, +r7]
005BF3BA  F8CD 7000		str r7, [sp]
005BF3BE  F8DF 4540		ldr r4, [pc, #+1344] ; 0x4A1321
005BF3C2  F044 0401		orr r4, r4, #1
005BF3C6  47A0     		blx r4
005BF3C8  B002     		add sp, sp, #8

005BF3CA  F8DF 74EC		ldr r7, [pc, #+1260] ; 0x34
005BF3CE  51F0     		str r0, [r6, +r7]

005BF3D0  F8DF 054C		ldr r0, [pc, #+1356] ; 0x5BA2E4

005BF3D4  F8DF 7518		ldr r7, [pc, #+1304] ; 0xE4
005BF3D8  51F0     		str r0, [r6, +r7]

005BF3DA  B082     		sub sp, sp, #8
005BF3DC  2001     		mov r0, #1 ; 1
005BF3DE  2700     		mov r7, #0 ; 0
005BF3E0  4639     		mov r1, r7
005BF3E2  2701     		mov r7, #1 ; 1
005BF3E4  463A     		mov r2, r7
005BF3E6  F8DF 7508		ldr r7, [pc, #+1288] ; 0xE4
005BF3EA  59F3     		ldr r3, [r6, +r7]
005BF3EC  F8DF 74B0		ldr r7, [pc, #+1200] ; 0xC
005BF3F0  59F7     		ldr r7, [r6, +r7]
005BF3F2  F8CD 7000		str r7, [sp]
005BF3F6  F8DF 450C		ldr r4, [pc, #+1292] ; 0x4A17A9
005BF3FA  F044 0401		orr r4, r4, #1
005BF3FE  47A0     		blx r4
005BF400  B002     		add sp, sp, #8

005BF402  F8DF 74B4		ldr r7, [pc, #+1204] ; 0x34
005BF406  51F0     		str r0, [r6, +r7]

005BF408  F001 BD53		b #6822 ; 0x005C0EB2


005BF40C  F8DF 0514		ldr r0, [pc, #+1300] ; 0x5BA2F4

005BF410  F8DF 74B8		ldr r7, [pc, #+1208] ; 0x80
005BF414  51F0     		str r0, [r6, +r7]

005BF416  F85F 73F0		ldr r7, [pc, #-1008] ; 0x11
005BF41A  5DF0     		ldrb r0, [r6, +r7]

005BF41C  1C40     		add r0, r0, #1

005BF41E  F8DF 7484		ldr r7, [pc, #+1156] ; 0x10
005BF422  55F0     		strb r0, [r6, +r7]

005BF424  20C8     		mov r0, #200 ; 200
005BF426  F85F 7400		ldr r7, [pc, #-1024] ; 0x11
005BF42A  55F0     		strb r0, [r6, +r7]

005BF42C  F001 BD41		b #6786 ; 0x005C0EB2


005BF430  F8DF 7494		ldr r7, [pc, #+1172] ; 0x7C
005BF434  59F0     		ldr r0, [r6, +r7]

005BF436  F8DF 7464		ldr r7, [pc, #+1124] ; 0x8
005BF43A  59F7     		ldr r7, [r6, +r7]
005BF43C  19C0     		add r0, r0, r7

005BF43E  B082     		sub sp, sp, #8
005BF440  4607     		mov r7, r0
005BF442  F8CD 7000		str r7, [sp]
005BF446  2704     		mov r7, #4 ; 4
005BF448  F8CD 7004		str r7, [sp, #+4]
005BF44C  F8DF 44E0		ldr r4, [pc, #+1248] ; 0x5BA53C
005BF450  F044 0401		orr r4, r4, #1
005BF454  47A0     		blx r4
005BF456  B002     		add sp, sp, #8

005BF458  F8DF 745C		ldr r7, [pc, #+1116] ; 0x34
005BF45C  51F0     		str r0, [r6, +r7]

005BF45E  2002     		mov r0, #2 ; 2
005BF460  F8DF 7450		ldr r7, [pc, #+1104] ; 0x2C
005BF464  55F0     		strb r0, [r6, +r7]

005BF466  F8DF 7470		ldr r7, [pc, #+1136] ; 0x94
005BF46A  59F0     		ldr r0, [r6, +r7]

005BF46C  2700     		mov r7, #0 ; 0
005BF46E  42B8     		cmp r0, r7
005BF470  BF08 2000		eqmov r0, #0
005BF474  BF18 2001		nemov r0, #1

005BF478  2800     		cmp r0, #0
005BF47A  D008     		beq #16 ; 0x005BF48E


005BF47E  F8DF 7434		ldr r7, [pc, #+1076] ; 0x2C
005BF482  5DF0     		ldrb r0, [r6, +r7]

005BF484  2780     		mov r7, #128 ; 128
005BF486  4338     		orr r0, r0, r7

005BF488  F8DF 7428		ldr r7, [pc, #+1064] ; 0x2C
005BF48C  55F0     		strb r0, [r6, +r7]

005BF48E  F8DF 744C		ldr r7, [pc, #+1100] ; 0x98
005BF492  59F0     		ldr r0, [r6, +r7]

005BF494  2700     		mov r7, #0 ; 0
005BF496  42B8     		cmp r0, r7
005BF498  BF08 2000		eqmov r0, #0
005BF49C  BF18 2001		nemov r0, #1

005BF4A0  2800     		cmp r0, #0
005BF4A2  D008     		beq #16 ; 0x005BF4B6


005BF4A6  F8DF 740C		ldr r7, [pc, #+1036] ; 0x2C
005BF4AA  5DF0     		ldrb r0, [r6, +r7]

005BF4AC  2740     		mov r7, #64 ; 64
005BF4AE  4338     		orr r0, r0, r7

005BF4B0  F8DF 7400		ldr r7, [pc, #+1024] ; 0x2C
005BF4B4  55F0     		strb r0, [r6, +r7]

005BF4B6  F8DF 7410		ldr r7, [pc, #+1040] ; 0x7C
005BF4BA  59F0     		ldr r0, [r6, +r7]

005BF4BC  F8DF 73DC		ldr r7, [pc, #+988] ; 0x8
005BF4C0  59F7     		ldr r7, [r6, +r7]
005BF4C2  19C0     		add r0, r0, r7

005BF4C4  1C40     		add r0, r0, #1

005BF4C6  B082     		sub sp, sp, #8
005BF4C8  4607     		mov r7, r0
005BF4CA  F8CD 7000		str r7, [sp]
005BF4CE  F8DF 73E4		ldr r7, [pc, #+996] ; 0x2C
005BF4D2  5DF7     		ldrb r7, [r6, +r7]
005BF4D4  F8CD 7004		str r7, [sp, #+4]
005BF4D8  F8DF 4454		ldr r4, [pc, #+1108] ; 0x5BA53C
005BF4DC  F044 0401		orr r4, r4, #1
005BF4E0  47A0     		blx r4
005BF4E2  B002     		add sp, sp, #8

005BF4E4  F8DF 73D0		ldr r7, [pc, #+976] ; 0x34
005BF4E8  51F0     		str r0, [r6, +r7]

005BF4EA  F8DF 73DC		ldr r7, [pc, #+988] ; 0x7C
005BF4EE  59F0     		ldr r0, [r6, +r7]

005BF4F0  F8DF 73A8		ldr r7, [pc, #+936] ; 0x8
005BF4F4  59F7     		ldr r7, [r6, +r7]
005BF4F6  19C0     		add r0, r0, r7

005BF4F8  1C80     		add r0, r0, #2

005BF4FA  F8DF 73F8		ldr r7, [pc, #+1016] ; 0xF4
005BF4FE  51F0     		str r0, [r6, +r7]

005BF500  F8DF 73DC		ldr r7, [pc, #+988] ; 0x9C
005BF504  19F0     		add r0, r6, r7

005BF506  F85F 7D54		ldr r7, [pc, #-3412] ; 0x100
005BF50A  51F0     		str r0, [r6, +r7]

005BF50C  B084     		sub sp, sp, #16
005BF50E  2701     		mov r7, #1 ; 1
005BF510  F8CD 7000		str r7, [sp]
005BF514  2728     		mov r7, #40 ; 40
005BF516  F8CD 7004		str r7, [sp, #+4]
005BF51A  F8DF 73D8		ldr r7, [pc, #+984] ; 0xF4
005BF51E  59F7     		ldr r7, [r6, +r7]
005BF520  F8CD 7008		str r7, [sp, #+8]
005BF524  F85F 7D74		ldr r7, [pc, #-3444] ; 0x100
005BF528  59F7     		ldr r7, [r6, +r7]
005BF52A  F8CD 700C		str r7, [sp, #+12]
005BF52E  F85F 44C8		ldr r4, [pc, #-1224] ; 0x5BA910
005BF532  F044 0401		orr r4, r4, #1
005BF536  47A0     		blx r4
005BF538  B004     		add sp, sp, #16

005BF53A  F8DF 737C		ldr r7, [pc, #+892] ; 0x34
005BF53E  51F0     		str r0, [r6, +r7]

005BF540  F8DF 7358		ldr r7, [pc, #+856] ; 0x8
005BF544  59F0     		ldr r0, [r6, +r7]

005BF546  1D00     		add r0, r0, #4

005BF548  F8DF 7350		ldr r7, [pc, #+848] ; 0x8
005BF54C  51F0     		str r0, [r6, +r7]

005BF54E  F85F 7528		ldr r7, [pc, #-1320] ; 0x11
005BF552  5DF0     		ldrb r0, [r6, +r7]

005BF554  1C40     		add r0, r0, #1

005BF556  F85F 7530		ldr r7, [pc, #-1328] ; 0x11
005BF55A  55F0     		strb r0, [r6, +r7]

005BF55C  F001 BCA9		b #6482 ; 0x005C0EB2


005BF560  F85F 753C		ldr r7, [pc, #-1340] ; 0x11
005BF564  5DF0     		ldrb r0, [r6, +r7]

005BF566  1C40     		add r0, r0, #1

005BF568  F85F 7544		ldr r7, [pc, #-1348] ; 0x11
005BF56C  55F0     		strb r0, [r6, +r7]

005BF56E  F8DF 7364		ldr r7, [pc, #+868] ; 0x90
005BF572  59F0     		ldr r0, [r6, +r7]

005BF574  2700     		mov r7, #0 ; 0
005BF576  42B8     		cmp r0, r7
005BF578  BF18 2000		nemov r0, #0
005BF57C  BF08 2001		eqmov r0, #1

005BF580  2800     		cmp r0, #0
005BF582  D038     		beq #112 ; 0x005BF5F6


005BF586  F8DF 7340		ldr r7, [pc, #+832] ; 0x7C
005BF58A  59F0     		ldr r0, [r6, +r7]

005BF58C  F8DF 730C		ldr r7, [pc, #+780] ; 0x8
005BF590  59F7     		ldr r7, [r6, +r7]
005BF592  19C0     		add r0, r0, r7

005BF594  B082     		sub sp, sp, #8
005BF596  4607     		mov r7, r0
005BF598  F8CD 7000		str r7, [sp]
005BF59C  2700     		mov r7, #0 ; 0
005BF59E  F8CD 7004		str r7, [sp, #+4]
005BF5A2  F8DF 438C		ldr r4, [pc, #+908] ; 0x5BA53C
005BF5A6  F044 0401		orr r4, r4, #1
005BF5AA  47A0     		blx r4
005BF5AC  B002     		add sp, sp, #8

005BF5AE  F8DF 7308		ldr r7, [pc, #+776] ; 0x34
005BF5B2  51F0     		str r0, [r6, +r7]

005BF5B4  F8DF 7310		ldr r7, [pc, #+784] ; 0x7C
005BF5B8  59F0     		ldr r0, [r6, +r7]

005BF5BA  F8DF 72E0		ldr r7, [pc, #+736] ; 0x8
005BF5BE  59F7     		ldr r7, [r6, +r7]
005BF5C0  19C0     		add r0, r0, r7

005BF5C2  1C40     		add r0, r0, #1

005BF5C4  B082     		sub sp, sp, #8
005BF5C6  4607     		mov r7, r0
005BF5C8  F8CD 7000		str r7, [sp]
005BF5CC  2700     		mov r7, #0 ; 0
005BF5CE  F8CD 7004		str r7, [sp, #+4]
005BF5D2  F8DF 435C		ldr r4, [pc, #+860] ; 0x5BA53C
005BF5D6  F044 0401		orr r4, r4, #1
005BF5DA  47A0     		blx r4
005BF5DC  B002     		add sp, sp, #8

005BF5DE  F8DF 72D8		ldr r7, [pc, #+728] ; 0x34
005BF5E2  51F0     		str r0, [r6, +r7]

005BF5E4  F8DF 72B4		ldr r7, [pc, #+692] ; 0x8
005BF5E8  59F0     		ldr r0, [r6, +r7]

005BF5EA  1C80     		add r0, r0, #2

005BF5EC  F8DF 72AC		ldr r7, [pc, #+684] ; 0x8
005BF5F0  51F0     		str r0, [r6, +r7]

005BF5F2  E010     		b #32 ; 0x005BF616


005BF5F6  F8DF 72DC		ldr r7, [pc, #+732] ; 0x90
005BF5FA  59F0     		ldr r0, [r6, +r7]
005BF5FC  F8DF 72CC		ldr r7, [pc, #+716] ; 0x80
005BF600  51F0     		str r0, [r6, +r7]

005BF602  F85F 75DC		ldr r7, [pc, #-1500] ; 0x11
005BF606  5DF0     		ldrb r0, [r6, +r7]
005BF608  F8DF 7298		ldr r7, [pc, #+664] ; 0x10
005BF60C  55F0     		strb r0, [r6, +r7]

005BF60E  20C8     		mov r0, #200 ; 200
005BF610  F85F 75EC		ldr r7, [pc, #-1516] ; 0x11
005BF614  55F0     		strb r0, [r6, +r7]

005BF616  F001 BC4C		b #6296 ; 0x005C0EB2


005BF61A  F85F 75F4		ldr r7, [pc, #-1524] ; 0x11
005BF61E  5DF0     		ldrb r0, [r6, +r7]

005BF620  1C40     		add r0, r0, #1

005BF622  F85F 75FC		ldr r7, [pc, #-1532] ; 0x11
005BF626  55F0     		strb r0, [r6, +r7]

005BF628  F8DF 72AC		ldr r7, [pc, #+684] ; 0x94
005BF62C  59F0     		ldr r0, [r6, +r7]

005BF62E  2700     		mov r7, #0 ; 0
005BF630  42B8     		cmp r0, r7
005BF632  BF08 2000		eqmov r0, #0
005BF636  BF18 2001		nemov r0, #1

005BF63A  2800     		cmp r0, #0
005BF63C  D010     		beq #32 ; 0x005BF660


005BF640  F8DF 7294		ldr r7, [pc, #+660] ; 0x94
005BF644  59F0     		ldr r0, [r6, +r7]
005BF646  F8DF 7284		ldr r7, [pc, #+644] ; 0x80
005BF64A  51F0     		str r0, [r6, +r7]

005BF64C  F85F 7628		ldr r7, [pc, #-1576] ; 0x11
005BF650  5DF0     		ldrb r0, [r6, +r7]
005BF652  F8DF 7250		ldr r7, [pc, #+592] ; 0x10
005BF656  55F0     		strb r0, [r6, +r7]

005BF658  20C8     		mov r0, #200 ; 200
005BF65A  F85F 7634		ldr r7, [pc, #-1588] ; 0x11
005BF65E  55F0     		strb r0, [r6, +r7]

005BF660  F001 BC27		b #6222 ; 0x005C0EB2


005BF664  F85F 7640		ldr r7, [pc, #-1600] ; 0x11
005BF668  5DF0     		ldrb r0, [r6, +r7]

005BF66A  1C40     		add r0, r0, #1

005BF66C  F85F 7648		ldr r7, [pc, #-1608] ; 0x11
005BF670  55F0     		strb r0, [r6, +r7]

005BF672  F8DF 7268		ldr r7, [pc, #+616] ; 0x98
005BF676  59F0     		ldr r0, [r6, +r7]

005BF678  2700     		mov r7, #0 ; 0
005BF67A  42B8     		cmp r0, r7
005BF67C  BF08 2000		eqmov r0, #0
005BF680  BF18 2001		nemov r0, #1

005BF684  2800     		cmp r0, #0
005BF686  D010     		beq #32 ; 0x005BF6AA


005BF68A  F8DF 7250		ldr r7, [pc, #+592] ; 0x98
005BF68E  59F0     		ldr r0, [r6, +r7]
005BF690  F8DF 7238		ldr r7, [pc, #+568] ; 0x80
005BF694  51F0     		str r0, [r6, +r7]

005BF696  F85F 7670		ldr r7, [pc, #-1648] ; 0x11
005BF69A  5DF0     		ldrb r0, [r6, +r7]
005BF69C  F8DF 7204		ldr r7, [pc, #+516] ; 0x10
005BF6A0  55F0     		strb r0, [r6, +r7]

005BF6A2  20C8     		mov r0, #200 ; 200
005BF6A4  F85F 7680		ldr r7, [pc, #-1664] ; 0x11
005BF6A8  55F0     		strb r0, [r6, +r7]

005BF6AA  F001 BC02		b #6148 ; 0x005C0EB2


005BF6AE  F85F 7688		ldr r7, [pc, #-1672] ; 0x11
005BF6B2  5DF0     		ldrb r0, [r6, +r7]

005BF6B4  1C40     		add r0, r0, #1

005BF6B6  F8DF 71EC		ldr r7, [pc, #+492] ; 0x10
005BF6BA  55F0     		strb r0, [r6, +r7]

005BF6BC  20D2     		mov r0, #210 ; 210
005BF6BE  F85F 7698		ldr r7, [pc, #-1688] ; 0x11
005BF6C2  55F0     		strb r0, [r6, +r7]

005BF6C4  F001 BBF5		b #6122 ; 0x005C0EB2


005BF6C8  2001     		mov r0, #1 ; 1
005BF6CA  F8DF 71DC		ldr r7, [pc, #+476] ; 0x18
005BF6CE  55F0     		strb r0, [r6, +r7]

005BF6D0  F8DF 4234		ldr r4, [pc, #+564] ; 0x4A1DED
005BF6D4  F044 0401		orr r4, r4, #1
005BF6D8  47A0     		blx r4

005BF6DA  F8DF 71D0		ldr r7, [pc, #+464] ; 0x20
005BF6DE  51F0     		str r0, [r6, +r7]

005BF6E0  F85F 76BC		ldr r7, [pc, #-1724] ; 0x11
005BF6E4  5DF0     		ldrb r0, [r6, +r7]

005BF6E6  1C40     		add r0, r0, #1

005BF6E8  F8DF 71B8		ldr r7, [pc, #+440] ; 0x10
005BF6EC  55F0     		strb r0, [r6, +r7]

005BF6EE  20DC     		mov r0, #220 ; 220
005BF6F0  F85F 76CC		ldr r7, [pc, #-1740] ; 0x11
005BF6F4  55F0     		strb r0, [r6, +r7]

005BF6F6  F001 BBDC		b #6072 ; 0x005C0EB2


005BF6FA  F8DF 420C		ldr r4, [pc, #+524] ; 0x4A1DED
005BF6FE  F044 0401		orr r4, r4, #1
005BF702  47A0     		blx r4

005BF704  F8DF 71A4		ldr r7, [pc, #+420] ; 0x20
005BF708  59F7     		ldr r7, [r6, +r7]
005BF70A  1BC0     		sub r0, r0, r7

005BF70C  B082     		sub sp, sp, #8
005BF70E  F8CD 0000		str r0, [sp]
005BF712  2000     		mov r0, #0 ; 0

005BF714  F8DF 71E4		ldr r7, [pc, #+484] ; 0xBB8
005BF718  4638     		mov r0, r7

005BF71A  4607     		mov r7, r0
005BF71C  F8DD 0000		ldr r0, [sp]
005BF720  B002     		add sp, sp, #8
005BF722  42B8     		cmp r0, r7
005BF724  BF98 2000		lsmov r0, #0
005BF728  BF88 2001		himov r0, #1

005BF72C  2800     		cmp r0, #0
005BF72E  D008     		beq #16 ; 0x005BF742


005BF732  F8DF 7200		ldr r7, [pc, #+512] ; 0x999D64
005BF736  4638     		mov r0, r7
005BF738  F8DF 7174		ldr r7, [pc, #+372] ; 0x28
005BF73C  51F0     		str r0, [r6, +r7]

005BF73E  F001 BBBA		b #6004 ; 0x005C0EB6


005BF742  F8DF 7164		ldr r7, [pc, #+356] ; 0x18
005BF746  5DF0     		ldrb r0, [r6, +r7]

005BF748  2800     		cmp r0, #0
005BF74A  D002     		beq #4 ; 0x005BF752


005BF74E  F001 BBB2		b #5988 ; 0x005C0EB6


005BF752  F8DF 41B4		ldr r4, [pc, #+436] ; 0x4A1DED
005BF756  F044 0401		orr r4, r4, #1
005BF75A  47A0     		blx r4

005BF75C  F8DF 714C		ldr r7, [pc, #+332] ; 0x20
005BF760  59F7     		ldr r7, [r6, +r7]
005BF762  1BC0     		sub r0, r0, r7

005BF764  F8DF 41AC		ldr r4, [pc, #+428] ; 0x4B946D
005BF768  F044 0401		orr r4, r4, #1
005BF76C  47A0     		blx r4

005BF76E  F8DF 71B8		ldr r7, [pc, #+440] ; 0x5BA2FC
005BF772  683F     		ldr r7, [r7]
005BF774  B082     		sub sp, sp, #8
005BF776  F8CD 1000		str r1, [sp]
005BF77A  4639     		mov r1, r7
005BF77C  F8DF 4198		ldr r4, [pc, #+408] ; 0x4B950B
005BF780  F044 0401		orr r4, r4, #1
005BF784  47A0     		blx r4
005BF786  F8DD 1000		ldr r1, [sp]
005BF78A  B002     		add sp, sp, #8

005BF78C  F8DF 7158		ldr r7, [pc, #+344] ; 0xD0
005BF790  51F0     		str r0, [r6, +r7]

005BF792  F8DF 4174		ldr r4, [pc, #+372] ; 0x4A1DED
005BF796  F044 0401		orr r4, r4, #1
005BF79A  47A0     		blx r4

005BF79C  F8DF 710C		ldr r7, [pc, #+268] ; 0x20
005BF7A0  51F0     		str r0, [r6, +r7]

005BF7A2  F85F 777C		ldr r7, [pc, #-1916] ; 0x11
005BF7A6  5DF0     		ldrb r0, [r6, +r7]

005BF7A8  1C40     		add r0, r0, #1

005BF7AA  F85F 7784		ldr r7, [pc, #-1924] ; 0x11
005BF7AE  55F0     		strb r0, [r6, +r7]

005BF7B0  F001 BB7F		b #5886 ; 0x005C0EB2


005BF7B4  F8DF 4150		ldr r4, [pc, #+336] ; 0x4A1DED
005BF7B8  F044 0401		orr r4, r4, #1
005BF7BC  47A0     		blx r4

005BF7BE  F8DF 70EC		ldr r7, [pc, #+236] ; 0x20
005BF7C2  59F7     		ldr r7, [r6, +r7]
005BF7C4  1BC0     		sub r0, r0, r7

005BF7C6  B082     		sub sp, sp, #8
005BF7C8  F8CD 0000		str r0, [sp]
005BF7CC  2000     		mov r0, #0 ; 0

005BF7CE  F44F 707A		mov r0, #1000 ; 1000

005BF7D2  4607     		mov r7, r0
005BF7D4  F8DD 0000		ldr r0, [sp]
005BF7D8  B002     		add sp, sp, #8
005BF7DA  42B8     		cmp r0, r7
005BF7DC  BF28 2000		hsmov r0, #0
005BF7E0  BF38 2001		lomov r0, #1

005BF7E4  2800     		cmp r0, #0
005BF7E6  D002     		beq #4 ; 0x005BF7EE


005BF7EA  F001 BB64		b #5832 ; 0x005C0EB6


005BF7EE  2001     		mov r0, #1 ; 1
005BF7F0  F8DF 70F0		ldr r7, [pc, #+240] ; 0xC5
005BF7F4  55F0     		strb r0, [r6, +r7]

005BF7F6  2000     		mov r0, #0 ; 0
005BF7F8  F85F 77D4		ldr r7, [pc, #-2004] ; 0x11
005BF7FC  55F0     		strb r0, [r6, +r7]

005BF7FE  F8DF 70A0		ldr r7, [pc, #+160] ; 0xC
005BF802  59F0     		ldr r0, [r6, +r7]

005BF804  2700     		mov r7, #0 ; 0
005BF806  42B8     		cmp r0, r7
005BF808  BF08 2000		eqmov r0, #0
005BF80C  BF18 2001		nemov r0, #1

005BF810  2800     		cmp r0, #0
005BF812  F000 8094		beq #296 ; 0x005BF93E


005BF816  F8DF 0114		ldr r0, [pc, #+276] ; 0x5BA300

005BF81A  F8DF 70D4		ldr r7, [pc, #+212] ; 0xE4
005BF81E  51F0     		str r0, [r6, +r7]

005BF820  F8DF 70C4		ldr r7, [pc, #+196] ; 0xD0
005BF824  19F0     		add r0, r6, r7

005BF826  F8DF 70D0		ldr r7, [pc, #+208] ; 0x118
005BF82A  51F0     		str r0, [r6, +r7]

005BF82C  B082     		sub sp, sp, #8
005BF82E  F8DF 7070		ldr r7, [pc, #+112] ; 0xC
005BF832  59F7     		ldr r7, [r6, +r7]
005BF834  4638     		mov r0, r7
005BF836  F8DF 7098		ldr r7, [pc, #+152] ; 0x84
005BF83A  59F1     		ldr r1, [r6, +r7]
005BF83C  F8DF 70B0		ldr r7, [pc, #+176] ; 0xE4
005BF840  59F2     		ldr r2, [r6, +r7]
005BF842  232B     		mov r3, #43 ; 43
005BF844  F8DF 70B0		ldr r7, [pc, #+176] ; 0x118
005BF848  59F7     		ldr r7, [r6, +r7]
005BF84A  F8CD 7000		str r7, [sp]
005BF84E  F8DF 40B0		ldr r4, [pc, #+176] ; 0x4A1321
005BF852  F044 0401		orr r4, r4, #1
005BF856  47A0     		blx r4
005BF858  B002     		add sp, sp, #8

005BF85A  F8DF 705C		ldr r7, [pc, #+92] ; 0x34
005BF85E  51F0     		str r0, [r6, +r7]

005BF860  F8DF 00BC		ldr r0, [pc, #+188] ; 0x5BA2E4

005BF864  F8DF 7088		ldr r7, [pc, #+136] ; 0xE4
005BF868  51F0     		str r0, [r6, +r7]

005BF86A  B082     		sub sp, sp, #8
005BF86C  2001     		mov r0, #1 ; 1
005BF86E  2700     		mov r7, #0 ; 0
005BF870  4639     		mov r1, r7
005BF872  2701     		mov r7, #1 ; 1
005BF874  463A     		mov r2, r7
005BF876  F8DF 7078		ldr r7, [pc, #+120] ; 0xE4
005BF87A  59F3     		ldr r3, [r6, +r7]
005BF87C  F8DF 7020		ldr r7, [pc, #+32] ; 0xC
005BF880  59F7     		ldr r7, [r6, +r7]
005BF882  F8CD 7000		str r7, [sp]
005BF886  F8DF 407C		ldr r4, [pc, #+124] ; 0x4A17A9
005BF88A  F044 0401		orr r4, r4, #1
005BF88E  47A0     		blx r4
005BF890  B002     		add sp, sp, #8

005BF892  E051     		b #162

005BF894  00000001		; 0x00000001
005BF898  00000003		; 0x00000003
005BF89C  00000008		; 0x00000008
005BF8A0  0000000C		; 0x0000000C
005BF8A4  00000010		; 0x00000010
005BF8A8  00000018		; 0x00000018
005BF8AC  00000020		; 0x00000020
005BF8B0  00000028		; 0x00000028
005BF8B4  0000002C		; 0x0000002C
005BF8B8  00000034		; 0x00000034
005BF8BC  00000038		; 0x00000038
005BF8C0  0000003C		; 0x0000003C
005BF8C4  00000070		; 0x00000070
005BF8C8  0000007C		; 0x0000007C
005BF8CC  00000080		; 0x00000080
005BF8D0  00000084		; 0x00000084
005BF8D4  00000090		; 0x00000090
005BF8D8  00000094		; 0x00000094
005BF8DC  00000098		; 0x00000098
005BF8E0  0000009C		; 0x0000009C
005BF8E4  000000C5		; 0x000000C5
005BF8E8  000000D0		; 0x000000D0
005BF8EC  000000E0		; 0x000000E0
005BF8F0  000000E4		; 0x000000E4
005BF8F4  000000F4		; 0x000000F4
005BF8F8  00000118		; 0x00000118
005BF8FC  00000BB8		; 0x00000BB8
005BF900  004A1321		; 0x004A1321
005BF904  004A17A9		; 0x004A17A9
005BF908  004A1DED		; 0x004A1DED
005BF90C  004A1F45		; 0x004A1F45
005BF910  004A1FD5		; 0x004A1FD5
005BF914  004B946D		; 0x004B946D
005BF918  004B950B		; 0x004B950B
005BF91C  005BA2BC		; 0x005BA2BC
005BF920  005BA2E4		; 0x005BA2E4
005BF924  005BA2F4		; 0x005BA2F4
005BF928  005BA2FC		; 0x005BA2FC
005BF92C  005BA300		; 0x005BA300
005BF930  005BA53C		; 0x005BA53C
005BF934  00999D64		; 0x00999D64

005BF938  F85F 7084		ldr r7, [pc, #-132] ; 0x34
005BF93C  51F0     		str r0, [r6, +r7]

005BF93E  F001 BAB8		b #5488 ; 0x005C0EB2


005BF942  F85F 70A4		ldr r7, [pc, #-164] ; 0xC
005BF946  59F0     		ldr r0, [r6, +r7]

005BF948  2700     		mov r7, #0 ; 0
005BF94A  42B8     		cmp r0, r7
005BF94C  BF08 2000		eqmov r0, #0
005BF950  BF18 2001		nemov r0, #1

005BF954  2800     		cmp r0, #0
005BF956  D021     		beq #66 ; 0x005BF99C


005BF95A  F85F 003C		ldr r0, [pc, #-60] ; 0x5BA2E4

005BF95E  F85F 7070		ldr r7, [pc, #-112] ; 0xE4
005BF962  51F0     		str r0, [r6, +r7]

005BF964  F8DF 0838		ldr r0, [pc, #+2104] ; 0x5BA324

005BF968  F8DF 7820		ldr r7, [pc, #+2080] ; 0xF8
005BF96C  51F0     		str r0, [r6, +r7]

005BF96E  B082     		sub sp, sp, #8
005BF970  2001     		mov r0, #1 ; 1
005BF972  2700     		mov r7, #0 ; 0
005BF974  4639     		mov r1, r7
005BF976  2701     		mov r7, #1 ; 1
005BF978  463A     		mov r2, r7
005BF97A  F85F 708C		ldr r7, [pc, #-140] ; 0xE4
005BF97E  59F3     		ldr r3, [r6, +r7]
005BF980  F8DF 7808		ldr r7, [pc, #+2056] ; 0xF8
005BF984  59F7     		ldr r7, [r6, +r7]
005BF986  F8CD 7000		str r7, [sp]
005BF98A  F85F 4088		ldr r4, [pc, #-136] ; 0x4A17A9
005BF98E  F044 0401		orr r4, r4, #1
005BF992  47A0     		blx r4
005BF994  B002     		add sp, sp, #8

005BF996  F85F 70E0		ldr r7, [pc, #-224] ; 0x34
005BF99A  51F0     		str r0, [r6, +r7]

005BF99C  B082     		sub sp, sp, #8
005BF99E  F85F 70D8		ldr r7, [pc, #-216] ; 0x7C
005BF9A2  59F7     		ldr r7, [r6, +r7]
005BF9A4  F8CD 7000		str r7, [sp]
005BF9A8  27C0     		mov r7, #192 ; 192
005BF9AA  F8CD 7004		str r7, [sp, #+4]
005BF9AE  F85F 4080		ldr r4, [pc, #-128] ; 0x5BA53C
005BF9B2  F044 0401		orr r4, r4, #1
005BF9B6  47A0     		blx r4
005BF9B8  B002     		add sp, sp, #8

005BF9BA  F85F 7104		ldr r7, [pc, #-260] ; 0x34
005BF9BE  51F0     		str r0, [r6, +r7]

005BF9C0  F85F 70FC		ldr r7, [pc, #-252] ; 0x7C
005BF9C4  59F0     		ldr r0, [r6, +r7]

005BF9C6  1C40     		add r0, r0, #1

005BF9C8  B082     		sub sp, sp, #8
005BF9CA  4607     		mov r7, r0
005BF9CC  F8CD 7000		str r7, [sp]
005BF9D0  27C0     		mov r7, #192 ; 192
005BF9D2  F8CD 7004		str r7, [sp, #+4]
005BF9D6  F85F 40A8		ldr r4, [pc, #-168] ; 0x5BA53C
005BF9DA  F044 0401		orr r4, r4, #1
005BF9DE  47A0     		blx r4
005BF9E0  B002     		add sp, sp, #8

005BF9E2  F85F 712C		ldr r7, [pc, #-300] ; 0x34
005BF9E6  51F0     		str r0, [r6, +r7]

005BF9E8  2002     		mov r0, #2 ; 2
005BF9EA  F85F 7150		ldr r7, [pc, #-336] ; 0x8
005BF9EE  51F0     		str r0, [r6, +r7]

005BF9F0  2001     		mov r0, #1 ; 1
005BF9F2  F8DF 7774		ldr r7, [pc, #+1908] ; 0x39
005BF9F6  55F0     		strb r0, [r6, +r7]

005BF9F8  F85F 40F4		ldr r4, [pc, #-244] ; 0x4A1DED
005BF9FC  F044 0401		orr r4, r4, #1
005BFA00  47A0     		blx r4

005BFA02  F85F 7158		ldr r7, [pc, #-344] ; 0x20
005BFA06  51F0     		str r0, [r6, +r7]

005BFA08  F85F 79E4		ldr r7, [pc, #-2532] ; 0x11
005BFA0C  5DF0     		ldrb r0, [r6, +r7]

005BFA0E  1C40     		add r0, r0, #1

005BFA10  F85F 7170		ldr r7, [pc, #-368] ; 0x10
005BFA14  55F0     		strb r0, [r6, +r7]

005BFA16  20DC     		mov r0, #220 ; 220
005BFA18  F85F 79F4		ldr r7, [pc, #-2548] ; 0x11
005BFA1C  55F0     		strb r0, [r6, +r7]

005BFA1E  F001 BA48		b #5264 ; 0x005C0EB2


005BFA22  F85F 411C		ldr r4, [pc, #-284] ; 0x4A1DED
005BFA26  F044 0401		orr r4, r4, #1
005BFA2A  47A0     		blx r4

005BFA2C  F85F 7184		ldr r7, [pc, #-388] ; 0x20
005BFA30  59F7     		ldr r7, [r6, +r7]
005BFA32  1BC0     		sub r0, r0, r7

005BFA34  B082     		sub sp, sp, #8
005BFA36  F8CD 0000		str r0, [sp]
005BFA3A  2000     		mov r0, #0 ; 0

005BFA3C  F85F 7144		ldr r7, [pc, #-324] ; 0xBB8
005BFA40  4638     		mov r0, r7

005BFA42  4607     		mov r7, r0
005BFA44  F8DD 0000		ldr r0, [sp]
005BFA48  B002     		add sp, sp, #8
005BFA4A  42B8     		cmp r0, r7
005BFA4C  BF98 2000		lsmov r0, #0
005BFA50  BF88 2001		himov r0, #1

005BFA54  2800     		cmp r0, #0
005BFA56  D008     		beq #16 ; 0x005BFA6A


005BFA5A  F8DF 7764		ldr r7, [pc, #+1892] ; 0x999D6E
005BFA5E  4638     		mov r0, r7
005BFA60  F85F 71B4		ldr r7, [pc, #-436] ; 0x28
005BFA64  51F0     		str r0, [r6, +r7]

005BFA66  F001 BA26		b #5196 ; 0x005C0EB6


005BFA6A  F8DF 76FC		ldr r7, [pc, #+1788] ; 0x39
005BFA6E  5DF0     		ldrb r0, [r6, +r7]

005BFA70  2800     		cmp r0, #0
005BFA72  D002     		beq #4 ; 0x005BFA7A


005BFA76  F001 BA1E		b #5180 ; 0x005C0EB6


005BFA7A  F85F 4174		ldr r4, [pc, #-372] ; 0x4A1DED
005BFA7E  F044 0401		orr r4, r4, #1
005BFA82  47A0     		blx r4

005BFA84  F85F 71DC		ldr r7, [pc, #-476] ; 0x20
005BFA88  59F7     		ldr r7, [r6, +r7]
005BFA8A  1BC0     		sub r0, r0, r7

005BFA8C  F85F 417C		ldr r4, [pc, #-380] ; 0x4B946D
005BFA90  F044 0401		orr r4, r4, #1
005BFA94  47A0     		blx r4

005BFA96  F85F 7170		ldr r7, [pc, #-368] ; 0x5BA2FC
005BFA9A  683F     		ldr r7, [r7]
005BFA9C  B082     		sub sp, sp, #8
005BFA9E  F8CD 1000		str r1, [sp]
005BFAA2  4639     		mov r1, r7
005BFAA4  F85F 4190		ldr r4, [pc, #-400] ; 0x4B950B
005BFAA8  F044 0401		orr r4, r4, #1
005BFAAC  47A0     		blx r4
005BFAAE  F8DD 1000		ldr r1, [sp]
005BFAB2  B002     		add sp, sp, #8

005BFAB4  F85F 71D0		ldr r7, [pc, #-464] ; 0xD0
005BFAB8  51F0     		str r0, [r6, +r7]

005BFABA  2000     		mov r0, #0 ; 0
005BFABC  F85F 7A98		ldr r7, [pc, #-2712] ; 0x11
005BFAC0  55F0     		strb r0, [r6, +r7]

005BFAC2  F85F 7224		ldr r7, [pc, #-548] ; 0xC
005BFAC6  59F0     		ldr r0, [r6, +r7]

005BFAC8  2700     		mov r7, #0 ; 0
005BFACA  42B8     		cmp r0, r7
005BFACC  BF08 2000		eqmov r0, #0
005BFAD0  BF18 2001		nemov r0, #1

005BFAD4  2800     		cmp r0, #0
005BFAD6  D041     		beq #130 ; 0x005BFB5C


005BFADA  F8DF 06C8		ldr r0, [pc, #+1736] ; 0x5BA338

005BFADE  F85F 71F0		ldr r7, [pc, #-496] ; 0xE4
005BFAE2  51F0     		str r0, [r6, +r7]

005BFAE4  F85F 7200		ldr r7, [pc, #-512] ; 0xD0
005BFAE8  19F0     		add r0, r6, r7

005BFAEA  F85F 71F4		ldr r7, [pc, #-500] ; 0x118
005BFAEE  51F0     		str r0, [r6, +r7]

005BFAF0  B082     		sub sp, sp, #8
005BFAF2  F85F 7254		ldr r7, [pc, #-596] ; 0xC
005BFAF6  59F7     		ldr r7, [r6, +r7]
005BFAF8  4638     		mov r0, r7
005BFAFA  F85F 722C		ldr r7, [pc, #-556] ; 0x84
005BFAFE  59F1     		ldr r1, [r6, +r7]
005BFB00  F85F 7214		ldr r7, [pc, #-532] ; 0xE4
005BFB04  59F2     		ldr r2, [r6, +r7]
005BFB06  232B     		mov r3, #43 ; 43
005BFB08  F85F 7214		ldr r7, [pc, #-532] ; 0x118
005BFB0C  59F7     		ldr r7, [r6, +r7]
005BFB0E  F8CD 7000		str r7, [sp]
005BFB12  F85F 4214		ldr r4, [pc, #-532] ; 0x4A1321
005BFB16  F044 0401		orr r4, r4, #1
005BFB1A  47A0     		blx r4
005BFB1C  B002     		add sp, sp, #8

005BFB1E  F85F 7268		ldr r7, [pc, #-616] ; 0x34
005BFB22  51F0     		str r0, [r6, +r7]

005BFB24  F85F 0208		ldr r0, [pc, #-520] ; 0x5BA2E4

005BFB28  F85F 723C		ldr r7, [pc, #-572] ; 0xE4
005BFB2C  51F0     		str r0, [r6, +r7]

005BFB2E  B082     		sub sp, sp, #8
005BFB30  2001     		mov r0, #1 ; 1
005BFB32  2700     		mov r7, #0 ; 0
005BFB34  4639     		mov r1, r7
005BFB36  2701     		mov r7, #1 ; 1
005BFB38  463A     		mov r2, r7
005BFB3A  F85F 724C		ldr r7, [pc, #-588] ; 0xE4
005BFB3E  59F3     		ldr r3, [r6, +r7]
005BFB40  F85F 72A4		ldr r7, [pc, #-676] ; 0xC
005BFB44  59F7     		ldr r7, [r6, +r7]
005BFB46  F8CD 7000		str r7, [sp]
005BFB4A  F85F 4248		ldr r4, [pc, #-584] ; 0x4A17A9
005BFB4E  F044 0401		orr r4, r4, #1
005BFB52  47A0     		blx r4
005BFB54  B002     		add sp, sp, #8

005BFB56  F85F 72A0		ldr r7, [pc, #-672] ; 0x34
005BFB5A  51F0     		str r0, [r6, +r7]

005BFB5C  F001 B9A9		b #4946 ; 0x005C0EB2


005BFB60  2000     		mov r0, #0 ; 0
005BFB62  F85F 72D0		ldr r7, [pc, #-720] ; 0x1
005BFB66  55F0     		strb r0, [r6, +r7]

005BFB68  F8DF 063C		ldr r0, [pc, #+1596] ; 0x5BA35C

005BFB6C  F85F 7280		ldr r7, [pc, #-640] ; 0xE4
005BFB70  51F0     		str r0, [r6, +r7]

005BFB72  F8DF 7608		ldr r7, [pc, #+1544] ; 0xA8
005BFB76  59F0     		ldr r0, [r6, +r7]
005BFB78  F85F 728C		ldr r7, [pc, #-652] ; 0xE4
005BFB7C  59F1     		ldr r1, [r6, +r7]
005BFB7E  2200     		mov r2, #0 ; 0
005BFB80  F8DF 4618		ldr r4, [pc, #+1560] ; 0x4A2421
005BFB84  F044 0401		orr r4, r4, #1
005BFB88  47A0     		blx r4

005BFB8A  2700     		mov r7, #0 ; 0
005BFB8C  42B8     		cmp r0, r7
005BFB8E  BF08 2000		eqmov r0, #0
005BFB92  BF18 2001		nemov r0, #1

005BFB96  2800     		cmp r0, #0
005BFB98  D008     		beq #16 ; 0x005BFBAC


005BFB9C  F8DF 7624		ldr r7, [pc, #+1572] ; 0x999D78
005BFBA0  4638     		mov r0, r7
005BFBA2  F85F 72F4		ldr r7, [pc, #-756] ; 0x28
005BFBA6  51F0     		str r0, [r6, +r7]

005BFBA8  F001 B985		b #4874 ; 0x005C0EB6


005BFBAC  F8DF 05FC		ldr r0, [pc, #+1532] ; 0x5BA360

005BFBB0  F85F 72C4		ldr r7, [pc, #-708] ; 0xE4
005BFBB4  51F0     		str r0, [r6, +r7]

005BFBB6  F8DF 75C4		ldr r7, [pc, #+1476] ; 0xA8
005BFBBA  59F0     		ldr r0, [r6, +r7]
005BFBBC  F85F 72D0		ldr r7, [pc, #-720] ; 0xE4
005BFBC0  59F1     		ldr r1, [r6, +r7]
005BFBC2  2200     		mov r2, #0 ; 0
005BFBC4  F8DF 45D4		ldr r4, [pc, #+1492] ; 0x4A2421
005BFBC8  F044 0401		orr r4, r4, #1
005BFBCC  47A0     		blx r4

005BFBCE  2700     		mov r7, #0 ; 0
005BFBD0  42B8     		cmp r0, r7
005BFBD2  BF08 2000		eqmov r0, #0
005BFBD6  BF18 2001		nemov r0, #1

005BFBDA  2800     		cmp r0, #0
005BFBDC  D008     		beq #16 ; 0x005BFBF0


005BFBE0  F8DF 75E4		ldr r7, [pc, #+1508] ; 0x999D79
005BFBE4  4638     		mov r0, r7
005BFBE6  F85F 7338		ldr r7, [pc, #-824] ; 0x28
005BFBEA  51F0     		str r0, [r6, +r7]

005BFBEC  F001 B963		b #4806 ; 0x005C0EB6


005BFBF0  2030     		mov r0, #48 ; 48
005BFBF2  F85F 7340		ldr r7, [pc, #-832] ; 0x2C
005BFBF6  55F0     		strb r0, [r6, +r7]

005BFBF8  F8DF 757C		ldr r7, [pc, #+1404] ; 0xA4
005BFBFC  5DF0     		ldrb r0, [r6, +r7]

005BFBFE  2703     		mov r7, #3 ; 3
005BFC00  4038     		and r0, r0, r7

005BFC02  2702     		mov r7, #2 ; 2
005BFC04  4378     		mul r0, r0, r7

005BFC06  F85F 7354		ldr r7, [pc, #-852] ; 0x2C
005BFC0A  5DF7     		ldrb r7, [r6, +r7]
005BFC0C  4338     		orr r0, r0, r7

005BFC0E  F85F 735C		ldr r7, [pc, #-860] ; 0x2C
005BFC12  55F0     		strb r0, [r6, +r7]

005BFC14  F8DF 755C		ldr r7, [pc, #+1372] ; 0xA0
005BFC18  59F0     		ldr r0, [r6, +r7]

005BFC1A  F44F 7780		mov r7, #256 ; 256
005BFC1E  4038     		and r0, r0, r7

005BFC20  2800     		cmp r0, #0
005BFC22  BF18 2001		nemov r0, #1
005BFC26  BF08 2000		eqmov r0, #0

005BFC2A  2800     		cmp r0, #0
005BFC2C  D008     		beq #16 ; 0x005BFC40


005BFC30  F85F 7380		ldr r7, [pc, #-896] ; 0x2C
005BFC34  5DF0     		ldrb r0, [r6, +r7]

005BFC36  2701     		mov r7, #1 ; 1
005BFC38  4338     		orr r0, r0, r7

005BFC3A  F85F 7388		ldr r7, [pc, #-904] ; 0x2C
005BFC3E  55F0     		strb r0, [r6, +r7]

005BFC40  F8DF 7530		ldr r7, [pc, #+1328] ; 0xA0
005BFC44  59F0     		ldr r0, [r6, +r7]

005BFC46  F44F 7700		mov r7, #512 ; 512
005BFC4A  4038     		and r0, r0, r7

005BFC4C  2800     		cmp r0, #0
005BFC4E  BF18 2001		nemov r0, #1
005BFC52  BF08 2000		eqmov r0, #0

005BFC56  2800     		cmp r0, #0
005BFC58  D008     		beq #16 ; 0x005BFC6C


005BFC5C  F85F 73AC		ldr r7, [pc, #-940] ; 0x2C
005BFC60  5DF0     		ldrb r0, [r6, +r7]

005BFC62  2708     		mov r7, #8 ; 8
005BFC64  4338     		orr r0, r0, r7

005BFC66  F85F 73B4		ldr r7, [pc, #-948] ; 0x2C
005BFC6A  55F0     		strb r0, [r6, +r7]

005BFC6C  B082     		sub sp, sp, #8
005BFC6E  F85F 73A8		ldr r7, [pc, #-936] ; 0x7C
005BFC72  59F7     		ldr r7, [r6, +r7]
005BFC74  F8CD 7000		str r7, [sp]
005BFC78  F85F 73C8		ldr r7, [pc, #-968] ; 0x2C
005BFC7C  5DF7     		ldrb r7, [r6, +r7]
005BFC7E  F8CD 7004		str r7, [sp, #+4]
005BFC82  F85F 4354		ldr r4, [pc, #-852] ; 0x5BA53C
005BFC86  F044 0401		orr r4, r4, #1
005BFC8A  47A0     		blx r4
005BFC8C  B002     		add sp, sp, #8

005BFC8E  F85F 73D8		ldr r7, [pc, #-984] ; 0x34
005BFC92  51F0     		str r0, [r6, +r7]

005BFC94  2001     		mov r0, #1 ; 1
005BFC96  F85F 73FC		ldr r7, [pc, #-1020] ; 0x8
005BFC9A  51F0     		str r0, [r6, +r7]

005BFC9C  F8DF 74DC		ldr r7, [pc, #+1244] ; 0xA8
005BFCA0  59F0     		ldr r0, [r6, +r7]
005BFCA2  F85F 73D8		ldr r7, [pc, #-984] ; 0x80
005BFCA6  51F0     		str r0, [r6, +r7]

005BFCA8  F85F 7C84		ldr r7, [pc, #-3204] ; 0x11
005BFCAC  5DF0     		ldrb r0, [r6, +r7]

005BFCAE  1C40     		add r0, r0, #1

005BFCB0  F85F 7410		ldr r7, [pc, #-1040] ; 0x10
005BFCB4  55F0     		strb r0, [r6, +r7]

005BFCB6  20C8     		mov r0, #200 ; 200
005BFCB8  F85F 7C94		ldr r7, [pc, #-3220] ; 0x11
005BFCBC  55F0     		strb r0, [r6, +r7]

005BFCBE  F001 B8F8		b #4592 ; 0x005C0EB2


005BFCC2  2000     		mov r0, #0 ; 0
005BFCC4  F8DF 749C		ldr r7, [pc, #+1180] ; 0x30
005BFCC8  51F0     		str r0, [r6, +r7]

005BFCCA  B082     		sub sp, sp, #8
005BFCCC  F85F 7408		ldr r7, [pc, #-1032] ; 0x7C
005BFCD0  59F7     		ldr r7, [r6, +r7]
005BFCD2  F8CD 7000		str r7, [sp]
005BFCD6  F8DF 44E4		ldr r4, [pc, #+1252] ; 0x5BA4E8
005BFCDA  F044 0401		orr r4, r4, #1
005BFCDE  47A0     		blx r4
005BFCE0  B002     		add sp, sp, #8

005BFCE2  2706     		mov r7, #6 ; 6
005BFCE4  4038     		and r0, r0, r7

005BFCE6  2800     		cmp r0, #0
005BFCE8  BF08 2000		eqmov r0, #0
005BFCEC  BF18 2001		nemov r0, #1

005BFCF0  2800     		cmp r0, #0
005BFCF2  D038     		beq #112 ; 0x005BFD66


005BFCF6  F8DF 7478		ldr r7, [pc, #+1144] ; 0x52
005BFCFA  5BF0     		ldrh r0, [r6, +r7]

005BFCFC  1C40     		add r0, r0, #1

005BFCFE  F8DF 7470		ldr r7, [pc, #+1136] ; 0x52
005BFD02  53F0     		strh r0, [r6, +r7]

005BFD04  F85F 7440		ldr r7, [pc, #-1088] ; 0x7C
005BFD08  59F0     		ldr r0, [r6, +r7]

005BFD0A  F85F 7470		ldr r7, [pc, #-1136] ; 0x8
005BFD0E  59F7     		ldr r7, [r6, +r7]
005BFD10  19C0     		add r0, r0, r7

005BFD12  F85F 7420		ldr r7, [pc, #-1056] ; 0xF4
005BFD16  51F0     		str r0, [r6, +r7]

005BFD18  F8DF 7454		ldr r7, [pc, #+1108] ; 0x52
005BFD1C  19F0     		add r0, r6, r7

005BFD1E  F8DF 7470		ldr r7, [pc, #+1136] ; 0x100
005BFD22  51F0     		str r0, [r6, +r7]

005BFD24  B084     		sub sp, sp, #16
005BFD26  2701     		mov r7, #1 ; 1
005BFD28  F8CD 7000		str r7, [sp]
005BFD2C  271E     		mov r7, #30 ; 30
005BFD2E  F8CD 7004		str r7, [sp, #+4]
005BFD32  F85F 7440		ldr r7, [pc, #-1088] ; 0xF4
005BFD36  59F7     		ldr r7, [r6, +r7]
005BFD38  F8CD 7008		str r7, [sp, #+8]
005BFD3C  F8DF 7450		ldr r7, [pc, #+1104] ; 0x100
005BFD40  59F7     		ldr r7, [r6, +r7]
005BFD42  F8CD 700C		str r7, [sp, #+12]
005BFD46  F85F 4CE0		ldr r4, [pc, #-3296] ; 0x5BA910
005BFD4A  F044 0401		orr r4, r4, #1
005BFD4E  47A0     		blx r4
005BFD50  B004     		add sp, sp, #16

005BFD52  F85F 749C		ldr r7, [pc, #-1180] ; 0x34
005BFD56  51F0     		str r0, [r6, +r7]

005BFD58  F85F 74C0		ldr r7, [pc, #-1216] ; 0x8
005BFD5C  59F0     		ldr r0, [r6, +r7]

005BFD5E  1C80     		add r0, r0, #2

005BFD60  F85F 74C8		ldr r7, [pc, #-1224] ; 0x8
005BFD64  51F0     		str r0, [r6, +r7]

005BFD66  F8DF 741C		ldr r7, [pc, #+1052] ; 0xB0
005BFD6A  59F0     		ldr r0, [r6, +r7]

005BFD6C  B082     		sub sp, sp, #8
005BFD6E  F8CD 0000		str r0, [sp]
005BFD72  F85F 74B0		ldr r7, [pc, #-1200] ; 0x70
005BFD76  59F0     		ldr r0, [r6, +r7]

005BFD78  F85F 74E0		ldr r7, [pc, #-1248] ; 0x8
005BFD7C  59F7     		ldr r7, [r6, +r7]
005BFD7E  1BC0     		sub r0, r0, r7

005BFD80  4607     		mov r7, r0
005BFD82  F8DD 0000		ldr r0, [sp]
005BFD86  B002     		add sp, sp, #8
005BFD88  42B8     		cmp r0, r7
005BFD8A  BF98 2000		lsmov r0, #0
005BFD8E  BF88 2001		himov r0, #1

005BFD92  2800     		cmp r0, #0
005BFD94  D008     		beq #16 ; 0x005BFDA8


005BFD98  F8DF 7430		ldr r7, [pc, #+1072] ; 0x999D7D
005BFD9C  4638     		mov r0, r7
005BFD9E  F85F 74F0		ldr r7, [pc, #-1264] ; 0x28
005BFDA2  51F0     		str r0, [r6, +r7]

005BFDA4  F001 B887		b #4366 ; 0x005C0EB6


005BFDA8  F85F 74E4		ldr r7, [pc, #-1252] ; 0x7C
005BFDAC  59F0     		ldr r0, [r6, +r7]

005BFDAE  F85F 7514		ldr r7, [pc, #-1300] ; 0x8
005BFDB2  59F7     		ldr r7, [r6, +r7]
005BFDB4  19C0     		add r0, r0, r7

005BFDB6  F8DF 73C8		ldr r7, [pc, #+968] ; 0xAC
005BFDBA  59F1     		ldr r1, [r6, +r7]
005BFDBC  F8DF 73C4		ldr r7, [pc, #+964] ; 0xB0
005BFDC0  59F2     		ldr r2, [r6, +r7]
005BFDC2  F8DF 43D4		ldr r4, [pc, #+980] ; 0x4A232D
005BFDC6  F044 0401		orr r4, r4, #1
005BFDCA  47A0     		blx r4

005BFDCC  F85F 7518		ldr r7, [pc, #-1304] ; 0x34
005BFDD0  51F0     		str r0, [r6, +r7]

005BFDD2  F85F 7538		ldr r7, [pc, #-1336] ; 0x8
005BFDD6  59F0     		ldr r0, [r6, +r7]

005BFDD8  F8DF 73A8		ldr r7, [pc, #+936] ; 0xB0
005BFDDC  59F7     		ldr r7, [r6, +r7]
005BFDDE  19C0     		add r0, r0, r7

005BFDE0  F85F 7548		ldr r7, [pc, #-1352] ; 0x8
005BFDE4  51F0     		str r0, [r6, +r7]

005BFDE6  F85F 7DC0		ldr r7, [pc, #-3520] ; 0x11
005BFDEA  5DF0     		ldrb r0, [r6, +r7]

005BFDEC  1C40     		add r0, r0, #1

005BFDEE  F85F 754C		ldr r7, [pc, #-1356] ; 0x10
005BFDF2  55F0     		strb r0, [r6, +r7]

005BFDF4  20D2     		mov r0, #210 ; 210
005BFDF6  F85F 7DD0		ldr r7, [pc, #-3536] ; 0x11
005BFDFA  55F0     		strb r0, [r6, +r7]

005BFDFC  F85F 7560		ldr r7, [pc, #-1376] ; 0xC
005BFE00  59F0     		ldr r0, [r6, +r7]

005BFE02  2700     		mov r7, #0 ; 0
005BFE04  42B8     		cmp r0, r7
005BFE06  BF08 2000		eqmov r0, #0
005BFE0A  BF18 2001		nemov r0, #1

005BFE0E  2800     		cmp r0, #0
005BFE10  D07F     		beq #254 ; 0x005BFF12


005BFE14  F8DF 0398		ldr r0, [pc, #+920] ; 0x5BA364

005BFE18  F85F 752C		ldr r7, [pc, #-1324] ; 0xE4
005BFE1C  51F0     		str r0, [r6, +r7]

005BFE1E  F8DF 7350		ldr r7, [pc, #+848] ; 0x52
005BFE22  19F0     		add r0, r6, r7

005BFE24  F8DF 7368		ldr r7, [pc, #+872] ; 0x100
005BFE28  51F0     		str r0, [r6, +r7]

005BFE2A  B082     		sub sp, sp, #8
005BFE2C  F85F 7590		ldr r7, [pc, #-1424] ; 0xC
005BFE30  59F7     		ldr r7, [r6, +r7]
005BFE32  4638     		mov r0, r7
005BFE34  F85F 7568		ldr r7, [pc, #-1384] ; 0x84
005BFE38  59F1     		ldr r1, [r6, +r7]
005BFE3A  F85F 754C		ldr r7, [pc, #-1356] ; 0xE4
005BFE3E  59F2     		ldr r2, [r6, +r7]
005BFE40  232A     		mov r3, #42 ; 42
005BFE42  F8DF 734C		ldr r7, [pc, #+844] ; 0x100
005BFE46  59F7     		ldr r7, [r6, +r7]
005BFE48  F8CD 7000		str r7, [sp]
005BFE4C  F85F 4550		ldr r4, [pc, #-1360] ; 0x4A1321
005BFE50  F044 0401		orr r4, r4, #1
005BFE54  47A0     		blx r4
005BFE56  B002     		add sp, sp, #8

005BFE58  F85F 75A4		ldr r7, [pc, #-1444] ; 0x34
005BFE5C  51F0     		str r0, [r6, +r7]

005BFE5E  F85F 0E00		ldr r0, [pc, #-3584] ; 0x5BA2A4

005BFE62  F85F 7574		ldr r7, [pc, #-1396] ; 0xE4
005BFE66  51F0     		str r0, [r6, +r7]

005BFE68  B082     		sub sp, sp, #8
005BFE6A  F85F 75CC		ldr r7, [pc, #-1484] ; 0xC
005BFE6E  59F7     		ldr r7, [r6, +r7]
005BFE70  4638     		mov r0, r7
005BFE72  F85F 75A4		ldr r7, [pc, #-1444] ; 0x84
005BFE76  59F1     		ldr r1, [r6, +r7]
005BFE78  F85F 758C		ldr r7, [pc, #-1420] ; 0xE4
005BFE7C  59F2     		ldr r2, [r6, +r7]
005BFE7E  2332     		mov r3, #50 ; 50
005BFE80  F8DF 72F8		ldr r7, [pc, #+760] ; 0xA8
005BFE84  59F7     		ldr r7, [r6, +r7]
005BFE86  F8CD 7000		str r7, [sp]
005BFE8A  F8DF 4308		ldr r4, [pc, #+776] ; 0x4A13A9
005BFE8E  F044 0401		orr r4, r4, #1
005BFE92  47A0     		blx r4
005BFE94  B002     		add sp, sp, #8

005BFE96  F85F 75E0		ldr r7, [pc, #-1504] ; 0x34
005BFE9A  51F0     		str r0, [r6, +r7]

005BFE9C  F85F 0E3C		ldr r0, [pc, #-3644] ; 0x5BA2B0

005BFEA0  F85F 75B4		ldr r7, [pc, #-1460] ; 0xE4
005BFEA4  51F0     		str r0, [r6, +r7]

005BFEA6  B082     		sub sp, sp, #8
005BFEA8  F85F 760C		ldr r7, [pc, #-1548] ; 0xC
005BFEAC  59F7     		ldr r7, [r6, +r7]
005BFEAE  4638     		mov r0, r7
005BFEB0  F85F 75E4		ldr r7, [pc, #-1508] ; 0x84
005BFEB4  59F1     		ldr r1, [r6, +r7]
005BFEB6  F85F 75C8		ldr r7, [pc, #-1480] ; 0xE4
005BFEBA  59F2     		ldr r2, [r6, +r7]
005BFEBC  2332     		mov r3, #50 ; 50
005BFEBE  F8DF 72C0		ldr r7, [pc, #+704] ; 0xAC
005BFEC2  59F7     		ldr r7, [r6, +r7]
005BFEC4  F8CD 7000		str r7, [sp]
005BFEC8  F8DF 42C8		ldr r4, [pc, #+712] ; 0x4A13A9
005BFECC  F044 0401		orr r4, r4, #1
005BFED0  47A0     		blx r4
005BFED2  B002     		add sp, sp, #8

005BFED4  F85F 7620		ldr r7, [pc, #-1568] ; 0x34
005BFED8  51F0     		str r0, [r6, +r7]

005BFEDA  F85F 05BC		ldr r0, [pc, #-1468] ; 0x5BA2E4

005BFEDE  F85F 75F0		ldr r7, [pc, #-1520] ; 0xE4
005BFEE2  51F0     		str r0, [r6, +r7]

005BFEE4  B082     		sub sp, sp, #8
005BFEE6  2001     		mov r0, #1 ; 1
005BFEE8  2700     		mov r7, #0 ; 0
005BFEEA  4639     		mov r1, r7
005BFEEC  2701     		mov r7, #1 ; 1
005BFEEE  463A     		mov r2, r7
005BFEF0  F85F 7604		ldr r7, [pc, #-1540] ; 0xE4
005BFEF4  59F3     		ldr r3, [r6, +r7]
005BFEF6  F85F 7658		ldr r7, [pc, #-1624] ; 0xC
005BFEFA  59F7     		ldr r7, [r6, +r7]
005BFEFC  F8CD 7000		str r7, [sp]
005BFF00  F85F 4600		ldr r4, [pc, #-1536] ; 0x4A17A9
005BFF04  F044 0401		orr r4, r4, #1
005BFF08  47A0     		blx r4
005BFF0A  B002     		add sp, sp, #8

005BFF0C  F85F 7658		ldr r7, [pc, #-1624] ; 0x34
005BFF10  51F0     		str r0, [r6, +r7]

005BFF12  F000 BFCE		b #3996 ; 0x005C0EB2


005BFF16  B082     		sub sp, sp, #8
005BFF18  F85F 7654		ldr r7, [pc, #-1620] ; 0x7C
005BFF1C  59F7     		ldr r7, [r6, +r7]
005BFF1E  F8CD 7000		str r7, [sp]
005BFF22  F8DF 4298		ldr r4, [pc, #+664] ; 0x5BA4E8
005BFF26  F044 0401		orr r4, r4, #1
005BFF2A  47A0     		blx r4
005BFF2C  B002     		add sp, sp, #8

005BFF2E  2706     		mov r7, #6 ; 6
005BFF30  4038     		and r0, r0, r7

005BFF32  2800     		cmp r0, #0
005BFF34  BF08 2000		eqmov r0, #0
005BFF38  BF18 2001		nemov r0, #1

005BFF3C  2800     		cmp r0, #0
005BFF3E  D004     		beq #8 ; 0x005BFF4A


005BFF42  2001     		mov r0, #1 ; 1
005BFF44  F8DF 7224		ldr r7, [pc, #+548] ; 0x40
005BFF48  55F0     		strb r0, [r6, +r7]

005BFF4A  F85F 4644		ldr r4, [pc, #-1604] ; 0x4A1DED
005BFF4E  F044 0401		orr r4, r4, #1
005BFF52  47A0     		blx r4

005BFF54  F85F 76AC		ldr r7, [pc, #-1708] ; 0x20
005BFF58  51F0     		str r0, [r6, +r7]

005BFF5A  F85F 7F34		ldr r7, [pc, #-3892] ; 0x11
005BFF5E  5DF0     		ldrb r0, [r6, +r7]

005BFF60  1C40     		add r0, r0, #1

005BFF62  F85F 76C0		ldr r7, [pc, #-1728] ; 0x10
005BFF66  55F0     		strb r0, [r6, +r7]

005BFF68  20DC     		mov r0, #220 ; 220
005BFF6A  F85F 7F44		ldr r7, [pc, #-3908] ; 0x11
005BFF6E  55F0     		strb r0, [r6, +r7]

005BFF70  F000 BF9F		b #3902 ; 0x005C0EB2


005BFF74  B082     		sub sp, sp, #8
005BFF76  F85F 76B0		ldr r7, [pc, #-1712] ; 0x7C
005BFF7A  59F7     		ldr r7, [r6, +r7]
005BFF7C  F8CD 7000		str r7, [sp]
005BFF80  F8DF 4238		ldr r4, [pc, #+568] ; 0x5BA4E8
005BFF84  F044 0401		orr r4, r4, #1
005BFF88  47A0     		blx r4
005BFF8A  B002     		add sp, sp, #8

005BFF8C  2706     		mov r7, #6 ; 6
005BFF8E  4038     		and r0, r0, r7

005BFF90  2800     		cmp r0, #0
005BFF92  BF18 2000		nemov r0, #0
005BFF96  BF08 2001		eqmov r0, #1

005BFF9A  2800     		cmp r0, #0
005BFF9C  D037     		beq #110 ; 0x005C000E


005BFFA0  2001     		mov r0, #1 ; 1
005BFFA2  F8DF 71E4		ldr r7, [pc, #+484] ; 0xC7
005BFFA6  55F0     		strb r0, [r6, +r7]

005BFFA8  2000     		mov r0, #0 ; 0
005BFFAA  F85F 7F84		ldr r7, [pc, #-3972] ; 0x11
005BFFAE  55F0     		strb r0, [r6, +r7]

005BFFB0  F85F 7714		ldr r7, [pc, #-1812] ; 0xC
005BFFB4  59F0     		ldr r0, [r6, +r7]

005BFFB6  2700     		mov r7, #0 ; 0
005BFFB8  42B8     		cmp r0, r7
005BFFBA  BF08 2000		eqmov r0, #0
005BFFBE  BF18 2001		nemov r0, #1

005BFFC2  2800     		cmp r0, #0
005BFFC4  D021     		beq #66 ; 0x005C000A


005BFFC8  F85F 06AC		ldr r0, [pc, #-1708] ; 0x5BA2E4

005BFFCC  F85F 76E0		ldr r7, [pc, #-1760] ; 0xE4
005BFFD0  51F0     		str r0, [r6, +r7]

005BFFD2  F8DF 01E0		ldr r0, [pc, #+480] ; 0x5BA380

005BFFD6  F8DF 71B4		ldr r7, [pc, #+436] ; 0xF8
005BFFDA  51F0     		str r0, [r6, +r7]

005BFFDC  B082     		sub sp, sp, #8
005BFFDE  2001     		mov r0, #1 ; 1
005BFFE0  2700     		mov r7, #0 ; 0
005BFFE2  4639     		mov r1, r7
005BFFE4  2701     		mov r7, #1 ; 1
005BFFE6  463A     		mov r2, r7
005BFFE8  F85F 76FC		ldr r7, [pc, #-1788] ; 0xE4
005BFFEC  59F3     		ldr r3, [r6, +r7]
005BFFEE  F8DF 719C		ldr r7, [pc, #+412] ; 0xF8
005BFFF2  59F7     		ldr r7, [r6, +r7]
005BFFF4  F8CD 7000		str r7, [sp]
005BFFF8  F85F 46F8		ldr r4, [pc, #-1784] ; 0x4A17A9
005BFFFC  F044 0401		orr r4, r4, #1
005C0000  47A0     		blx r4
005C0002  B002     		add sp, sp, #8

005C0004  F85F 7750		ldr r7, [pc, #-1872] ; 0x34
005C0008  51F0     		str r0, [r6, +r7]

005C000A  F000 BF54		b #3752 ; 0x005C0EB6


005C000E  F85F 7FE8		ldr r7, [pc, #-4072] ; 0x11
005C0012  5DF0     		ldrb r0, [r6, +r7]

005C0014  1C40     		add r0, r0, #1

005C0016  F85F 7FF0		ldr r7, [pc, #-4080] ; 0x11
005C001A  55F0     		strb r0, [r6, +r7]

005C001C  F000 BF49		b #3730 ; 0x005C0EB2


005C0020  F85F 471C		ldr r4, [pc, #-1820] ; 0x4A1DED
005C0024  F044 0401		orr r4, r4, #1
005C0028  47A0     		blx r4

005C002A  F85F 7780		ldr r7, [pc, #-1920] ; 0x20
005C002E  59F7     		ldr r7, [r6, +r7]
005C0030  1BC0     		sub r0, r0, r7

005C0032  B082     		sub sp, sp, #8
005C0034  F8CD 0000		str r0, [sp]
005C0038  2000     		mov r0, #0 ; 0

005C003A  F85F 7740		ldr r7, [pc, #-1856] ; 0xBB8
005C003E  4638     		mov r0, r7

005C0040  4607     		mov r7, r0
005C0042  F8DD 0000		ldr r0, [sp]
005C0046  B002     		add sp, sp, #8
005C0048  42B8     		cmp r0, r7
005C004A  BF98 2000		lsmov r0, #0
005C004E  BF88 2001		himov r0, #1

005C0052  2800     		cmp r0, #0
005C0054  D008     		beq #16 ; 0x005C0068


005C0058  F8DF 7174		ldr r7, [pc, #+372] ; 0x999D80
005C005C  4638     		mov r0, r7
005C005E  F85F 77B0		ldr r7, [pc, #-1968] ; 0x28
005C0062  51F0     		str r0, [r6, +r7]

005C0064  F000 BF27		b #3662 ; 0x005C0EB6


005C0068  F8DF 7100		ldr r7, [pc, #+256] ; 0x40
005C006C  5DF0     		ldrb r0, [r6, +r7]

005C006E  2800     		cmp r0, #0
005C0070  D002     		beq #4 ; 0x005C0078


005C0074  F000 BF1F		b #3646 ; 0x005C0EB6


005C0078  F85F 4774		ldr r4, [pc, #-1908] ; 0x4A1DED
005C007C  F044 0401		orr r4, r4, #1
005C0080  47A0     		blx r4

005C0082  F85F 77D8		ldr r7, [pc, #-2008] ; 0x20
005C0086  59F7     		ldr r7, [r6, +r7]
005C0088  1BC0     		sub r0, r0, r7

005C008A  F85F 4778		ldr r4, [pc, #-1912] ; 0x4B946D
005C008E  F044 0401		orr r4, r4, #1
005C0092  47A0     		blx r4

005C0094  F85F 7770		ldr r7, [pc, #-1904] ; 0x5BA2FC
005C0098  683F     		ldr r7, [r7]
005C009A  B082     		sub sp, sp, #8
005C009C  F8CD 1000		str r1, [sp]
005C00A0  4639     		mov r1, r7
005C00A2  F85F 478C		ldr r4, [pc, #-1932] ; 0x4B950B
005C00A6  F044 0401		orr r4, r4, #1
005C00AA  47A0     		blx r4
005C00AC  F8DD 1000		ldr r1, [sp]
005C00B0  B002     		add sp, sp, #8

005C00B2  F85F 77CC		ldr r7, [pc, #-1996] ; 0xD0
005C00B6  51F0     		str r0, [r6, +r7]

005C00B8  2001     		mov r0, #1 ; 1
005C00BA  F8DF 70CC		ldr r7, [pc, #+204] ; 0xC7
005C00BE  55F0     		strb r0, [r6, +r7]

005C00C0  2000     		mov r0, #0 ; 0
005C00C2  F8DF 709C		ldr r7, [pc, #+156] ; 0x11
005C00C6  55F0     		strb r0, [r6, +r7]

005C00C8  F85F 782C		ldr r7, [pc, #-2092] ; 0xC
005C00CC  59F0     		ldr r0, [r6, +r7]

005C00CE  2700     		mov r7, #0 ; 0
005C00D0  42B8     		cmp r0, r7
005C00D2  BF08 2000		eqmov r0, #0
005C00D6  BF18 2001		nemov r0, #1

005C00DA  2800     		cmp r0, #0
005C00DC  D07D     		beq #250 ; 0x005C01DA


005C00E0  F8DF 00D4		ldr r0, [pc, #+212] ; 0x5BA394

005C00E4  F85F 77F8		ldr r7, [pc, #-2040] ; 0xE4
005C00E8  51F0     		str r0, [r6, +r7]

005C00EA  F85F 7804		ldr r7, [pc, #-2052] ; 0xD0
005C00EE  19F0     		add r0, r6, r7

005C00F0  F85F 77FC		ldr r7, [pc, #-2044] ; 0x118
005C00F4  51F0     		str r0, [r6, +r7]

005C00F6  B082     		sub sp, sp, #8
005C00F8  F85F 785C		ldr r7, [pc, #-2140] ; 0xC
005C00FC  59F7     		ldr r7, [r6, +r7]
005C00FE  4638     		mov r0, r7
005C0100  F85F 7834		ldr r7, [pc, #-2100] ; 0x84
005C0104  59F1     		ldr r1, [r6, +r7]
005C0106  F85F 7818		ldr r7, [pc, #-2072] ; 0xE4
005C010A  59F2     		ldr r2, [r6, +r7]
005C010C  232B     		mov r3, #43 ; 43
005C010E  F85F 7818		ldr r7, [pc, #-2072] ; 0x118
005C0112  59F7     		ldr r7, [r6, +r7]
005C0114  F8CD 7000		str r7, [sp]
005C0118  F85F 481C		ldr r4, [pc, #-2076] ; 0x4A1321
005C011C  F044 0401		orr r4, r4, #1
005C0120  47A0     		blx r4
005C0122  B002     		add sp, sp, #8

005C0124  F85F 7870		ldr r7, [pc, #-2160] ; 0x34
005C0128  51F0     		str r0, [r6, +r7]

005C012A  F85F 080C		ldr r0, [pc, #-2060] ; 0x5BA2E4

005C012E  F85F 7840		ldr r7, [pc, #-2112] ; 0xE4
005C0132  51F0     		str r0, [r6, +r7]

005C0134  B082     		sub sp, sp, #8
005C0136  2001     		mov r0, #1 ; 1
005C0138  2700     		mov r7, #0 ; 0
005C013A  4639     		mov r1, r7
005C013C  2701     		mov r7, #1 ; 1
005C013E  463A     		mov r2, r7
005C0140  F85F 7854		ldr r7, [pc, #-2132] ; 0xE4
005C0144  59F3     		ldr r3, [r6, +r7]
005C0146  F85F 78A8		ldr r7, [pc, #-2216] ; 0xC
005C014A  59F7     		ldr r7, [r6, +r7]
005C014C  F8CD 7000		str r7, [sp]
005C0150  F85F 4850		ldr r4, [pc, #-2128] ; 0x4A17A9
005C0154  F044 0401		orr r4, r4, #1
005C0158  47A0     		blx r4
005C015A  B002     		add sp, sp, #8

005C015C  E03A     		b #116

005C0160  00000011		; 0x00000011
005C0164  00000030		; 0x00000030
005C0168  00000039		; 0x00000039
005C016C  00000040		; 0x00000040
005C0170  00000052		; 0x00000052
005C0174  000000A0		; 0x000000A0
005C0178  000000A4		; 0x000000A4
005C017C  000000A8		; 0x000000A8
005C0180  000000AC		; 0x000000AC
005C0184  000000B0		; 0x000000B0
005C0188  000000C7		; 0x000000C7
005C018C  000000F8		; 0x000000F8
005C0190  00000100		; 0x00000100
005C0194  004A13A9		; 0x004A13A9
005C0198  004A232D		; 0x004A232D
005C019C  004A2421		; 0x004A2421
005C01A0  005BA324		; 0x005BA324
005C01A4  005BA338		; 0x005BA338
005C01A8  005BA35C		; 0x005BA35C
005C01AC  005BA360		; 0x005BA360
005C01B0  005BA364		; 0x005BA364
005C01B4  005BA380		; 0x005BA380
005C01B8  005BA394		; 0x005BA394
005C01BC  005BA4E8		; 0x005BA4E8
005C01C0  00999D6E		; 0x00999D6E
005C01C4  00999D78		; 0x00999D78
005C01C8  00999D79		; 0x00999D79
005C01CC  00999D7D		; 0x00999D7D
005C01D0  00999D80		; 0x00999D80

005C01D4  F85F 7920		ldr r7, [pc, #-2336] ; 0x34
005C01D8  51F0     		str r0, [r6, +r7]

005C01DA  F000 BE6A		b #3284 ; 0x005C0EB2


005C01DE  2000     		mov r0, #0 ; 0
005C01E0  F85F 794C		ldr r7, [pc, #-2380] ; 0x3
005C01E4  55F0     		strb r0, [r6, +r7]

005C01E6  B082     		sub sp, sp, #8
005C01E8  F85F 7924		ldr r7, [pc, #-2340] ; 0x7C
005C01EC  59F7     		ldr r7, [r6, +r7]
005C01EE  F8CD 7000		str r7, [sp]
005C01F2  2782     		mov r7, #130 ; 130
005C01F4  F8CD 7004		str r7, [sp, #+4]
005C01F8  F85F 48CC		ldr r4, [pc, #-2252] ; 0x5BA53C
005C01FC  F044 0401		orr r4, r4, #1
005C0200  47A0     		blx r4
005C0202  B002     		add sp, sp, #8

005C0204  F85F 7950		ldr r7, [pc, #-2384] ; 0x34
005C0208  51F0     		str r0, [r6, +r7]

005C020A  F85F 7944		ldr r7, [pc, #-2372] ; 0x7C
005C020E  59F0     		ldr r0, [r6, +r7]

005C0210  1C40     		add r0, r0, #1

005C0212  F85F 7920		ldr r7, [pc, #-2336] ; 0xF4
005C0216  51F0     		str r0, [r6, +r7]

005C0218  F8DF 77E8		ldr r7, [pc, #+2024] ; 0x66
005C021C  19F0     		add r0, r6, r7

005C021E  F85F 7090		ldr r7, [pc, #-144] ; 0x100
005C0222  51F0     		str r0, [r6, +r7]

005C0224  B084     		sub sp, sp, #16
005C0226  2701     		mov r7, #1 ; 1
005C0228  F8CD 7000		str r7, [sp]
005C022C  271E     		mov r7, #30 ; 30
005C022E  F8CD 7004		str r7, [sp, #+4]
005C0232  F85F 7940		ldr r7, [pc, #-2368] ; 0xF4
005C0236  59F7     		ldr r7, [r6, +r7]
005C0238  F8CD 7008		str r7, [sp, #+8]
005C023C  F85F 70B0		ldr r7, [pc, #-176] ; 0x100
005C0240  59F7     		ldr r7, [r6, +r7]
005C0242  F8CD 700C		str r7, [sp, #+12]
005C0246  F8DF 47F0		ldr r4, [pc, #+2032] ; 0x5BA910
005C024A  F044 0401		orr r4, r4, #1
005C024E  47A0     		blx r4
005C0250  B004     		add sp, sp, #16

005C0252  F85F 799C		ldr r7, [pc, #-2460] ; 0x34
005C0256  51F0     		str r0, [r6, +r7]

005C0258  2003     		mov r0, #3 ; 3
005C025A  F85F 79C0		ldr r7, [pc, #-2496] ; 0x8
005C025E  51F0     		str r0, [r6, +r7]

005C0260  F85F 79C4		ldr r7, [pc, #-2500] ; 0xC
005C0264  59F0     		ldr r0, [r6, +r7]

005C0266  2700     		mov r7, #0 ; 0
005C0268  42B8     		cmp r0, r7
005C026A  BF08 2000		eqmov r0, #0
005C026E  BF18 2001		nemov r0, #1

005C0272  2800     		cmp r0, #0
005C0274  D060     		beq #192 ; 0x005C0338


005C0278  F8DF 07A8		ldr r0, [pc, #+1960] ; 0x5BA3B8

005C027C  F85F 7990		ldr r7, [pc, #-2448] ; 0xE4
005C0280  51F0     		str r0, [r6, +r7]

005C0282  F8DF 7780		ldr r7, [pc, #+1920] ; 0x66
005C0286  19F0     		add r0, r6, r7

005C0288  F85F 70FC		ldr r7, [pc, #-252] ; 0x100
005C028C  51F0     		str r0, [r6, +r7]

005C028E  B082     		sub sp, sp, #8
005C0290  F85F 79F4		ldr r7, [pc, #-2548] ; 0xC
005C0294  59F7     		ldr r7, [r6, +r7]
005C0296  4638     		mov r0, r7
005C0298  F85F 79CC		ldr r7, [pc, #-2508] ; 0x84
005C029C  59F1     		ldr r1, [r6, +r7]
005C029E  F85F 79B0		ldr r7, [pc, #-2480] ; 0xE4
005C02A2  59F2     		ldr r2, [r6, +r7]
005C02A4  2320     		mov r3, #32 ; 32
005C02A6  F85F 7118		ldr r7, [pc, #-280] ; 0x100
005C02AA  59F7     		ldr r7, [r6, +r7]
005C02AC  F8CD 7000		str r7, [sp]
005C02B0  F85F 49B4		ldr r4, [pc, #-2484] ; 0x4A1321
005C02B4  F044 0401		orr r4, r4, #1
005C02B8  47A0     		blx r4
005C02BA  B002     		add sp, sp, #8

005C02BC  F85F 7A08		ldr r7, [pc, #-2568] ; 0x34
005C02C0  51F0     		str r0, [r6, +r7]

005C02C2  F8DF 075C		ldr r0, [pc, #+1884] ; 0x5BA2A4

005C02C6  F85F 79D8		ldr r7, [pc, #-2520] ; 0xE4
005C02CA  51F0     		str r0, [r6, +r7]

005C02CC  B082     		sub sp, sp, #8
005C02CE  F85F 7A30		ldr r7, [pc, #-2608] ; 0xC
005C02D2  59F7     		ldr r7, [r6, +r7]
005C02D4  4638     		mov r0, r7
005C02D6  F85F 7A08		ldr r7, [pc, #-2568] ; 0x84
005C02DA  59F1     		ldr r1, [r6, +r7]
005C02DC  F85F 79F0		ldr r7, [pc, #-2544] ; 0xE4
005C02E0  59F2     		ldr r2, [r6, +r7]
005C02E2  2332     		mov r3, #50 ; 50
005C02E4  F85F 716C		ldr r7, [pc, #-364] ; 0xA8
005C02E8  59F7     		ldr r7, [r6, +r7]
005C02EA  F8CD 7000		str r7, [sp]
005C02EE  F85F 415C		ldr r4, [pc, #-348] ; 0x4A13A9
005C02F2  F044 0401		orr r4, r4, #1
005C02F6  47A0     		blx r4
005C02F8  B002     		add sp, sp, #8

005C02FA  F85F 7A44		ldr r7, [pc, #-2628] ; 0x34
005C02FE  51F0     		str r0, [r6, +r7]

005C0300  F85F 09E4		ldr r0, [pc, #-2532] ; 0x5BA2E4

005C0304  F85F 7A18		ldr r7, [pc, #-2584] ; 0xE4
005C0308  51F0     		str r0, [r6, +r7]

005C030A  B082     		sub sp, sp, #8
005C030C  2001     		mov r0, #1 ; 1
005C030E  2700     		mov r7, #0 ; 0
005C0310  4639     		mov r1, r7
005C0312  2701     		mov r7, #1 ; 1
005C0314  463A     		mov r2, r7
005C0316  F85F 7A28		ldr r7, [pc, #-2600] ; 0xE4
005C031A  59F3     		ldr r3, [r6, +r7]
005C031C  F85F 7A80		ldr r7, [pc, #-2688] ; 0xC
005C0320  59F7     		ldr r7, [r6, +r7]
005C0322  F8CD 7000		str r7, [sp]
005C0326  F85F 4A24		ldr r4, [pc, #-2596] ; 0x4A17A9
005C032A  F044 0401		orr r4, r4, #1
005C032E  47A0     		blx r4
005C0330  B002     		add sp, sp, #8

005C0332  F85F 7A7C		ldr r7, [pc, #-2684] ; 0x34
005C0336  51F0     		str r0, [r6, +r7]

005C0338  F85F 71C0		ldr r7, [pc, #-448] ; 0xA8
005C033C  59F0     		ldr r0, [r6, +r7]
005C033E  F85F 7A74		ldr r7, [pc, #-2676] ; 0x80
005C0342  51F0     		str r0, [r6, +r7]

005C0344  F85F 71E8		ldr r7, [pc, #-488] ; 0x11
005C0348  5DF0     		ldrb r0, [r6, +r7]

005C034A  1C40     		add r0, r0, #1

005C034C  F85F 7AAC		ldr r7, [pc, #-2732] ; 0x10
005C0350  55F0     		strb r0, [r6, +r7]

005C0352  20C8     		mov r0, #200 ; 200
005C0354  F85F 71F8		ldr r7, [pc, #-504] ; 0x11
005C0358  55F0     		strb r0, [r6, +r7]

005C035A  F000 BDAA		b #2900 ; 0x005C0EB2


005C035E  F85F 7A98		ldr r7, [pc, #-2712] ; 0x7C
005C0362  59F0     		ldr r0, [r6, +r7]

005C0364  F85F 7ACC		ldr r7, [pc, #-2764] ; 0x8
005C0368  59F7     		ldr r7, [r6, +r7]
005C036A  19C0     		add r0, r0, r7

005C036C  B082     		sub sp, sp, #8
005C036E  4607     		mov r7, r0
005C0370  F8CD 7000		str r7, [sp]
005C0374  F85F 7200		ldr r7, [pc, #-512] ; 0xA4
005C0378  5DF7     		ldrb r7, [r6, +r7]
005C037A  F8CD 7004		str r7, [sp, #+4]
005C037E  F85F 4A50		ldr r4, [pc, #-2640] ; 0x5BA53C
005C0382  F044 0401		orr r4, r4, #1
005C0386  47A0     		blx r4
005C0388  B002     		add sp, sp, #8

005C038A  F85F 7AD4		ldr r7, [pc, #-2772] ; 0x34
005C038E  51F0     		str r0, [r6, +r7]

005C0390  F85F 7AF8		ldr r7, [pc, #-2808] ; 0x8
005C0394  59F0     		ldr r0, [r6, +r7]

005C0396  1C40     		add r0, r0, #1

005C0398  F85F 7B00		ldr r7, [pc, #-2816] ; 0x8
005C039C  51F0     		str r0, [r6, +r7]

005C039E  F85F 7240		ldr r7, [pc, #-576] ; 0x11
005C03A2  5DF0     		ldrb r0, [r6, +r7]

005C03A4  1C40     		add r0, r0, #1

005C03A6  F85F 7B04		ldr r7, [pc, #-2820] ; 0x10
005C03AA  55F0     		strb r0, [r6, +r7]

005C03AC  20D2     		mov r0, #210 ; 210
005C03AE  F85F 7250		ldr r7, [pc, #-592] ; 0x11
005C03B2  55F0     		strb r0, [r6, +r7]

005C03B4  F000 BD7D		b #2810 ; 0x005C0EB2


005C03B8  2001     		mov r0, #1 ; 1
005C03BA  F8DF 7644		ldr r7, [pc, #+1604] ; 0x64
005C03BE  55F0     		strb r0, [r6, +r7]

005C03C0  F85F 4ABC		ldr r4, [pc, #-2748] ; 0x4A1DED
005C03C4  F044 0401		orr r4, r4, #1
005C03C8  47A0     		blx r4

005C03CA  F85F 7B20		ldr r7, [pc, #-2848] ; 0x20
005C03CE  51F0     		str r0, [r6, +r7]

005C03D0  F85F 7274		ldr r7, [pc, #-628] ; 0x11
005C03D4  5DF0     		ldrb r0, [r6, +r7]

005C03D6  1C40     		add r0, r0, #1

005C03D8  F85F 7B38		ldr r7, [pc, #-2872] ; 0x10
005C03DC  55F0     		strb r0, [r6, +r7]

005C03DE  20DC     		mov r0, #220 ; 220
005C03E0  F85F 7284		ldr r7, [pc, #-644] ; 0x11
005C03E4  55F0     		strb r0, [r6, +r7]

005C03E6  F000 BD64		b #2760 ; 0x005C0EB2


005C03EA  F85F 4AE4		ldr r4, [pc, #-2788] ; 0x4A1DED
005C03EE  F044 0401		orr r4, r4, #1
005C03F2  47A0     		blx r4

005C03F4  F85F 7B4C		ldr r7, [pc, #-2892] ; 0x20
005C03F8  59F7     		ldr r7, [r6, +r7]
005C03FA  1BC0     		sub r0, r0, r7

005C03FC  B082     		sub sp, sp, #8
005C03FE  F8CD 0000		str r0, [sp]
005C0402  2000     		mov r0, #0 ; 0

005C0404  F85F 7B0C		ldr r7, [pc, #-2828] ; 0xBB8
005C0408  4638     		mov r0, r7

005C040A  4607     		mov r7, r0
005C040C  F8DD 0000		ldr r0, [sp]
005C0410  B002     		add sp, sp, #8
005C0412  42B8     		cmp r0, r7
005C0414  BF98 2000		lsmov r0, #0
005C0418  BF88 2001		himov r0, #1

005C041C  2800     		cmp r0, #0
005C041E  D008     		beq #16 ; 0x005C0432


005C0422  F8DF 7618		ldr r7, [pc, #+1560] ; 0x999D82
005C0426  4638     		mov r0, r7
005C0428  F85F 7B7C		ldr r7, [pc, #-2940] ; 0x28
005C042C  51F0     		str r0, [r6, +r7]

005C042E  F000 BD42		b #2692 ; 0x005C0EB6


005C0432  F8DF 75CC		ldr r7, [pc, #+1484] ; 0x64
005C0436  5DF0     		ldrb r0, [r6, +r7]

005C0438  2800     		cmp r0, #0
005C043A  D002     		beq #4 ; 0x005C0442


005C043E  F000 BD3A		b #2676 ; 0x005C0EB6


005C0442  F85F 4B3C		ldr r4, [pc, #-2876] ; 0x4A1DED
005C0446  F044 0401		orr r4, r4, #1
005C044A  47A0     		blx r4

005C044C  F85F 7BA4		ldr r7, [pc, #-2980] ; 0x20
005C0450  59F7     		ldr r7, [r6, +r7]
005C0452  1BC0     		sub r0, r0, r7

005C0454  F85F 4B44		ldr r4, [pc, #-2884] ; 0x4B946D
005C0458  F044 0401		orr r4, r4, #1
005C045C  47A0     		blx r4

005C045E  F85F 7B38		ldr r7, [pc, #-2872] ; 0x5BA2FC
005C0462  683F     		ldr r7, [r7]
005C0464  B082     		sub sp, sp, #8
005C0466  F8CD 1000		str r1, [sp]
005C046A  4639     		mov r1, r7
005C046C  F85F 4B58		ldr r4, [pc, #-2904] ; 0x4B950B
005C0470  F044 0401		orr r4, r4, #1
005C0474  47A0     		blx r4
005C0476  F8DD 1000		ldr r1, [sp]
005C047A  B002     		add sp, sp, #8

005C047C  F85F 7B98		ldr r7, [pc, #-2968] ; 0xD0
005C0480  51F0     		str r0, [r6, +r7]

005C0482  2001     		mov r0, #1 ; 1
005C0484  F8DF 7584		ldr r7, [pc, #+1412] ; 0xC8
005C0488  55F0     		strb r0, [r6, +r7]

005C048A  2000     		mov r0, #0 ; 0
005C048C  F85F 7330		ldr r7, [pc, #-816] ; 0x11
005C0490  55F0     		strb r0, [r6, +r7]

005C0492  F85F 7BF4		ldr r7, [pc, #-3060] ; 0xC
005C0496  59F0     		ldr r0, [r6, +r7]

005C0498  2700     		mov r7, #0 ; 0
005C049A  42B8     		cmp r0, r7
005C049C  BF08 2000		eqmov r0, #0
005C04A0  BF18 2001		nemov r0, #1

005C04A4  2800     		cmp r0, #0
005C04A6  D041     		beq #130 ; 0x005C052C


005C04AA  F8DF 057C		ldr r0, [pc, #+1404] ; 0x5BA3D8

005C04AE  F85F 7BC0		ldr r7, [pc, #-3008] ; 0xE4
005C04B2  51F0     		str r0, [r6, +r7]

005C04B4  F85F 7BD0		ldr r7, [pc, #-3024] ; 0xD0
005C04B8  19F0     		add r0, r6, r7

005C04BA  F85F 7BC4		ldr r7, [pc, #-3012] ; 0x118
005C04BE  51F0     		str r0, [r6, +r7]

005C04C0  B082     		sub sp, sp, #8
005C04C2  F85F 7C24		ldr r7, [pc, #-3108] ; 0xC
005C04C6  59F7     		ldr r7, [r6, +r7]
005C04C8  4638     		mov r0, r7
005C04CA  F85F 7BFC		ldr r7, [pc, #-3068] ; 0x84
005C04CE  59F1     		ldr r1, [r6, +r7]
005C04D0  F85F 7BE4		ldr r7, [pc, #-3044] ; 0xE4
005C04D4  59F2     		ldr r2, [r6, +r7]
005C04D6  232B     		mov r3, #43 ; 43
005C04D8  F85F 7BE4		ldr r7, [pc, #-3044] ; 0x118
005C04DC  59F7     		ldr r7, [r6, +r7]
005C04DE  F8CD 7000		str r7, [sp]
005C04E2  F85F 4BE4		ldr r4, [pc, #-3044] ; 0x4A1321
005C04E6  F044 0401		orr r4, r4, #1
005C04EA  47A0     		blx r4
005C04EC  B002     		add sp, sp, #8

005C04EE  F85F 7C38		ldr r7, [pc, #-3128] ; 0x34
005C04F2  51F0     		str r0, [r6, +r7]

005C04F4  F85F 0BD8		ldr r0, [pc, #-3032] ; 0x5BA2E4

005C04F8  F85F 7C0C		ldr r7, [pc, #-3084] ; 0xE4
005C04FC  51F0     		str r0, [r6, +r7]

005C04FE  B082     		sub sp, sp, #8
005C0500  2001     		mov r0, #1 ; 1
005C0502  2700     		mov r7, #0 ; 0
005C0504  4639     		mov r1, r7
005C0506  2701     		mov r7, #1 ; 1
005C0508  463A     		mov r2, r7
005C050A  F85F 7C1C		ldr r7, [pc, #-3100] ; 0xE4
005C050E  59F3     		ldr r3, [r6, +r7]
005C0510  F85F 7C74		ldr r7, [pc, #-3188] ; 0xC
005C0514  59F7     		ldr r7, [r6, +r7]
005C0516  F8CD 7000		str r7, [sp]
005C051A  F85F 4C18		ldr r4, [pc, #-3096] ; 0x4A17A9
005C051E  F044 0401		orr r4, r4, #1
005C0522  47A0     		blx r4
005C0524  B002     		add sp, sp, #8

005C0526  F85F 7C70		ldr r7, [pc, #-3184] ; 0x34
005C052A  51F0     		str r0, [r6, +r7]

005C052C  F000 BCC1		b #2434 ; 0x005C0EB2


005C0530  F85F 7C94		ldr r7, [pc, #-3220] ; 0xC
005C0534  59F0     		ldr r0, [r6, +r7]

005C0536  2700     		mov r7, #0 ; 0
005C0538  42B8     		cmp r0, r7
005C053A  BF08 2000		eqmov r0, #0
005C053E  BF18 2001		nemov r0, #1

005C0542  2800     		cmp r0, #0
005C0544  D060     		beq #192 ; 0x005C0608


005C0548  F8DF 04E0		ldr r0, [pc, #+1248] ; 0x5BA3FC

005C054C  F85F 7C60		ldr r7, [pc, #-3168] ; 0xE4
005C0550  51F0     		str r0, [r6, +r7]

005C0552  F8DF 749C		ldr r7, [pc, #+1180] ; 0x42
005C0556  19F0     		add r0, r6, r7

005C0558  F85F 73CC		ldr r7, [pc, #-972] ; 0x100
005C055C  51F0     		str r0, [r6, +r7]

005C055E  B082     		sub sp, sp, #8
005C0560  F85F 7CC4		ldr r7, [pc, #-3268] ; 0xC
005C0564  59F7     		ldr r7, [r6, +r7]
005C0566  4638     		mov r0, r7
005C0568  F85F 7C9C		ldr r7, [pc, #-3228] ; 0x84
005C056C  59F1     		ldr r1, [r6, +r7]
005C056E  F85F 7C80		ldr r7, [pc, #-3200] ; 0xE4
005C0572  59F2     		ldr r2, [r6, +r7]
005C0574  2320     		mov r3, #32 ; 32
005C0576  F85F 73E8		ldr r7, [pc, #-1000] ; 0x100
005C057A  59F7     		ldr r7, [r6, +r7]
005C057C  F8CD 7000		str r7, [sp]
005C0580  F85F 4C84		ldr r4, [pc, #-3204] ; 0x4A1321
005C0584  F044 0401		orr r4, r4, #1
005C0588  47A0     		blx r4
005C058A  B002     		add sp, sp, #8

005C058C  F85F 7CD8		ldr r7, [pc, #-3288] ; 0x34
005C0590  51F0     		str r0, [r6, +r7]

005C0592  F8DF 048C		ldr r0, [pc, #+1164] ; 0x5BA2A4

005C0596  F85F 7CA8		ldr r7, [pc, #-3240] ; 0xE4
005C059A  51F0     		str r0, [r6, +r7]

005C059C  B082     		sub sp, sp, #8
005C059E  F85F 7D00		ldr r7, [pc, #-3328] ; 0xC
005C05A2  59F7     		ldr r7, [r6, +r7]
005C05A4  4638     		mov r0, r7
005C05A6  F85F 7CD8		ldr r7, [pc, #-3288] ; 0x84
005C05AA  59F1     		ldr r1, [r6, +r7]
005C05AC  F85F 7CC0		ldr r7, [pc, #-3264] ; 0xE4
005C05B0  59F2     		ldr r2, [r6, +r7]
005C05B2  2332     		mov r3, #50 ; 50
005C05B4  F85F 743C		ldr r7, [pc, #-1084] ; 0xA8
005C05B8  59F7     		ldr r7, [r6, +r7]
005C05BA  F8CD 7000		str r7, [sp]
005C05BE  F85F 442C		ldr r4, [pc, #-1068] ; 0x4A13A9
005C05C2  F044 0401		orr r4, r4, #1
005C05C6  47A0     		blx r4
005C05C8  B002     		add sp, sp, #8

005C05CA  F85F 7D14		ldr r7, [pc, #-3348] ; 0x34
005C05CE  51F0     		str r0, [r6, +r7]

005C05D0  F85F 0CB4		ldr r0, [pc, #-3252] ; 0x5BA2E4

005C05D4  F85F 7CE8		ldr r7, [pc, #-3304] ; 0xE4
005C05D8  51F0     		str r0, [r6, +r7]

005C05DA  B082     		sub sp, sp, #8
005C05DC  2001     		mov r0, #1 ; 1
005C05DE  2700     		mov r7, #0 ; 0
005C05E0  4639     		mov r1, r7
005C05E2  2701     		mov r7, #1 ; 1
005C05E4  463A     		mov r2, r7
005C05E6  F85F 7CF8		ldr r7, [pc, #-3320] ; 0xE4
005C05EA  59F3     		ldr r3, [r6, +r7]
005C05EC  F85F 7D50		ldr r7, [pc, #-3408] ; 0xC
005C05F0  59F7     		ldr r7, [r6, +r7]
005C05F2  F8CD 7000		str r7, [sp]
005C05F6  F85F 4CF4		ldr r4, [pc, #-3316] ; 0x4A17A9
005C05FA  F044 0401		orr r4, r4, #1
005C05FE  47A0     		blx r4
005C0600  B002     		add sp, sp, #8

005C0602  F85F 7D4C		ldr r7, [pc, #-3404] ; 0x34
005C0606  51F0     		str r0, [r6, +r7]

005C0608  B082     		sub sp, sp, #8
005C060A  F85F 7D44		ldr r7, [pc, #-3396] ; 0x7C
005C060E  59F7     		ldr r7, [r6, +r7]
005C0610  F8CD 7000		str r7, [sp]
005C0614  2740     		mov r7, #64 ; 64
005C0616  F8CD 7004		str r7, [sp, #+4]
005C061A  F85F 4CEC		ldr r4, [pc, #-3308] ; 0x5BA53C
005C061E  F044 0401		orr r4, r4, #1
005C0622  47A0     		blx r4
005C0624  B002     		add sp, sp, #8

005C0626  F85F 7D70		ldr r7, [pc, #-3440] ; 0x34
005C062A  51F0     		str r0, [r6, +r7]

005C062C  F85F 7D68		ldr r7, [pc, #-3432] ; 0x7C
005C0630  59F0     		ldr r0, [r6, +r7]

005C0632  1C40     		add r0, r0, #1

005C0634  B082     		sub sp, sp, #8
005C0636  4607     		mov r7, r0
005C0638  F8CD 7000		str r7, [sp]
005C063C  2702     		mov r7, #2 ; 2
005C063E  F8CD 7004		str r7, [sp, #+4]
005C0642  F85F 4D14		ldr r4, [pc, #-3348] ; 0x5BA53C
005C0646  F044 0401		orr r4, r4, #1
005C064A  47A0     		blx r4
005C064C  B002     		add sp, sp, #8

005C064E  F85F 7D98		ldr r7, [pc, #-3480] ; 0x34
005C0652  51F0     		str r0, [r6, +r7]

005C0654  F85F 7D90		ldr r7, [pc, #-3472] ; 0x7C
005C0658  59F0     		ldr r0, [r6, +r7]

005C065A  1C80     		add r0, r0, #2

005C065C  F85F 7D6C		ldr r7, [pc, #-3436] ; 0xF4
005C0660  51F0     		str r0, [r6, +r7]

005C0662  F8DF 738C		ldr r7, [pc, #+908] ; 0x42
005C0666  19F0     		add r0, r6, r7

005C0668  F85F 74DC		ldr r7, [pc, #-1244] ; 0x100
005C066C  51F0     		str r0, [r6, +r7]

005C066E  B084     		sub sp, sp, #16
005C0670  2701     		mov r7, #1 ; 1
005C0672  F8CD 7000		str r7, [sp]
005C0676  271E     		mov r7, #30 ; 30
005C0678  F8CD 7004		str r7, [sp, #+4]
005C067C  F85F 7D8C		ldr r7, [pc, #-3468] ; 0xF4
005C0680  59F7     		ldr r7, [r6, +r7]
005C0682  F8CD 7008		str r7, [sp, #+8]
005C0686  F85F 74F8		ldr r7, [pc, #-1272] ; 0x100
005C068A  59F7     		ldr r7, [r6, +r7]
005C068C  F8CD 700C		str r7, [sp, #+12]
005C0690  F8DF 43A4		ldr r4, [pc, #+932] ; 0x5BA910
005C0694  F044 0401		orr r4, r4, #1
005C0698  47A0     		blx r4
005C069A  B004     		add sp, sp, #16

005C069C  F85F 7DE8		ldr r7, [pc, #-3560] ; 0x34
005C06A0  51F0     		str r0, [r6, +r7]

005C06A2  F8DF 7350		ldr r7, [pc, #+848] ; 0x44
005C06A6  19F0     		add r0, r6, r7

005C06A8  F85F 751C		ldr r7, [pc, #-1308] ; 0x100
005C06AC  51F0     		str r0, [r6, +r7]

005C06AE  2010     		mov r0, #16 ; 16

005C06B0  1E80     		sub r0, r0, #2

005C06B2  F8DF 7360		ldr r7, [pc, #+864] ; 0x110
005C06B6  51F0     		str r0, [r6, +r7]

005C06B8  F8DF 7334		ldr r7, [pc, #+820] ; 0x42
005C06BC  19F0     		add r0, r6, r7

005C06BE  4607     		mov r7, r0
005C06C0  4638     		mov r0, r7
005C06C2  F85F 7534		ldr r7, [pc, #-1332] ; 0x100
005C06C6  59F7     		ldr r7, [r6, +r7]
005C06C8  4639     		mov r1, r7
005C06CA  F8DF 7348		ldr r7, [pc, #+840] ; 0x110
005C06CE  59F2     		ldr r2, [r6, +r7]
005C06D0  F85F 453C		ldr r4, [pc, #-1340] ; 0x4A232D
005C06D4  F044 0401		orr r4, r4, #1
005C06D8  47A0     		blx r4

005C06DA  F85F 7E24		ldr r7, [pc, #-3620] ; 0x34
005C06DE  51F0     		str r0, [r6, +r7]

005C06E0  F85F 7E28		ldr r7, [pc, #-3624] ; 0x38
005C06E4  5DF0     		ldrb r0, [r6, +r7]

005C06E6  1E40     		sub r0, r0, #1

005C06E8  F85F 7E30		ldr r7, [pc, #-3632] ; 0x38
005C06EC  55F0     		strb r0, [r6, +r7]

005C06EE  2004     		mov r0, #4 ; 4
005C06F0  F85F 7E58		ldr r7, [pc, #-3672] ; 0x8
005C06F4  51F0     		str r0, [r6, +r7]

005C06F6  F85F 7598		ldr r7, [pc, #-1432] ; 0x11
005C06FA  5DF0     		ldrb r0, [r6, +r7]

005C06FC  1C40     		add r0, r0, #1

005C06FE  F85F 7E5C		ldr r7, [pc, #-3676] ; 0x10
005C0702  55F0     		strb r0, [r6, +r7]

005C0704  20DC     		mov r0, #220 ; 220
005C0706  F85F 75A8		ldr r7, [pc, #-1448] ; 0x11
005C070A  55F0     		strb r0, [r6, +r7]

005C070C  E3D1     		b #1954 ; 0x005C0EB2


005C0710  F85F 7E74		ldr r7, [pc, #-3700] ; 0xC
005C0714  59F0     		ldr r0, [r6, +r7]

005C0716  2700     		mov r7, #0 ; 0
005C0718  42B8     		cmp r0, r7
005C071A  BF08 2000		eqmov r0, #0
005C071E  BF18 2001		nemov r0, #1

005C0722  2800     		cmp r0, #0
005C0724  D021     		beq #66 ; 0x005C076A


005C0728  F85F 0E0C		ldr r0, [pc, #-3596] ; 0x5BA2E4

005C072C  F85F 7E40		ldr r7, [pc, #-3648] ; 0xE4
005C0730  51F0     		str r0, [r6, +r7]

005C0732  F8DF 02FC		ldr r0, [pc, #+764] ; 0x5BA418

005C0736  F85F 75AC		ldr r7, [pc, #-1452] ; 0xF8
005C073A  51F0     		str r0, [r6, +r7]

005C073C  B082     		sub sp, sp, #8
005C073E  2001     		mov r0, #1 ; 1
005C0740  2700     		mov r7, #0 ; 0
005C0742  4639     		mov r1, r7
005C0744  2701     		mov r7, #1 ; 1
005C0746  463A     		mov r2, r7
005C0748  F85F 7E5C		ldr r7, [pc, #-3676] ; 0xE4
005C074C  59F3     		ldr r3, [r6, +r7]
005C074E  F85F 75C4		ldr r7, [pc, #-1476] ; 0xF8
005C0752  59F7     		ldr r7, [r6, +r7]
005C0754  F8CD 7000		str r7, [sp]
005C0758  F85F 4E58		ldr r4, [pc, #-3672] ; 0x4A17A9
005C075C  F044 0401		orr r4, r4, #1
005C0760  47A0     		blx r4
005C0762  B002     		add sp, sp, #8

005C0764  F85F 7EB0		ldr r7, [pc, #-3760] ; 0x34
005C0768  51F0     		str r0, [r6, +r7]

005C076A  2000     		mov r0, #0 ; 0
005C076C  F85F 7610		ldr r7, [pc, #-1552] ; 0x11
005C0770  55F0     		strb r0, [r6, +r7]

005C0772  E39E     		b #1852 ; 0x005C0EB2


005C0776  F85F 7EAC		ldr r7, [pc, #-3756] ; 0x80
005C077A  59F0     		ldr r0, [r6, +r7]

005C077C  2700     		mov r7, #0 ; 0
005C077E  42B8     		cmp r0, r7
005C0780  BF18 2000		nemov r0, #0
005C0784  BF08 2001		eqmov r0, #1

005C0788  2800     		cmp r0, #0
005C078A  D008     		beq #16 ; 0x005C079E


005C078E  F8DF 72B0		ldr r7, [pc, #+688] ; 0x999DC8
005C0792  4638     		mov r0, r7
005C0794  F85F 7EE8		ldr r7, [pc, #-3816] ; 0x28
005C0798  51F0     		str r0, [r6, +r7]

005C079A  E38C     		b #1816 ; 0x005C0EB6


005C079E  F85F 7ED4		ldr r7, [pc, #-3796] ; 0x80
005C07A2  59F7     		ldr r7, [r6, +r7]
005C07A4  4638     		mov r0, r7
005C07A6  F8DF 4274		ldr r4, [pc, #+628] ; 0x4A2581
005C07AA  F044 0401		orr r4, r4, #1
005C07AE  47A0     		blx r4

005C07B0  2800     		cmp r0, #0
005C07B2  BF18 2000		nemov r0, #0
005C07B6  BF08 2001		eqmov r0, #1

005C07BA  2800     		cmp r0, #0
005C07BC  D008     		beq #16 ; 0x005C07D0


005C07C0  F8DF 7280		ldr r7, [pc, #+640] ; 0x999DC9
005C07C4  4638     		mov r0, r7
005C07C6  F85F 7F18		ldr r7, [pc, #-3864] ; 0x28
005C07CA  51F0     		str r0, [r6, +r7]

005C07CC  E373     		b #1766 ; 0x005C0EB6


005C07D0  F85F 7F38		ldr r7, [pc, #-3896] ; 0x8
005C07D4  59F0     		ldr r0, [r6, +r7]

005C07D6  1C80     		add r0, r0, #2

005C07D8  F85F 7F40		ldr r7, [pc, #-3904] ; 0x8
005C07DC  51F0     		str r0, [r6, +r7]

005C07DE  F85F 7F44		ldr r7, [pc, #-3908] ; 0x8
005C07E2  59F0     		ldr r0, [r6, +r7]
005C07E4  F85F 7684		ldr r7, [pc, #-1668] ; 0x30
005C07E8  51F0     		str r0, [r6, +r7]

005C07EA  2001     		mov r0, #1 ; 1

005C07EC  2800     		cmp r0, #0
005C07EE  F000 808C		beq #280 ; 0x005C090A


005C07F2  F85F 7F58		ldr r7, [pc, #-3928] ; 0x8
005C07F6  59F0     		ldr r0, [r6, +r7]

005C07F8  F85F 7698		ldr r7, [pc, #-1688] ; 0x30
005C07FC  59F7     		ldr r7, [r6, +r7]
005C07FE  1BC0     		sub r0, r0, r7

005C0800  F85F 7F38		ldr r7, [pc, #-3896] ; 0x80
005C0804  59F7     		ldr r7, [r6, +r7]
005C0806  19C0     		add r0, r0, r7

005C0808  B082     		sub sp, sp, #8
005C080A  4607     		mov r7, r0
005C080C  F8CD 7000		str r7, [sp]
005C0810  F85F 4658		ldr r4, [pc, #-1624] ; 0x5BA4E8
005C0814  F044 0401		orr r4, r4, #1
005C0818  47A0     		blx r4
005C081A  B002     		add sp, sp, #8

005C081C  F85F 7F6C		ldr r7, [pc, #-3948] ; 0x2C
005C0820  55F0     		strb r0, [r6, +r7]

005C0822  F85F 7F70		ldr r7, [pc, #-3952] ; 0x2C
005C0826  5DF0     		ldrb r0, [r6, +r7]

005C0828  2800     		cmp r0, #0
005C082A  BF18 2000		nemov r0, #0
005C082E  BF08 2001		eqmov r0, #1

005C0832  2800     		cmp r0, #0
005C0834  D002     		beq #4 ; 0x005C083C


005C0838  E067     		b #206 ; 0x005C090A


005C083C  F85F 7FA4		ldr r7, [pc, #-4004] ; 0x8
005C0840  59F0     		ldr r0, [r6, +r7]

005C0842  B082     		sub sp, sp, #8
005C0844  F8CD 0000		str r0, [sp]
005C0848  F85F 7F88		ldr r7, [pc, #-3976] ; 0x70
005C084C  59F0     		ldr r0, [r6, +r7]

005C084E  1E40     		sub r0, r0, #1

005C0850  4607     		mov r7, r0
005C0852  F8DD 0000		ldr r0, [sp]
005C0856  B002     		add sp, sp, #8
005C0858  42B8     		cmp r0, r7
005C085A  BF38 2000		lomov r0, #0
005C085E  BF28 2001		hsmov r0, #1

005C0862  2800     		cmp r0, #0
005C0864  D008     		beq #16 ; 0x005C0878


005C0868  F8DF 71DC		ldr r7, [pc, #+476] ; 0x999DCD
005C086C  4638     		mov r0, r7
005C086E  F85F 7FC0		ldr r7, [pc, #-4032] ; 0x28
005C0872  51F0     		str r0, [r6, +r7]

005C0874  E31F     		b #1598 ; 0x005C0EB6


005C0878  F85F 7FC8		ldr r7, [pc, #-4040] ; 0x2C
005C087C  5DF0     		ldrb r0, [r6, +r7]

005C087E  287E     		cmp r0, #126
005C0880  BFC8 2000		gtmov r0, #0
005C0884  BFD8 2001		lemov r0, #1

005C0888  B082     		sub sp, sp, #8
005C088A  F8CD 0000		str r0, [sp]
005C088E  F85F 7FDC		ldr r7, [pc, #-4060] ; 0x2C
005C0892  5DF0     		ldrb r0, [r6, +r7]

005C0894  2820     		cmp r0, #32
005C0896  BFB8 2000		ltmov r0, #0
005C089A  BFA8 2001		gemov r0, #1

005C089E  4607     		mov r7, r0
005C08A0  F8DD 0000		ldr r0, [sp]
005C08A4  B002     		add sp, sp, #8
005C08A6  4038     		and r0, r0, r7

005C08A8  2800     		cmp r0, #0
005C08AA  BF08 2001		eqmov r0, #1
005C08AE  BF18 2000		nemov r0, #0

005C08B2  2800     		cmp r0, #0
005C08B4  D008     		beq #16 ; 0x005C08C8


005C08B8  F8DF 7190		ldr r7, [pc, #+400] ; 0x999DCE
005C08BC  4638     		mov r0, r7
005C08BE  F8DF 7120		ldr r7, [pc, #+288] ; 0x28
005C08C2  51F0     		str r0, [r6, +r7]

005C08C4  E2F7     		b #1518 ; 0x005C0EB6


005C08C8  F8DF 713C		ldr r7, [pc, #+316] ; 0x7C
005C08CC  59F0     		ldr r0, [r6, +r7]

005C08CE  F8DF 7108		ldr r7, [pc, #+264] ; 0x8
005C08D2  59F7     		ldr r7, [r6, +r7]
005C08D4  19C0     		add r0, r0, r7

005C08D6  B082     		sub sp, sp, #8
005C08D8  4607     		mov r7, r0
005C08DA  F8CD 7000		str r7, [sp]
005C08DE  F8DF 7104		ldr r7, [pc, #+260] ; 0x2C
005C08E2  5DF7     		ldrb r7, [r6, +r7]
005C08E4  F8CD 7004		str r7, [sp, #+4]
005C08E8  F85F 4FBC		ldr r4, [pc, #-4028] ; 0x5BA53C
005C08EC  F044 0401		orr r4, r4, #1
005C08F0  47A0     		blx r4
005C08F2  B002     		add sp, sp, #8

005C08F4  F8DF 70F4		ldr r7, [pc, #+244] ; 0x34
005C08F8  51F0     		str r0, [r6, +r7]

005C08FA  F8DF 70DC		ldr r7, [pc, #+220] ; 0x8
005C08FE  59F0     		ldr r0, [r6, +r7]

005C0900  1C40     		add r0, r0, #1

005C0902  F8DF 70D4		ldr r7, [pc, #+212] ; 0x8
005C0906  51F0     		str r0, [r6, +r7]

005C0908  E76F     		b #-290 ; 0x005C07EA

005C090A  F8DF 70CC		ldr r7, [pc, #+204] ; 0x8
005C090E  59F0     		ldr r0, [r6, +r7]

005C0910  F85F 77B0		ldr r7, [pc, #-1968] ; 0x30
005C0914  59F7     		ldr r7, [r6, +r7]
005C0916  1BC0     		sub r0, r0, r7

005C0918  F8DF 70CC		ldr r7, [pc, #+204] ; 0x2E
005C091C  53F0     		strh r0, [r6, +r7]

005C091E  F85F 77BC		ldr r7, [pc, #-1980] ; 0x30
005C0922  59F0     		ldr r0, [r6, +r7]

005C0924  1E80     		sub r0, r0, #2

005C0926  F8DF 70E0		ldr r7, [pc, #+224] ; 0x7C
005C092A  59F7     		ldr r7, [r6, +r7]
005C092C  19C0     		add r0, r0, r7

005C092E  F8DF 70E0		ldr r7, [pc, #+224] ; 0xF4
005C0932  51F0     		str r0, [r6, +r7]

005C0934  F8DF 70B0		ldr r7, [pc, #+176] ; 0x2E
005C0938  19F0     		add r0, r6, r7

005C093A  F8DF 70DC		ldr r7, [pc, #+220] ; 0x11C
005C093E  51F0     		str r0, [r6, +r7]

005C0940  B084     		sub sp, sp, #16
005C0942  2701     		mov r7, #1 ; 1
005C0944  F8CD 7000		str r7, [sp]
005C0948  271E     		mov r7, #30 ; 30
005C094A  F8CD 7004		str r7, [sp, #+4]
005C094E  F8DF 70C0		ldr r7, [pc, #+192] ; 0xF4
005C0952  59F7     		ldr r7, [r6, +r7]
005C0954  F8CD 7008		str r7, [sp, #+8]
005C0958  F8DF 70BC		ldr r7, [pc, #+188] ; 0x11C
005C095C  59F7     		ldr r7, [r6, +r7]
005C095E  F8CD 700C		str r7, [sp, #+12]
005C0962  F8DF 40D4		ldr r4, [pc, #+212] ; 0x5BA910
005C0966  F044 0401		orr r4, r4, #1
005C096A  47A0     		blx r4
005C096C  B004     		add sp, sp, #16

005C096E  F8DF 707C		ldr r7, [pc, #+124] ; 0x34
005C0972  51F0     		str r0, [r6, +r7]

005C0974  F8DF 7064		ldr r7, [pc, #+100] ; 0x10
005C0978  5DF0     		ldrb r0, [r6, +r7]
005C097A  F85F 781C		ldr r7, [pc, #-2076] ; 0x11
005C097E  55F0     		strb r0, [r6, +r7]

005C0980  E297     		b #1326 ; 0x005C0EB2


005C0984  F8DF 7050		ldr r7, [pc, #+80] ; 0x8
005C0988  59F0     		ldr r0, [r6, +r7]

005C098A  1E40     		sub r0, r0, #1

005C098C  F85F 782C		ldr r7, [pc, #-2092] ; 0x30
005C0990  51F0     		str r0, [r6, +r7]

005C0992  2000     		mov r0, #0 ; 0
005C0994  F8DF 7060		ldr r7, [pc, #+96] ; 0x58
005C0998  51F0     		str r0, [r6, +r7]

005C099A  2000     		mov r0, #0 ; 0
005C099C  F8DF 705C		ldr r7, [pc, #+92] ; 0x5C
005C09A0  51F0     		str r0, [r6, +r7]

005C09A2  F85F 7840		ldr r7, [pc, #-2112] ; 0x30
005C09A6  59F0     		ldr r0, [r6, +r7]

005C09A8  2800     		cmp r0, #0
005C09AA  BF08 2000		eqmov r0, #0
005C09AE  BF18 2001		nemov r0, #1

005C09B2  2800     		cmp r0, #0
005C09B4  F000 808E		beq #284 ; 0x005C0AD4


005C09B8  F85F 7858		ldr r7, [pc, #-2136] ; 0x30
005C09BC  59F0     		ldr r0, [r6, +r7]

005C09BE  2180     		mov r1, #128 ; 128
005C09C0  F8DF 4070		ldr r4, [pc, #+112] ; 0x5BA4DC
005C09C4  F044 0401		orr r4, r4, #1
005C09C8  47A0     		blx r4

005C09CA  F8DF 7020		ldr r7, [pc, #+32] ; 0x34
005C09CE  51F0     		str r0, [r6, +r7]

005C09D0  F85F 7870		ldr r7, [pc, #-2160] ; 0x30
005C09D4  59F0     		ldr r0, [r6, +r7]

005C09D6  E03B     		b #118

005C09D8  00000008		; 0x00000008
005C09DC  00000010		; 0x00000010
005C09E0  00000028		; 0x00000028
005C09E4  0000002C		; 0x0000002C
005C09E8  0000002E		; 0x0000002E
005C09EC  00000034		; 0x00000034
005C09F0  00000042		; 0x00000042
005C09F4  00000044		; 0x00000044
005C09F8  00000058		; 0x00000058
005C09FC  0000005C		; 0x0000005C
005C0A00  00000064		; 0x00000064
005C0A04  00000066		; 0x00000066
005C0A08  0000007C		; 0x0000007C
005C0A0C  000000C8		; 0x000000C8
005C0A10  000000F4		; 0x000000F4
005C0A14  00000110		; 0x00000110
005C0A18  0000011C		; 0x0000011C
005C0A1C  004A2581		; 0x004A2581
005C0A20  005BA2A4		; 0x005BA2A4
005C0A24  005BA3B8		; 0x005BA3B8
005C0A28  005BA3D8		; 0x005BA3D8
005C0A2C  005BA3FC		; 0x005BA3FC
005C0A30  005BA418		; 0x005BA418
005C0A34  005BA4DC		; 0x005BA4DC
005C0A38  005BA910		; 0x005BA910
005C0A3C  00999D82		; 0x00999D82
005C0A40  00999DC8		; 0x00999DC8
005C0A44  00999DC9		; 0x00999DC9
005C0A48  00999DCD		; 0x00999DCD
005C0A4C  00999DCE		; 0x00999DCE

005C0A50  2780     		mov r7, #128 ; 128
005C0A52  B082     		sub sp, sp, #8
005C0A54  F8CD 1000		str r1, [sp]
005C0A58  4639     		mov r1, r7
005C0A5A  FBB0 F0F1		udiv r0, r0, r1
005C0A5E  F8DD 1000		ldr r1, [sp]
005C0A62  B002     		add sp, sp, #8

005C0A64  F85F 7904		ldr r7, [pc, #-2308] ; 0x30
005C0A68  51F0     		str r0, [r6, +r7]

005C0A6A  F85F 7908		ldr r7, [pc, #-2312] ; 0x30
005C0A6E  59F0     		ldr r0, [r6, +r7]

005C0A70  2800     		cmp r0, #0
005C0A72  BF08 2000		eqmov r0, #0
005C0A76  BF18 2001		nemov r0, #1

005C0A7A  2800     		cmp r0, #0
005C0A7C  D008     		beq #16 ; 0x005C0A90


005C0A80  F85F 7098		ldr r7, [pc, #-152] ; 0x34
005C0A84  59F0     		ldr r0, [r6, +r7]

005C0A86  2780     		mov r7, #128 ; 128
005C0A88  4338     		orr r0, r0, r7

005C0A8A  F85F 70A0		ldr r7, [pc, #-160] ; 0x34
005C0A8E  51F0     		str r0, [r6, +r7]

005C0A90  2008     		mov r0, #8 ; 8

005C0A92  F85F 7098		ldr r7, [pc, #-152] ; 0x5C
005C0A96  59F7     		ldr r7, [r6, +r7]
005C0A98  4378     		mul r0, r0, r7

005C0A9A  F85F 7088		ldr r7, [pc, #-136] ; 0x110
005C0A9E  51F0     		str r0, [r6, +r7]

005C0AA0  F85F 70B8		ldr r7, [pc, #-184] ; 0x34
005C0AA4  59F0     		ldr r0, [r6, +r7]
005C0AA6  F85F 7094		ldr r7, [pc, #-148] ; 0x110
005C0AAA  59F7     		ldr r7, [r6, +r7]
005C0AAC  E92D 0006		stmdb sp!, { r1, r2 }
005C0AB0  40B8     		lsl r0, r0, r7
005C0AB2  E8BD 0006		ldmia sp!, { r1, r2 }

005C0AB6  F85F 70C0		ldr r7, [pc, #-192] ; 0x58
005C0ABA  59F7     		ldr r7, [r6, +r7]
005C0ABC  4338     		orr r0, r0, r7

005C0ABE  F85F 70C8		ldr r7, [pc, #-200] ; 0x58
005C0AC2  51F0     		str r0, [r6, +r7]

005C0AC4  F85F 70CC		ldr r7, [pc, #-204] ; 0x5C
005C0AC8  59F0     		ldr r0, [r6, +r7]

005C0ACA  1C40     		add r0, r0, #1

005C0ACC  F85F 70D4		ldr r7, [pc, #-212] ; 0x5C
005C0AD0  51F0     		str r0, [r6, +r7]

005C0AD2  E766     		b #-308 ; 0x005C09A2

005C0AD4  F85F 70D0		ldr r7, [pc, #-208] ; 0x7C
005C0AD8  59F0     		ldr r0, [r6, +r7]

005C0ADA  1C40     		add r0, r0, #1

005C0ADC  F85F 70D0		ldr r7, [pc, #-208] ; 0xF4
005C0AE0  51F0     		str r0, [r6, +r7]

005C0AE2  F85F 70DC		ldr r7, [pc, #-220] ; 0x7C
005C0AE6  59F0     		ldr r0, [r6, +r7]

005C0AE8  1C40     		add r0, r0, #1

005C0AEA  F85F 70F0		ldr r7, [pc, #-240] ; 0x5C
005C0AEE  59F7     		ldr r7, [r6, +r7]
005C0AF0  19C0     		add r0, r0, r7

005C0AF2  F85F 70E4		ldr r7, [pc, #-228] ; 0xF4
005C0AF6  59F1     		ldr r1, [r6, +r7]
005C0AF8  F85F 7104		ldr r7, [pc, #-260] ; 0x58
005C0AFC  59F2     		ldr r2, [r6, +r7]
005C0AFE  F85F 4968		ldr r4, [pc, #-2408] ; 0x4A232D
005C0B02  F044 0401		orr r4, r4, #1
005C0B06  47A0     		blx r4

005C0B08  F85F 7120		ldr r7, [pc, #-288] ; 0x34
005C0B0C  51F0     		str r0, [r6, +r7]

005C0B0E  2000     		mov r0, #0 ; 0

005C0B10  F85F 79B0		ldr r7, [pc, #-2480] ; 0x30
005C0B14  51F0     		str r0, [r6, +r7]

005C0B16  F85F 79B4		ldr r7, [pc, #-2484] ; 0x30
005C0B1A  59F0     		ldr r0, [r6, +r7]

005C0B1C  B082     		sub sp, sp, #8
005C0B1E  F8CD 0000		str r0, [sp]
005C0B22  F85F 7128		ldr r7, [pc, #-296] ; 0x5C
005C0B26  59F0     		ldr r0, [r6, +r7]

005C0B28  1E40     		sub r0, r0, #1

005C0B2A  4607     		mov r7, r0
005C0B2C  F8DD 0000		ldr r0, [sp]
005C0B30  B002     		add sp, sp, #8
005C0B32  42B8     		cmp r0, r7
005C0B34  BF98 2000		lsmov r0, #0
005C0B38  BF88 2001		himov r0, #1

005C0B3C  2800     		cmp r0, #0
005C0B3E  D13A     		bne #116 ; 0x005C0BB6


005C0B42  2008     		mov r0, #8 ; 8

005C0B44  F85F 79E4		ldr r7, [pc, #-2532] ; 0x30
005C0B48  59F7     		ldr r7, [r6, +r7]
005C0B4A  4378     		mul r0, r0, r7

005C0B4C  F85F 7140		ldr r7, [pc, #-320] ; 0xF4
005C0B50  51F0     		str r0, [r6, +r7]

005C0B52  F85F 715C		ldr r7, [pc, #-348] ; 0x58
005C0B56  59F0     		ldr r0, [r6, +r7]
005C0B58  F85F 714C		ldr r7, [pc, #-332] ; 0xF4
005C0B5C  59F7     		ldr r7, [r6, +r7]
005C0B5E  E92D 0006		stmdb sp!, { r1, r2 }
005C0B62  40F8     		lsr r0, r0, r7
005C0B64  E8BD 0006		ldmia sp!, { r1, r2 }

005C0B68  27FF     		mov r7, #255 ; 255
005C0B6A  4038     		and r0, r0, r7

005C0B6C  F8DF 7364		ldr r7, [pc, #+868] ; 0x120
005C0B70  55F0     		strb r0, [r6, +r7]

005C0B72  F85F 716C		ldr r7, [pc, #-364] ; 0x7C
005C0B76  59F0     		ldr r0, [r6, +r7]

005C0B78  1C40     		add r0, r0, #1

005C0B7A  F85F 7A18		ldr r7, [pc, #-2584] ; 0x30
005C0B7E  59F7     		ldr r7, [r6, +r7]
005C0B80  19C0     		add r0, r0, r7

005C0B82  B082     		sub sp, sp, #8
005C0B84  4607     		mov r7, r0
005C0B86  F8CD 7000		str r7, [sp]
005C0B8A  F8DF 7348		ldr r7, [pc, #+840] ; 0x120
005C0B8E  5DF7     		ldrb r7, [r6, +r7]
005C0B90  F8CD 7004		str r7, [sp, #+4]
005C0B94  F8DF 435C		ldr r4, [pc, #+860] ; 0x5BA53C
005C0B98  F044 0401		orr r4, r4, #1
005C0B9C  47A0     		blx r4
005C0B9E  B002     		add sp, sp, #8

005C0BA0  F85F 71B8		ldr r7, [pc, #-440] ; 0x34
005C0BA4  51F0     		str r0, [r6, +r7]

005C0BA6  F85F 7A44		ldr r7, [pc, #-2628] ; 0x30
005C0BAA  59F0     		ldr r0, [r6, +r7]

005C0BAC  1C40     		add r0, r0, #1

005C0BAE  F85F 7A4C		ldr r7, [pc, #-2636] ; 0x30
005C0BB2  51F0     		str r0, [r6, +r7]

005C0BB4  E7AF     		b #-162 ; 0x005C0B16

005C0BB6  F85F 71E0		ldr r7, [pc, #-480] ; 0x8
005C0BBA  59F0     		ldr r0, [r6, +r7]

005C0BBC  F85F 71C4		ldr r7, [pc, #-452] ; 0x5C
005C0BC0  59F7     		ldr r7, [r6, +r7]
005C0BC2  19C0     		add r0, r0, r7

005C0BC4  F85F 71F0		ldr r7, [pc, #-496] ; 0x8
005C0BC8  51F0     		str r0, [r6, +r7]

005C0BCA  F85F 71F0		ldr r7, [pc, #-496] ; 0x10
005C0BCE  5DF0     		ldrb r0, [r6, +r7]
005C0BD0  F85F 7A74		ldr r7, [pc, #-2676] ; 0x11
005C0BD4  55F0     		strb r0, [r6, +r7]

005C0BD6  E16C     		b #728 ; 0x005C0EB2


005C0BDA  F8DF 72EC		ldr r7, [pc, #+748] ; 0xD8
005C0BDE  59F0     		ldr r0, [r6, +r7]

005C0BE0  1C40     		add r0, r0, #1

005C0BE2  F8DF 72E4		ldr r7, [pc, #+740] ; 0xD8
005C0BE6  51F0     		str r0, [r6, +r7]

005C0BE8  F8DF 42F4		ldr r4, [pc, #+756] ; 0x4A1DED
005C0BEC  F044 0401		orr r4, r4, #1
005C0BF0  47A0     		blx r4

005C0BF2  F8DF 72CC		ldr r7, [pc, #+716] ; 0x24
005C0BF6  51F0     		str r0, [r6, +r7]

005C0BF8  F85F 7224		ldr r7, [pc, #-548] ; 0x8
005C0BFC  59F0     		ldr r0, [r6, +r7]
005C0BFE  B200     		sxth r0, r0

005C0C00  F8DF 72CC		ldr r7, [pc, #+716] ; 0xF0
005C0C04  53F0     		strh r0, [r6, +r7]

005C0C06  F85F 7200		ldr r7, [pc, #-512] ; 0x7C
005C0C0A  59F0     		ldr r0, [r6, +r7]
005C0C0C  F8DF 72C0		ldr r7, [pc, #+704] ; 0xF0
005C0C10  5FF1     		ldrsh r1, [r6, +r7]
005C0C12  2701     		mov r7, #1 ; 1
005C0C14  463A     		mov r2, r7
005C0C16  F8DF 72AC		ldr r7, [pc, #+684] ; 0x8C
005C0C1A  59F3     		ldr r3, [r6, +r7]
005C0C1C  F8DF 42C4		ldr r4, [pc, #+708] ; 0x4A28D5
005C0C20  F044 0401		orr r4, r4, #1
005C0C24  47A0     		blx r4

005C0C26  F85F 722C		ldr r7, [pc, #-556] ; 0x5C
005C0C2A  51F0     		str r0, [r6, +r7]

005C0C2C  F85F 7258		ldr r7, [pc, #-600] ; 0x8
005C0C30  59F0     		ldr r0, [r6, +r7]

005C0C32  F85F 7238		ldr r7, [pc, #-568] ; 0x5C
005C0C36  59F7     		ldr r7, [r6, +r7]
005C0C38  1BC0     		sub r0, r0, r7

005C0C3A  F85F 7264		ldr r7, [pc, #-612] ; 0x8
005C0C3E  51F0     		str r0, [r6, +r7]

005C0C40  F8DF 7278		ldr r7, [pc, #+632] ; 0xC
005C0C44  59F0     		ldr r0, [r6, +r7]

005C0C46  2700     		mov r7, #0 ; 0
005C0C48  42B8     		cmp r0, r7
005C0C4A  BF08 2000		eqmov r0, #0
005C0C4E  BF18 2001		nemov r0, #1

005C0C52  2800     		cmp r0, #0
005C0C54  D01D     		beq #58 ; 0x005C0C92


005C0C58  F8DF 0294		ldr r0, [pc, #+660] ; 0x5BA2E4

005C0C5C  F8DF 726C		ldr r7, [pc, #+620] ; 0xE4
005C0C60  51F0     		str r0, [r6, +r7]

005C0C62  B082     		sub sp, sp, #8
005C0C64  2064     		mov r0, #100 ; 100
005C0C66  F85F 726C		ldr r7, [pc, #-620] ; 0x5C
005C0C6A  59F1     		ldr r1, [r6, +r7]
005C0C6C  2701     		mov r7, #1 ; 1
005C0C6E  463A     		mov r2, r7
005C0C70  F8DF 7258		ldr r7, [pc, #+600] ; 0xE4
005C0C74  59F3     		ldr r3, [r6, +r7]
005C0C76  F85F 7270		ldr r7, [pc, #-624] ; 0x7C
005C0C7A  59F7     		ldr r7, [r6, +r7]
005C0C7C  F8CD 7000		str r7, [sp]
005C0C80  F8DF 4258		ldr r4, [pc, #+600] ; 0x4A17A9
005C0C84  F044 0401		orr r4, r4, #1
005C0C88  47A0     		blx r4
005C0C8A  B002     		add sp, sp, #8

005C0C8C  F85F 72A4		ldr r7, [pc, #-676] ; 0x34
005C0C90  51F0     		str r0, [r6, +r7]

005C0C92  F85F 7B34		ldr r7, [pc, #-2868] ; 0x11
005C0C96  5DF0     		ldrb r0, [r6, +r7]

005C0C98  1C40     		add r0, r0, #1

005C0C9A  F85F 7B3C		ldr r7, [pc, #-2876] ; 0x11
005C0C9E  55F0     		strb r0, [r6, +r7]

005C0CA0  F85F 72CC		ldr r7, [pc, #-716] ; 0x8
005C0CA4  59F0     		ldr r0, [r6, +r7]

005C0CA6  2800     		cmp r0, #0
005C0CA8  BF08 2000		eqmov r0, #0
005C0CAC  BF18 2001		nemov r0, #1

005C0CB0  2800     		cmp r0, #0
005C0CB2  D002     		beq #4 ; 0x005C0CBA


005C0CB6  E0FE     		b #508 ; 0x005C0EB6


005C0CBA  F85F 7B5C		ldr r7, [pc, #-2908] ; 0x11
005C0CBE  5DF0     		ldrb r0, [r6, +r7]

005C0CC0  1C40     		add r0, r0, #1

005C0CC2  F85F 7B64		ldr r7, [pc, #-2916] ; 0x11
005C0CC6  55F0     		strb r0, [r6, +r7]

005C0CC8  E0F3     		b #486 ; 0x005C0EB2


005C0CCC  F85F 72D4		ldr r7, [pc, #-724] ; 0x5C
005C0CD0  59F0     		ldr r0, [r6, +r7]
005C0CD2  F85F 72E8		ldr r7, [pc, #-744] ; 0x34
005C0CD6  51F0     		str r0, [r6, +r7]

005C0CD8  F85F 7304		ldr r7, [pc, #-772] ; 0x8
005C0CDC  59F0     		ldr r0, [r6, +r7]
005C0CDE  B200     		sxth r0, r0

005C0CE0  F8DF 71EC		ldr r7, [pc, #+492] ; 0xF0
005C0CE4  53F0     		strh r0, [r6, +r7]

005C0CE6  F85F 72E0		ldr r7, [pc, #-736] ; 0x7C
005C0CEA  59F0     		ldr r0, [r6, +r7]

005C0CEC  F85F 7304		ldr r7, [pc, #-772] ; 0x34
005C0CF0  59F7     		ldr r7, [r6, +r7]
005C0CF2  19C0     		add r0, r0, r7

005C0CF4  F8DF 71D8		ldr r7, [pc, #+472] ; 0xF0
005C0CF8  5FF1     		ldrsh r1, [r6, +r7]
005C0CFA  2701     		mov r7, #1 ; 1
005C0CFC  463A     		mov r2, r7
005C0CFE  F8DF 71C4		ldr r7, [pc, #+452] ; 0x8C
005C0D02  59F3     		ldr r3, [r6, +r7]
005C0D04  F8DF 41DC		ldr r4, [pc, #+476] ; 0x4A28D5
005C0D08  F044 0401		orr r4, r4, #1
005C0D0C  47A0     		blx r4

005C0D0E  F85F 7BAC		ldr r7, [pc, #-2988] ; 0x30
005C0D12  51F0     		str r0, [r6, +r7]

005C0D14  F85F 7340		ldr r7, [pc, #-832] ; 0x8
005C0D18  59F0     		ldr r0, [r6, +r7]

005C0D1A  F85F 7BB8		ldr r7, [pc, #-3000] ; 0x30
005C0D1E  59F7     		ldr r7, [r6, +r7]
005C0D20  1BC0     		sub r0, r0, r7

005C0D22  F85F 734C		ldr r7, [pc, #-844] ; 0x8
005C0D26  51F0     		str r0, [r6, +r7]

005C0D28  F85F 7330		ldr r7, [pc, #-816] ; 0x5C
005C0D2C  59F0     		ldr r0, [r6, +r7]

005C0D2E  F85F 7BCC		ldr r7, [pc, #-3020] ; 0x30
005C0D32  59F7     		ldr r7, [r6, +r7]
005C0D34  19C0     		add r0, r0, r7

005C0D36  F85F 733C		ldr r7, [pc, #-828] ; 0x5C
005C0D3A  51F0     		str r0, [r6, +r7]

005C0D3C  F8DF 717C		ldr r7, [pc, #+380] ; 0xC
005C0D40  59F0     		ldr r0, [r6, +r7]

005C0D42  2700     		mov r7, #0 ; 0
005C0D44  42B8     		cmp r0, r7
005C0D46  BF08 2000		eqmov r0, #0
005C0D4A  BF18 2001		nemov r0, #1

005C0D4E  2800     		cmp r0, #0
005C0D50  D028     		beq #80 ; 0x005C0DA4


005C0D54  F8DF 0198		ldr r0, [pc, #+408] ; 0x5BA2E4

005C0D58  F8DF 7170		ldr r7, [pc, #+368] ; 0xE4
005C0D5C  51F0     		str r0, [r6, +r7]

005C0D5E  F85F 7358		ldr r7, [pc, #-856] ; 0x7C
005C0D62  59F0     		ldr r0, [r6, +r7]

005C0D64  F85F 737C		ldr r7, [pc, #-892] ; 0x34
005C0D68  59F7     		ldr r7, [r6, +r7]
005C0D6A  19C0     		add r0, r0, r7

005C0D6C  F85F 7360		ldr r7, [pc, #-864] ; 0xF4
005C0D70  51F0     		str r0, [r6, +r7]

005C0D72  B082     		sub sp, sp, #8
005C0D74  2064     		mov r0, #100 ; 100
005C0D76  F85F 7C14		ldr r7, [pc, #-3092] ; 0x30
005C0D7A  59F7     		ldr r7, [r6, +r7]
005C0D7C  4639     		mov r1, r7
005C0D7E  2701     		mov r7, #1 ; 1
005C0D80  463A     		mov r2, r7
005C0D82  F8DF 7148		ldr r7, [pc, #+328] ; 0xE4
005C0D86  59F3     		ldr r3, [r6, +r7]
005C0D88  F85F 737C		ldr r7, [pc, #-892] ; 0xF4
005C0D8C  59F7     		ldr r7, [r6, +r7]
005C0D8E  F8CD 7000		str r7, [sp]
005C0D92  F8DF 4148		ldr r4, [pc, #+328] ; 0x4A17A9
005C0D96  F044 0401		orr r4, r4, #1
005C0D9A  47A0     		blx r4
005C0D9C  B002     		add sp, sp, #8

005C0D9E  F85F 73B4		ldr r7, [pc, #-948] ; 0x34
005C0DA2  51F0     		str r0, [r6, +r7]

005C0DA4  F8DF 4138		ldr r4, [pc, #+312] ; 0x4A1DED
005C0DA8  F044 0401		orr r4, r4, #1
005C0DAC  47A0     		blx r4

005C0DAE  F8DF 7110		ldr r7, [pc, #+272] ; 0x24
005C0DB2  59F7     		ldr r7, [r6, +r7]
005C0DB4  1BC0     		sub r0, r0, r7

005C0DB6  B082     		sub sp, sp, #8
005C0DB8  F8CD 0000		str r0, [sp]
005C0DBC  2000     		mov r0, #0 ; 0

005C0DBE  F8DF 7118		ldr r7, [pc, #+280] ; 0x7530
005C0DC2  4638     		mov r0, r7

005C0DC4  4607     		mov r7, r0
005C0DC6  F8DD 0000		ldr r0, [sp]
005C0DCA  B002     		add sp, sp, #8
005C0DCC  42B8     		cmp r0, r7
005C0DCE  BF98 2000		lsmov r0, #0
005C0DD2  BF88 2001		himov r0, #1

005C0DD6  2800     		cmp r0, #0
005C0DD8  D008     		beq #16 ; 0x005C0DEC


005C0DDC  F8DF 7118		ldr r7, [pc, #+280] ; 0x999E2C
005C0DE0  4638     		mov r0, r7
005C0DE2  F85F 7404		ldr r7, [pc, #-1028] ; 0x28
005C0DE6  51F0     		str r0, [r6, +r7]

005C0DE8  E065     		b #202 ; 0x005C0EB6


005C0DEC  F85F 7418		ldr r7, [pc, #-1048] ; 0x8
005C0DF0  59F0     		ldr r0, [r6, +r7]

005C0DF2  2800     		cmp r0, #0
005C0DF4  BF08 2000		eqmov r0, #0
005C0DF8  BF18 2001		nemov r0, #1

005C0DFC  2800     		cmp r0, #0
005C0DFE  D002     		beq #4 ; 0x005C0E06


005C0E02  E058     		b #176 ; 0x005C0EB6


005C0E06  F85F 7CA8		ldr r7, [pc, #-3240] ; 0x11
005C0E0A  5DF0     		ldrb r0, [r6, +r7]

005C0E0C  1C40     		add r0, r0, #1

005C0E0E  F85F 7CB0		ldr r7, [pc, #-3248] ; 0x11
005C0E12  55F0     		strb r0, [r6, +r7]

005C0E14  E04D     		b #154 ; 0x005C0EB2


005C0E18  F8DF 40C4		ldr r4, [pc, #+196] ; 0x4A1DED
005C0E1C  F044 0401		orr r4, r4, #1
005C0E20  47A0     		blx r4

005C0E22  F8DF 709C		ldr r7, [pc, #+156] ; 0x24
005C0E26  59F7     		ldr r7, [r6, +r7]
005C0E28  1BC0     		sub r0, r0, r7

005C0E2A  B082     		sub sp, sp, #8
005C0E2C  F8CD 0000		str r0, [sp]
005C0E30  2000     		mov r0, #0 ; 0

005C0E32  F8DF 70A4		ldr r7, [pc, #+164] ; 0x7530
005C0E36  4638     		mov r0, r7

005C0E38  4607     		mov r7, r0
005C0E3A  F8DD 0000		ldr r0, [sp]
005C0E3E  B002     		add sp, sp, #8
005C0E40  42B8     		cmp r0, r7
005C0E42  BF98 2000		lsmov r0, #0
005C0E46  BF88 2001		himov r0, #1

005C0E4A  2800     		cmp r0, #0
005C0E4C  D008     		beq #16 ; 0x005C0E60


005C0E50  F8DF 70A8		ldr r7, [pc, #+168] ; 0x999E2D
005C0E54  4638     		mov r0, r7
005C0E56  F85F 7478		ldr r7, [pc, #-1144] ; 0x28
005C0E5A  51F0     		str r0, [r6, +r7]

005C0E5C  E02B     		b #86 ; 0x005C0EB6


005C0E60  F8DF 7060		ldr r7, [pc, #+96] ; 0x8C
005C0E64  59F0     		ldr r0, [r6, +r7]
005C0E66  F8DF 4080		ldr r4, [pc, #+128] ; 0x4A2995
005C0E6A  F044 0401		orr r4, r4, #1
005C0E6E  47A0     		blx r4

005C0E70  B082     		sub sp, sp, #8
005C0E72  F8CD 0000		str r0, [sp]
005C0E76  2000     		mov r0, #0 ; 0

005C0E78  F8DF 7048		ldr r7, [pc, #+72] ; 0x8C
005C0E7C  59F0     		ldr r0, [r6, +r7]
005C0E7E  F8DF 406C		ldr r4, [pc, #+108] ; 0x4A2A45
005C0E82  F044 0401		orr r4, r4, #1
005C0E86  47A0     		blx r4

005C0E88  B200     		sxth r0, r0

005C0E8A  4607     		mov r7, r0
005C0E8C  F8DD 0000		ldr r0, [sp]
005C0E90  B002     		add sp, sp, #8
005C0E92  42B8     		cmp r0, r7
005C0E94  BF08 2000		eqmov r0, #0
005C0E98  BF18 2001		nemov r0, #1

005C0E9C  2800     		cmp r0, #0
005C0E9E  D002     		beq #4 ; 0x005C0EA6


005C0EA2  E008     		b #16 ; 0x005C0EB6


005C0EA6  F85F 74CC		ldr r7, [pc, #-1228] ; 0x10
005C0EAA  5DF0     		ldrb r0, [r6, +r7]
005C0EAC  F85F 7D50		ldr r7, [pc, #-3408] ; 0x11
005C0EB0  55F0     		strb r0, [r6, +r7]

005C0EB2  F7FD BFEA		b #-8236 ; 0x005BEE8A

005C0EB6  E8BD 4040		ldmia sp!, { r6, lr }

005C0EBA  4770     		bx lr

005C0EBC  0000000C		; 0x0000000C
005C0EC0  00000024		; 0x00000024
005C0EC4  0000008C		; 0x0000008C
005C0EC8  000000D8		; 0x000000D8
005C0ECC  000000E4		; 0x000000E4
005C0ED0  000000F0		; 0x000000F0
005C0ED4  00000120		; 0x00000120
005C0ED8  00007530		; 0x00007530
005C0EDC  004A17A9		; 0x004A17A9
005C0EE0  004A1DED		; 0x004A1DED
005C0EE4  004A28D5		; 0x004A28D5
005C0EE8  004A2995		; 0x004A2995
005C0EEC  004A2A45		; 0x004A2A45
005C0EF0  005BA2E4		; 0x005BA2E4
005C0EF4  005BA53C		; 0x005BA53C
005C0EF8  00999E2C		; 0x00999E2C
005C0EFC  00999E2D		; 0x00999E2D


Frame allocation:

	0000 bit  0: VAR AFPublish
	0002 bit  0: VAR AFSubscribe
	0004       : VAR BIDx
	000C       : VAR BSpy
	0010       : VAR CaseBk
	0011       : VAR CaseNr
	0014       : VAR ConnectionTBf
	0018 bit  0: VAR ConnectOn
	001C       : VAR CTimeBf
	0028       : VAR ErrorNr
	002C       : VAR AyB
	002E       : VAR AwB
	0030       : VAR AdB
	0034       : VAR i
	0038       : VAR PIDIDx
	0039 bit  0: VAR PingOn
	003C       : VAR PingTBf
	0040 bit  0: VAR PublishOn
	0042       : VAR PublishPIDRx
	0052       : VAR PublishPIDTx
	0054       : VAR RLength
	005C       : VAR RLSize
	0060       : VAR RxChrs
	0064 bit  0: VAR SubscribeOn
	0066       : VAR SubscribePID
	0068       : VAR TLength
	006C       : VAR RxData
	0070       : VAR LData
	0074       : VAR Header
	007C       : VAR TxData
	0080       : VAR SPtr
	0084       : VAR SLgt
	0088 bit  0: VAR Enable
	0089 bit  0: VAR SpyOn
	008A bit  0: VAR Publish
	008B bit  0: VAR Subscribe
	008C       : VAR File
	0090       : VAR ClientID
	0094       : VAR Username
	0098       : VAR Password
	009C       : VAR KeepAlive
	00A0       : VAR Flags
	00A4       : VAR QoS
	00A8       : VAR Topic
	00AC       : VAR Value
	00B0       : VAR VLength
	00B4       : VAR TBufferRxD
	00B8       : VAR TBLengthRxD
	00BC       : VAR VBufferRxD
	00C0       : VAR VBLengthRxD
	00C4 bit  0: VAR Connect
	00C5 bit  0: VAR Connected
	00C6 bit  0: VAR Fault
	00C7 bit  0: VAR Published
	00C8 bit  0: VAR Subscribed
	00C9 bit  0: VAR TopicRxD
	00CC       : VAR VLengthRxD
	00D0       : VAR CTime
	00D4       : VAR Errors
	00D8       : VAR TxPkts
	00DC       : VAR RxPkts

END_FUNCTION_BLOCK
**************************************************
	List program: MqttProgram
**************************************************

PROGRAM MqttProgram

        VAR
Enable : BOOL;	{ DE:"Enable command" }
CaseNr : USINT;	{ DE:"Program case" }
TopicRxD : STRING[ 60 ];	{ DE:"Topic received buffer" }
ValueRxD : STRING[ 512 ];	{ DE:"Value received buffer" }
MQTT : MQTTClient_v1;	{ DE:"MQTT client FB" }
TCPClient : SysTCPClient;	{ DE:"TCP client management" }
i : UDINT;	{ DE:"Auxiliary variable" }
SString : STRING[ 60 ];	{ DE:"String variable" }
JSONObject : STRING[ 512 ];	{ DE:"JSON object" }
JEncode : JSONEncode_v1;	{ DE:"JSON encode" }
IN_MqttBroker_IPAddress : STRING[ 15 ];
IN_MqttBroker_Name : STRING[ 10 ];
IN_MqttBroker_QoS : BYTE;	{ DE:"0,1,2" }
IN_TopicPub : STRING[ 60 ];	{ DE:"MQTT public topic - JSON" }
TopicSub_2001 : STRING[ 26 ] := 'NTSM2176/MF40/PLC2RTS/2001';
TopicPubOut_2001 : STRING[ 26 ] := 'NTSM2176/MF40/RTS2PLC/2001';
TopicSubInManualDeclaration : STRING[ 18 ] := '/ManualDeclaration';
bManualDecl : BOOL;
dManualDeclaration : REAL;
TopicSubInScrapDeclaration : STRING[ 17 ] := '/ScrapDeclaration';
bScrapDecl : BOOL;
dScrapDeclaration : REAL;
PrefixTopicState : STRING[ 21 ] := 'NTSM2176/MF40/STATES/';
PrefixTopicSubInSetupMode : STRING[ 3 ] := '/.M';
SuffixTopicSubInSetupMode : STRING[ 18 ] := '_Hmi.Sys.SetupMode';
SuffixTopicSubInLockMode : STRING[ 18 ] := '_Hmi.Sys.Lock';
dPreSetQty : REAL;
dPreSetQtyGood : REAL;
dPreSetQtyScrap : REAL;
Json_Eq : STRING[ 3 ] := 'Eq';
Json_Pr : STRING[ 3 ] := 'Pr';
Json_Sr : STRING[ 3 ] := 'Sr';
Json_PrSr : STRING[ 5 ] := 'PrSr';
Json_PartProgram : STRING[ 12 ] := 'PartProgram';
Json_MaterialDefinition : STRING[ 19 ] := 'MaterialDefinition';
Json_QtyTot : STRING[ 7 ] := 'QtyTot';
Json_QtyGood : STRING[ 8 ] := 'QtyGood';
Json_QtyScrap : STRING[ 9 ] := 'QtyScrap';
JDecode : JSONDecode_v2;	{ DE:"JSON decode" }
TopicPub_ST_Val : UINT;
TopicPub_CPZ_Val : REAL;
TopicPub_Scarto_Val : REAL;
TopicPub_IdMachine_Val : STRING[ 5 ];
TopicPub_MacRatePpm_Val : REAL;
TopicPub_PartProgram_Val : STRING[ 32 ];
TopicPub_ProductionRequest_Val : STRING[ 32 ];
TopicPub_SegmentRequirement_Val : STRING[ 32 ];
	END_VAR

END_PROGRAM

005C0F00  B082     		sub sp, sp, #8
005C0F02  F8CD E000		str lr, [sp]
005C0F06  E92D 0FF0		stmdb sp!, { r4, r5, r6, r7, r8, r9, r10, r11 }

#0		{SRC:MqttProgram}
#1		(*$WAITSWITCH$*)
#2		
#3		
#4			(* IF SysFirstLoop *)
#5			LD		SysFirstLoop	{LNXT:19|-1|-1}
(*) UNDEF
005C0F0A  F8DF 7994		ldr r7, [pc, #+2452] ; 0x20419A81
005C0F0E  7838     		ldrb r0, [r7]

#6			JMPCN	$label0	{LNXT:19|22|74}
(-) BOOL
005C0F10  2800     		cmp r0, #0
005C0F12  F000 8118		beq #560 ; 0x005C1146


#7		
#8			(* THEN *)
#9		
#10				(* IN_MqttBroker_IPAddress := '172.20.21.19'; *)
#11				MOVE		'172.20.21.19',IN_MqttBroker_IPAddress	{LNXT:22|23|-1}
(*) BOOL
005C0F16  F8DF 7820		ldr r7, [pc, #+2080] ; 0x5BA448
005C0F1A  4638     		mov r0, r7
005C0F1C  B082     		sub sp, sp, #8
005C0F1E  F8CD 0000		str r0, [sp]
005C0F22  E92D 0006		stmdb sp!, { r1, r2 }
005C0F26  2210     		mov r2, #16 ; 16
005C0F28  F8DF 1864		ldr r1, [pc, #+2148] ; 0x20415BE0
005C0F2C  F8DF 47E8		ldr r4, [pc, #+2024] ; 0x4BA059
005C0F30  F044 0401		orr r4, r4, #1
005C0F34  47A0     		blx r4
005C0F36  E8BD 0006		ldmia sp!, { r1, r2 }
005C0F3A  F8DD 0000		ldr r0, [sp]
005C0F3E  B002     		add sp, sp, #8

#12		
#13				(* IN_MqttBroker_Name := 'MACPLC_01'; *)
#14				MOVE		'MACPLC_01',IN_MqttBroker_Name	{LNXT:23|24|-1}
(*) STRING
005C0F40  F8DF 77F8		ldr r7, [pc, #+2040] ; 0x5BA458
005C0F44  4638     		mov r0, r7
005C0F46  B082     		sub sp, sp, #8
005C0F48  F8CD 0000		str r0, [sp]
005C0F4C  E92D 0006		stmdb sp!, { r1, r2 }
005C0F50  220B     		mov r2, #11 ; 11
005C0F52  F8DF 1840		ldr r1, [pc, #+2112] ; 0x20415BF0
005C0F56  F8DF 47C0		ldr r4, [pc, #+1984] ; 0x4BA059
005C0F5A  F044 0401		orr r4, r4, #1
005C0F5E  47A0     		blx r4
005C0F60  E8BD 0006		ldmia sp!, { r1, r2 }
005C0F64  F8DD 0000		ldr r0, [sp]
005C0F68  B002     		add sp, sp, #8

#15		
#16				(* IN_MqttBroker_QoS := 0; *)
#17				MOVE		0,IN_MqttBroker_QoS	{LNXT:24|27|-1}
(*) STRING
005C0F6A  2000     		mov r0, #0 ; 0
005C0F6C  F8DF 7814		ldr r7, [pc, #+2068] ; 0x20415BDD
005C0F70  7038     		strb r0, [r7]

#18		
#19				(* IN_TopicPub       := ''; *)
#20				MOVE		'',IN_TopicPub	{LNXT:27|28|-1}
(*) BYTE
005C0F72  F8DF 77BC		ldr r7, [pc, #+1980] ; 0x5BA43A
005C0F76  4638     		mov r0, r7
005C0F78  B082     		sub sp, sp, #8
005C0F7A  F8CD 0000		str r0, [sp]
005C0F7E  E92D 0006		stmdb sp!, { r1, r2 }
005C0F82  223D     		mov r2, #61 ; 61
005C0F84  F8DF 1810		ldr r1, [pc, #+2064] ; 0x20415BFB
005C0F88  F8DF 478C		ldr r4, [pc, #+1932] ; 0x4BA059
005C0F8C  F044 0401		orr r4, r4, #1
005C0F90  47A0     		blx r4
005C0F92  E8BD 0006		ldmia sp!, { r1, r2 }
005C0F96  F8DD 0000		ldr r0, [sp]
005C0F9A  B002     		add sp, sp, #8

#21		
#22				(* TopicPub_Cnt      := 0; *)
#23				MOVE		0,TopicPub_Cnt	{LNXT:28|29|-1}
(*) STRING
005C0F9C  2000     		mov r0, #0 ; 0
005C0F9E  F8DF 77EC		ldr r7, [pc, #+2028] ; 0x20415BDF
005C0FA2  7038     		strb r0, [r7]

#24		
#25				(* TopicPub_ST_Val   := 0; *)
#26				MOVE		0,TopicPub_ST_Val	{LNXT:29|30|-1}
(*) USINT
005C0FA4  2000     		mov r0, #0 ; 0
005C0FA6  F8DF 77F4		ldr r7, [pc, #+2036] ; 0x20415C38
005C0FAA  8038     		strh r0, [r7]

#27		
#28				(* TopicPub_CPZ_Val  := 0.0; *)
#29				MOVE		0.0,TopicPub_CPZ_Val	{LNXT:30|31|-1}
(*) UINT
005C0FAC  F8DF 7784		ldr r7, [pc, #+1924] ; 0x5BA43C
005C0FB0  6838     		ldr r0, [r7]
005C0FB2  F8DF 77EC		ldr r7, [pc, #+2028] ; 0x20415C3C
005C0FB6  6038     		str r0, [r7]

#30		
#31				(* TopicPub_Scarto_Val := 0.0; *)
#32				MOVE		0.0,TopicPub_Scarto_Val	{LNXT:31|32|-1}
(*) REAL
005C0FB8  F8DF 7778		ldr r7, [pc, #+1912] ; 0x5BA43C
005C0FBC  6838     		ldr r0, [r7]
005C0FBE  F8DF 77E4		ldr r7, [pc, #+2020] ; 0x20415C40
005C0FC2  6038     		str r0, [r7]

#33		
#34				(* TopicPub_IdMachine_Val := ''; *)
#35				MOVE		'',TopicPub_IdMachine_Val	{LNXT:32|33|-1}
(*) REAL
005C0FC4  F8DF 7768		ldr r7, [pc, #+1896] ; 0x5BA43A
005C0FC8  4638     		mov r0, r7
005C0FCA  B082     		sub sp, sp, #8
005C0FCC  F8CD 0000		str r0, [sp]
005C0FD0  E92D 0006		stmdb sp!, { r1, r2 }
005C0FD4  2206     		mov r2, #6 ; 6
005C0FD6  F8DF 17D0		ldr r1, [pc, #+2000] ; 0x20415C44
005C0FDA  F8DF 473C		ldr r4, [pc, #+1852] ; 0x4BA059
005C0FDE  F044 0401		orr r4, r4, #1
005C0FE2  47A0     		blx r4
005C0FE4  E8BD 0006		ldmia sp!, { r1, r2 }
005C0FE8  F8DD 0000		ldr r0, [sp]
005C0FEC  B002     		add sp, sp, #8

#36		
#37				(* TopicPub_MacRatePpm_Val:= 0.0; *)
#38				MOVE		0.0,TopicPub_MacRatePpm_Val	{LNXT:33|34|-1}
(*) STRING
005C0FEE  F8DF 7744		ldr r7, [pc, #+1860] ; 0x5BA43C
005C0FF2  6838     		ldr r0, [r7]
005C0FF4  F8DF 77BC		ldr r7, [pc, #+1980] ; 0x20415C4C
005C0FF8  6038     		str r0, [r7]

#39		
#40				(* TopicPub_PartProgram_Val := ''; *)
#41				MOVE		'',TopicPub_PartProgram_Val	{LNXT:34|35|-1}
(*) REAL
005C0FFA  F8DF 7734		ldr r7, [pc, #+1844] ; 0x5BA43A
005C0FFE  4638     		mov r0, r7
005C1000  B082     		sub sp, sp, #8
005C1002  F8CD 0000		str r0, [sp]
005C1006  E92D 0006		stmdb sp!, { r1, r2 }
005C100A  2221     		mov r2, #33 ; 33
005C100C  F8DF 17A8		ldr r1, [pc, #+1960] ; 0x20415C50
005C1010  F8DF 4704		ldr r4, [pc, #+1796] ; 0x4BA059
005C1014  F044 0401		orr r4, r4, #1
005C1018  47A0     		blx r4
005C101A  E8BD 0006		ldmia sp!, { r1, r2 }
005C101E  F8DD 0000		ldr r0, [sp]
005C1022  B002     		add sp, sp, #8

#42		
#43				(* TopicPub_ProductionRequest_Val := ''; *)
#44				MOVE		'',TopicPub_ProductionRequest_Val	{LNXT:35|36|-1}
(*) STRING
005C1024  F8DF 7708		ldr r7, [pc, #+1800] ; 0x5BA43A
005C1028  4638     		mov r0, r7
005C102A  B082     		sub sp, sp, #8
005C102C  F8CD 0000		str r0, [sp]
005C1030  E92D 0006		stmdb sp!, { r1, r2 }
005C1034  2221     		mov r2, #33 ; 33
005C1036  F8DF 1784		ldr r1, [pc, #+1924] ; 0x20415C71
005C103A  F8DF 46DC		ldr r4, [pc, #+1756] ; 0x4BA059
005C103E  F044 0401		orr r4, r4, #1
005C1042  47A0     		blx r4
005C1044  E8BD 0006		ldmia sp!, { r1, r2 }
005C1048  F8DD 0000		ldr r0, [sp]
005C104C  B002     		add sp, sp, #8

#45		
#46				(* TopicPub_SegmentRequirement_Val := ''; *)
#47				MOVE		'',TopicPub_SegmentRequirement_Val	{LNXT:36|37|-1}
(*) STRING
005C104E  F8DF 76E0		ldr r7, [pc, #+1760] ; 0x5BA43A
005C1052  4638     		mov r0, r7
005C1054  B082     		sub sp, sp, #8
005C1056  F8CD 0000		str r0, [sp]
005C105A  E92D 0006		stmdb sp!, { r1, r2 }
005C105E  2221     		mov r2, #33 ; 33
005C1060  F8DF 175C		ldr r1, [pc, #+1884] ; 0x20415C92
005C1064  F8DF 46B0		ldr r4, [pc, #+1712] ; 0x4BA059
005C1068  F044 0401		orr r4, r4, #1
005C106C  47A0     		blx r4
005C106E  E8BD 0006		ldmia sp!, { r1, r2 }
005C1072  F8DD 0000		ldr r0, [sp]
005C1076  B002     		add sp, sp, #8

#48		
#49				(* TopicPub_Broadcast:= FALSE; *)
#50				MOVE		FALSE,TopicPub_Broadcast	{LNXT:37|38|-1}
(*) STRING
005C1078  2000     		mov r0, #0 ; 0
005C107A  F8DF 7700		ldr r7, [pc, #+1792] ; 0x20415B8C
005C107E  7038     		strb r0, [r7]

#51		
#52				(* TopicPub_Broadcast_in_cycle := FALSE; *)
#53				MOVE		FALSE,TopicPub_Broadcast_in_cycle	{LNXT:38|39|-1}
(*) BOOL
005C1080  2000     		mov r0, #0 ; 0
005C1082  F8DF 7704		ldr r7, [pc, #+1796] ; 0x20415BDE
005C1086  7038     		strb r0, [r7]

#54		
#55				(* TopicPub_Single   := 0; *)
#56				MOVE		0,TopicPub_Single	{LNXT:39|45|-1}
(*) BOOL
005C1088  2000     		mov r0, #0 ; 0
005C108A  F8DF 76F4		ldr r7, [pc, #+1780] ; 0x20415BDC
005C108E  7038     		strb r0, [r7]

#57		
#58				(* TCPClient.PeerAdd:=ADR(IN_MqttBroker_IPAddress); *)
#59				ADR		IN_MqttBroker_IPAddress	{LNXT:45|46|-1}
(*) USINT
005C1090  F8DF 06FC		ldr r0, [pc, #+1788] ; 0x20415BE0

#60				ST		TCPClient.PeerAdd	{LNXT:45|46|-1}
(*) @STRING
005C1094  F8DF 7738		ldr r7, [pc, #+1848] ; 0x20415CC0
005C1098  6038     		str r0, [r7]

#61		
#62				(* TCPClient.PeerPort:=1883; *)
#63				MOVE		1883,TCPClient.PeerPort	{LNXT:46|47|-1}
(*) @STRING
005C109A  F8DF 766C		ldr r7, [pc, #+1644] ; 0x75B
005C109E  4638     		mov r0, r7
005C10A0  F8DF 7730		ldr r7, [pc, #+1840] ; 0x20415CC4
005C10A4  8038     		strh r0, [r7]

#64		
#65				(* TCPClient.LocalAdd:=ADR('0.0.0.0'); *)
#66				ADR		'0.0.0.0'	{LNXT:47|48|-1}
(*) UINT
005C10A6  F8DF 0698		ldr r0, [pc, #+1688] ; 0x5BA46C

#67				ST		TCPClient.LocalAdd	{LNXT:47|48|-1}
(*) @STRING
005C10AA  F8DF 772C		ldr r7, [pc, #+1836] ; 0x20415CC8
005C10AE  6038     		str r0, [r7]

#68		
#69				(* TCPClient.LocalPort:=0; *)
#70				MOVE		0,TCPClient.LocalPort	{LNXT:48|49|-1}
(*) @STRING
005C10B0  2000     		mov r0, #0 ; 0
005C10B2  F8DF 7728		ldr r7, [pc, #+1832] ; 0x20415CCC
005C10B6  8038     		strh r0, [r7]

#71		
#72				(* TCPClient.FlushTm:=50; *)
#73				MOVE		50,TCPClient.FlushTm	{LNXT:49|50|-1}
(*) UINT
005C10B8  2032     		mov r0, #50 ; 50
005C10BA  F8DF 7724		ldr r7, [pc, #+1828] ; 0x20415CCE
005C10BE  8038     		strh r0, [r7]

#74		
#75				(* TCPClient.LifeTm:=0; *)
#76				MOVE		0,TCPClient.LifeTm	{LNXT:50|51|-1}
(*) UINT
005C10C0  2000     		mov r0, #0 ; 0
005C10C2  F8DF 7720		ldr r7, [pc, #+1824] ; 0x20415CD0
005C10C6  8038     		strh r0, [r7]

#77		
#78				(* TCPClient.RxSize:=512; *)
#79				MOVE		512,TCPClient.RxSize	{LNXT:51|52|-1}
(*) UINT
005C10C8  F44F 7000		mov r0, #512 ; 512
005C10CC  F8DF 7718		ldr r7, [pc, #+1816] ; 0x20415CD2
005C10D0  8038     		strh r0, [r7]

#80		
#81				(* TCPClient.TxSize:=512; *)
#82				MOVE		512,TCPClient.TxSize	{LNXT:52|55|-1}
(*) UINT
005C10D2  F44F 7000		mov r0, #512 ; 512
005C10D6  F8DF 7714		ldr r7, [pc, #+1812] ; 0x20415CD4
005C10DA  8038     		strh r0, [r7]

#83		
#84				(* MQTT.SpyOn:=TRUE; *)
#85				MOVE		TRUE,MQTT.SpyOn	{LNXT:55|57|-1}
(*) UINT
005C10DC  2001     		mov r0, #1 ; 1
005C10DE  F8DF 771C		ldr r7, [pc, #+1820] ; 0x20415D65
005C10E2  7038     		strb r0, [r7]

#86		
#87				(* MQTT.ClientID:=ADR(IN_MqttBroker_Name); *)
#88				ADR		IN_MqttBroker_Name	{LNXT:57|58|-1}
(*) BOOL
005C10E4  F8DF 06AC		ldr r0, [pc, #+1708] ; 0x20415BF0

#89				ST		MQTT.ClientID	{LNXT:57|58|-1}
(*) @STRING
005C10E8  F8DF 7718		ldr r7, [pc, #+1816] ; 0x20415D6C
005C10EC  6038     		str r0, [r7]

#90		
#91				(* MQTT.KeepAlive:=TCPClient.LifeTm; *)
#92				MOVE		TCPClient.LifeTm,MQTT.KeepAlive	{LNXT:58|59|-1}
(*) @STRING
005C10EE  F8DF 76F4		ldr r7, [pc, #+1780] ; 0x20415CD0
005C10F2  8838     		ldrh r0, [r7]
005C10F4  F8DF 7710		ldr r7, [pc, #+1808] ; 0x20415D78
005C10F8  8038     		strh r0, [r7]

#93		
#94				(* MQTT.Flags:=16#00000000; *)
#95				MOVE		16#00000000,MQTT.Flags	{LNXT:59|60|-1}
(*) UINT
005C10FA  2000     		mov r0, #0 ; 0
005C10FC  F8DF 770C		ldr r7, [pc, #+1804] ; 0x20415D7C
005C1100  6038     		str r0, [r7]

#96		
#97				(* MQTT.QoS:=IN_MqttBroker_QoS; *)
#98				MOVE		IN_MqttBroker_QoS,MQTT.QoS	{LNXT:60|61|-1}
(*) DWORD
005C1102  F8DF 7680		ldr r7, [pc, #+1664] ; 0x20415BDD
005C1106  7838     		ldrb r0, [r7]
005C1108  F8DF 7704		ldr r7, [pc, #+1796] ; 0x20415D80
005C110C  7038     		strb r0, [r7]

#99		
#100				(* MQTT.TBufferRxD:=ADR(TopicRxD); *)
#101				ADR		TopicRxD	{LNXT:61|62|-1}
(*) BYTE
005C110E  F8DF 0724		ldr r0, [pc, #+1828] ; 0x20415E00

#102				ST		MQTT.TBufferRxD	{LNXT:61|62|-1}
(*) @STRING
005C1112  F8DF 7700		ldr r7, [pc, #+1792] ; 0x20415D90
005C1116  6038     		str r0, [r7]

#103		
#104				(* MQTT.TBLengthRxD:=SIZEOF(TopicRxD); *)
#105				MOVE		SIZE#TopicRxD,MQTT.TBLengthRxD	{LNXT:62|63|-1}
(*) @STRING
005C1118  203D     		mov r0, #61 ; 61
005C111A  F8DF 76FC		ldr r7, [pc, #+1788] ; 0x20415D94
005C111E  6038     		str r0, [r7]

#106		
#107				(* MQTT.VBufferRxD:=ADR(ValueRxD); *)
#108				ADR		ValueRxD	{LNXT:63|64|-1}
(*) UDINT
005C1120  F8DF 0714		ldr r0, [pc, #+1812] ; 0x20415E3D

#109				ST		MQTT.VBufferRxD	{LNXT:63|64|-1}
(*) @STRING
005C1124  F8DF 76F4		ldr r7, [pc, #+1780] ; 0x20415D98
005C1128  6038     		str r0, [r7]

#110		
#111				(* MQTT.VBLengthRxD:=SIZEOF(ValueRxD); *)
#112				MOVE		SIZE#ValueRxD,MQTT.VBLengthRxD	{LNXT:64|65|-1}
(*) @STRING
005C112A  F8DF 75D8		ldr r7, [pc, #+1496] ; 0x201
005C112E  4638     		mov r0, r7
005C1130  F8DF 76EC		ldr r7, [pc, #+1772] ; 0x20415D9C
005C1134  6038     		str r0, [r7]

#113		
#114				(* Enable:=TRUE; *)
#115				MOVE		TRUE,Enable	{LNXT:65|67|-1}
(*) UDINT
005C1136  2001     		mov r0, #1 ; 1
005C1138  F8DF 7688		ldr r7, [pc, #+1672] ; 0x20415CB3
005C113C  7038     		strb r0, [r7]

#116		
#117				(* CaseNr := 0; *)
#118				MOVE		0,CaseNr	{LNXT:67|74|-1}
(*) BOOL
005C113E  2000     		mov r0, #0 ; 0
005C1140  F8DF 766C		ldr r7, [pc, #+1644] ; 0x20415C4B
005C1144  7038     		strb r0, [r7]

#119		
#120		$label0:
#121			(* END_IF *)
#122		
#123			(* TCPClient *)
#124			MOVE		MQTT.Connect,TCPClient.Connect	{LNXT:74|-1|-1}
(*) USINT
005C1146  F8DF 76DC		ldr r7, [pc, #+1756] ; 0x20415DA0
005C114A  7838     		ldrb r0, [r7]
005C114C  F8DF 767C		ldr r7, [pc, #+1660] ; 0x20415CBC
005C1150  7038     		strb r0, [r7]

#125			CAL		TCPClient	{LNXT:74|75|-1}
(*) BOOL
005C1152  E92D 0021		stmdb sp!, { r0, r5 }
005C1156  F8DF 7670		ldr r7, [pc, #+1648] ; 0x20415CB4
005C115A  4638     		mov r0, r7
005C115C  F8DF 45AC		ldr r4, [pc, #+1452] ; 0x4A04E5
005C1160  F044 0401		orr r4, r4, #1
005C1164  47A0     		blx r4
005C1166  E8BD 0021		ldmia sp!, { r0, r5 }

#126		
#127			(* MQTT *)
#128			MOVE		TCPClient.File,MQTT.File	{LNXT:75|-1|-1}
(*) BOOL
005C116A  F8DF 7684		ldr r7, [pc, #+1668] ; 0x20415CD8
005C116E  6838     		ldr r0, [r7]
005C1170  F8DF 768C		ldr r7, [pc, #+1676] ; 0x20415D68
005C1174  6038     		str r0, [r7]

#129			CAL		MQTT	{LNXT:75|76|-1}
(*) DWORD
005C1176  E92D 0021		stmdb sp!, { r0, r5 }
005C117A  F8DF 5678		ldr r5, [pc, #+1656] ; 0x20415CDC
005C117E  F8DF 45C8		ldr r4, [pc, #+1480] ; 0x5BD64A
005C1182  F044 0401		orr r4, r4, #1
005C1186  47A0     		blx r4
005C1188  E8BD 0021		ldmia sp!, { r0, r5 }

#130		
#131		
#132			(* IF MQTT.Fault *)
#133			LD		MQTT.Fault	{LNXT:76|-1|-1}
(*) UNDEF
005C118C  F8DF 769C		ldr r7, [pc, #+1692] ; 0x20415DA2
005C1190  7838     		ldrb r0, [r7]

#134			JMPCN	$label1	{LNXT:76|76|77}
(-) BOOL
005C1192  2800     		cmp r0, #0
005C1194  D00A     		beq #20 ; 0x005C11AC


#135		
#136			(* THEN *)
#137		
#138				(* MQTT.Enable:=FALSE; *)
#139				MOVE		FALSE,MQTT.Enable	{LNXT:76|76|-1}
(*) BOOL
005C1198  2000     		mov r0, #0 ; 0
005C119A  F8DF 765C		ldr r7, [pc, #+1628] ; 0x20415D64
005C119E  7038     		strb r0, [r7]

#140		
#141				(* CaseNr:=0; *)
#142				MOVE		0,CaseNr	{LNXT:76|76|-1}
(*) BOOL
005C11A0  2000     		mov r0, #0 ; 0
005C11A2  F8DF 760C		ldr r7, [pc, #+1548] ; 0x20415C4B
005C11A6  7038     		strb r0, [r7]

#143		
#144				(* RETURN *)
#145				RET
#146		
(-) USINT
005C11A8  F001 BB00		b #5632 ; 0x005C27AC


#147		$label1:
#148			(* END_IF *)
#149		
#150		
#151			(* IF MQTT.Connected) *)
#152			LD		MQTT.Connected	{LNXT:77|-1|-1}
(*) UNDEF
005C11AC  F8DF 7678		ldr r7, [pc, #+1656] ; 0x20415DA1
005C11B0  7838     		ldrb r0, [r7]

#153			NOT	{LNXT:77|-1|-1}
(*) BOOL
005C11B2  2800     		cmp r0, #0
005C11B4  BF08 2001		eqmov r0, #1
005C11B8  BF18 2000		nemov r0, #0

#154			JMPCN	$label2	{LNXT:77|77|85}
(-) BOOL
005C11BC  2800     		cmp r0, #0
005C11BE  D004     		beq #8 ; 0x005C11CA


#155		
#156			(* THEN *)
#157		
#158				(* CaseNr:=0; *)
#159				MOVE		0,CaseNr	{LNXT:77|85|-1}
(*) BOOL
005C11C2  2000     		mov r0, #0 ; 0
005C11C4  F8DF 75E8		ldr r7, [pc, #+1512] ; 0x20415C4B
005C11C8  7038     		strb r0, [r7]

#160		
#161		$label2:
#162			(* END_IF *)
#163		
#164		
#165			(* IF MQTT.TopicRxD *)
#166			LD		MQTT.TopicRxD	{LNXT:85|-1|-1}
(*) UNDEF
005C11CA  F8DF 7664		ldr r7, [pc, #+1636] ; 0x20415DA5
005C11CE  7838     		ldrb r0, [r7]

#167			JMPCN	$label3	{LNXT:85|91|216}
(-) BOOL
005C11D0  2800     		cmp r0, #0
005C11D2  F000 851C		beq #2616 ; 0x005C1C0E


#168		
#169			(* THEN *)
#170		
#171		
#172				(* IF sPartProgram_2001 <> 'INITSEQUENCE *)
#173				LD		sPartProgram_2001	{LNXT:91|-1|-1}
(*) UNDEF
005C11D6  F8DF 0590		ldr r0, [pc, #+1424] ; 0x20415AF5

#174				NE		'INITSEQUENCE'	{LNXT:91|-1|-1}
(*) STRING
005C11DA  B082     		sub sp, sp, #8
005C11DC  F8CD 1000		str r1, [sp]
005C11E0  F8DF 7548		ldr r7, [pc, #+1352] ; 0x5BA42C
005C11E4  4639     		mov r1, r7
005C11E6  F8DF 453C		ldr r4, [pc, #+1340] ; 0x4BC63D
005C11EA  F044 0401		orr r4, r4, #1
005C11EE  47A0     		blx r4
005C11F0  F8DD 1000		ldr r1, [sp]
005C11F4  B002     		add sp, sp, #8

#175				JMPCN	$label4	{LNXT:91|94|173}
(-) BOOL
005C11F6  2800     		cmp r0, #0
005C11F8  F000 83A3		beq #1862 ; 0x005C1942


#176		
#177				(* THEN *)
#178		
#179		
#180					(* IF TopicSub_2001 = TopicRxD *)
#181					LD		TopicSub_2001	{LNXT:94|-1|-1}
(*) UNDEF
005C11FC  F8DF 063C		ldr r0, [pc, #+1596] ; 0x2041603E

#182					EQ		TopicRxD	{LNXT:94|-1|-1}
(*) STRING
005C1200  B082     		sub sp, sp, #8
005C1202  F8CD 1000		str r1, [sp]
005C1206  F8DF 162C		ldr r1, [pc, #+1580] ; 0x20415E00
005C120A  F8DF 4514		ldr r4, [pc, #+1300] ; 0x4BC61D
005C120E  F044 0401		orr r4, r4, #1
005C1212  47A0     		blx r4
005C1214  F8DD 1000		ldr r1, [sp]
005C1218  B002     		add sp, sp, #8

#183					JMPCN	$label5	{LNXT:94|101|143}
(-) BOOL
005C121A  2800     		cmp r0, #0
005C121C  F000 81C1		beq #898 ; 0x005C15A2


#184		
#185					(* THEN *)
#186		
#187						(* JDecode *)
#188						ADR		ValueRxD	{LNXT:101|-1|-1}
(*) BOOL
005C1220  F8DF 0614		ldr r0, [pc, #+1556] ; 0x20415E3D

#189						ST		JDecode.Object	{LNXT:101|-1|-1}
(*) @STRING
005C1224  F8DF 761C		ldr r7, [pc, #+1564] ; 0x204160FC
005C1228  6038     		str r0, [r7]

#190						ADR		Json_Pr	{LNXT:101|-1|-1}
(*) @STRING
005C122A  F8DF 0630		ldr r0, [pc, #+1584] ; 0x20416124

#191						ST		JDecode.Name	{LNXT:101|-1|-1}
(*) @STRING
005C122E  F8DF 7618		ldr r7, [pc, #+1560] ; 0x20416100
005C1232  6038     		str r0, [r7]

#192						MOVE		STRING_TYPE,JDecode.VType	{LNXT:101|-1|-1}
(*) @STRING
005C1234  2032     		mov r0, #50 ; 50
005C1236  F8DF 7614		ldr r7, [pc, #+1556] ; 0x20416104
005C123A  6038     		str r0, [r7]

#193						ADR		sProductionRequest_2001	{LNXT:101|-1|-1}
(*) DINT
005C123C  F8DF 052C		ldr r0, [pc, #+1324] ; 0x20415B16

#194						ST		JDecode.VAddress	{LNXT:101|-1|-1}
(*) @STRING
005C1240  F8DF 760C		ldr r7, [pc, #+1548] ; 0x20416108
005C1244  6038     		str r0, [r7]

#195						MOVE		1,JDecode.Count	{LNXT:101|-1|-1}
(*) @STRING
005C1246  2001     		mov r0, #1 ; 1
005C1248  F8DF 7608		ldr r7, [pc, #+1544] ; 0x2041610C
005C124C  6038     		str r0, [r7]

#196						MOVE		SIZE#sProductionRequest_2001,JDecode.Size	{LNXT:101|-1|-1}
(*) UDINT
005C124E  2021     		mov r0, #33 ; 33
005C1250  F8DF 7604		ldr r7, [pc, #+1540] ; 0x20416110
005C1254  6038     		str r0, [r7]

#197						CAL		JDecode	{LNXT:101|103|-1}
(*) UDINT
005C1256  E92D 0021		stmdb sp!, { r0, r5 }
005C125A  F8DF 55E4		ldr r5, [pc, #+1508] ; 0x2041605C
005C125E  F8DF 44E4		ldr r4, [pc, #+1252] ; 0x5BC4D8
005C1262  F044 0401		orr r4, r4, #1
005C1266  47A0     		blx r4
005C1268  E8BD 0021		ldmia sp!, { r0, r5 }

#198		
#199						(* JDecode *)
#200						ADR		ValueRxD	{LNXT:103|-1|-1}
(*) UDINT
005C126C  F8DF 05C8		ldr r0, [pc, #+1480] ; 0x20415E3D

#201						ST		JDecode.Object	{LNXT:103|-1|-1}
(*) @STRING
005C1270  F8DF 75D0		ldr r7, [pc, #+1488] ; 0x204160FC
005C1274  6038     		str r0, [r7]

#202						ADR		Json_Sr	{LNXT:103|-1|-1}
(*) @STRING
005C1276  F8DF 05E8		ldr r0, [pc, #+1512] ; 0x20416128

#203						ST		JDecode.Name	{LNXT:103|-1|-1}
(*) @STRING
005C127A  F8DF 75CC		ldr r7, [pc, #+1484] ; 0x20416100
005C127E  6038     		str r0, [r7]

#204						MOVE		STRING_TYPE,JDecode.VType	{LNXT:103|-1|-1}
(*) @STRING
005C1280  2032     		mov r0, #50 ; 50
005C1282  F8DF 75C8		ldr r7, [pc, #+1480] ; 0x20416104
005C1286  6038     		str r0, [r7]

#205						ADR		sSegmentRequirement_2001	{LNXT:103|-1|-1}
(*) DINT
005C1288  F8DF 04E4		ldr r0, [pc, #+1252] ; 0x20415B37

#206						ST		JDecode.VAddress	{LNXT:103|-1|-1}
(*) @STRING
005C128C  F8DF 75C0		ldr r7, [pc, #+1472] ; 0x20416108
005C1290  6038     		str r0, [r7]

#207						MOVE		1,JDecode.Count	{LNXT:103|-1|-1}
(*) @STRING
005C1292  2001     		mov r0, #1 ; 1
005C1294  F8DF 75BC		ldr r7, [pc, #+1468] ; 0x2041610C
005C1298  6038     		str r0, [r7]

#208						MOVE		SIZE#sSegmentRequirement_2001,JDecode.Size	{LNXT:103|-1|-1}
(*) UDINT
005C129A  2021     		mov r0, #33 ; 33
005C129C  F8DF 75B8		ldr r7, [pc, #+1464] ; 0x20416110
005C12A0  6038     		str r0, [r7]

#209						CAL		JDecode	{LNXT:103|105|-1}
(*) UDINT
005C12A2  E92D 0021		stmdb sp!, { r0, r5 }
005C12A6  F8DF 5598		ldr r5, [pc, #+1432] ; 0x2041605C
005C12AA  F8DF 4498		ldr r4, [pc, #+1176] ; 0x5BC4D8
005C12AE  F044 0401		orr r4, r4, #1
005C12B2  47A0     		blx r4
005C12B4  E8BD 0021		ldmia sp!, { r0, r5 }

#210		
#211						(* JDecode *)
#212						ADR		ValueRxD	{LNXT:105|-1|-1}
(*) UDINT
005C12B8  F8DF 057C		ldr r0, [pc, #+1404] ; 0x20415E3D

#213						ST		JDecode.Object	{LNXT:105|-1|-1}
(*) @STRING
005C12BC  F8DF 7584		ldr r7, [pc, #+1412] ; 0x204160FC
005C12C0  6038     		str r0, [r7]

#214						ADR		Json_PrSr	{LNXT:105|-1|-1}
(*) @STRING
005C12C2  F8DF 05A0		ldr r0, [pc, #+1440] ; 0x2041612C

#215						ST		JDecode.Name	{LNXT:105|-1|-1}
(*) @STRING
005C12C6  F8DF 7580		ldr r7, [pc, #+1408] ; 0x20416100
005C12CA  6038     		str r0, [r7]

#216						MOVE		STRING_TYPE,JDecode.VType	{LNXT:105|-1|-1}
(*) @STRING
005C12CC  2032     		mov r0, #50 ; 50
005C12CE  F8DF 757C		ldr r7, [pc, #+1404] ; 0x20416104
005C12D2  6038     		str r0, [r7]

#217						ADR		sPrSr_2001	{LNXT:105|-1|-1}
(*) DINT
005C12D4  F8DF 047C		ldr r0, [pc, #+1148] ; 0x20415602

#218						ST		JDecode.VAddress	{LNXT:105|-1|-1}
(*) @STRING
005C12D8  F8DF 7574		ldr r7, [pc, #+1396] ; 0x20416108
005C12DC  6038     		str r0, [r7]

#219						MOVE		1,JDecode.Count	{LNXT:105|-1|-1}
(*) @STRING
005C12DE  2001     		mov r0, #1 ; 1
005C12E0  F8DF 7570		ldr r7, [pc, #+1392] ; 0x2041610C
005C12E4  6038     		str r0, [r7]

#220						MOVE		SIZE#sPrSr_2001,JDecode.Size	{LNXT:105|-1|-1}
(*) UDINT
005C12E6  2021     		mov r0, #33 ; 33
005C12E8  F8DF 756C		ldr r7, [pc, #+1388] ; 0x20416110
005C12EC  6038     		str r0, [r7]

#221						CAL		JDecode	{LNXT:105|107|-1}
(*) UDINT
005C12EE  E92D 0021		stmdb sp!, { r0, r5 }
005C12F2  F8DF 554C		ldr r5, [pc, #+1356] ; 0x2041605C
005C12F6  F8DF 444C		ldr r4, [pc, #+1100] ; 0x5BC4D8
005C12FA  F044 0401		orr r4, r4, #1
005C12FE  47A0     		blx r4
005C1300  E8BD 0021		ldmia sp!, { r0, r5 }

#222		
#223						(* JDecode *)
#224						ADR		ValueRxD	{LNXT:107|-1|-1}
(*) UDINT
005C1304  F8DF 0530		ldr r0, [pc, #+1328] ; 0x20415E3D

#225						ST		JDecode.Object	{LNXT:107|-1|-1}
(*) @STRING
005C1308  F8DF 7538		ldr r7, [pc, #+1336] ; 0x204160FC
005C130C  6038     		str r0, [r7]

#226						ADR		Json_QtyTot	{LNXT:107|-1|-1}
(*) @STRING
005C130E  F8DF 0558		ldr r0, [pc, #+1368] ; 0x20416134

#227						ST		JDecode.Name	{LNXT:107|-1|-1}
(*) @STRING
005C1312  F8DF 7534		ldr r7, [pc, #+1332] ; 0x20416100
005C1316  6038     		str r0, [r7]

#228						MOVE		REAL_TYPE,JDecode.VType	{LNXT:107|-1|-1}
(*) @STRING
005C1318  202B     		mov r0, #43 ; 43
005C131A  F8DF 7530		ldr r7, [pc, #+1328] ; 0x20416104
005C131E  6038     		str r0, [r7]

#229						ADR		dPreSetQty	{LNXT:107|-1|-1}
(*) DINT
005C1320  F8DF 0548		ldr r0, [pc, #+1352] ; 0x2041613C

#230						ST		JDecode.VAddress	{LNXT:107|-1|-1}
(*) @REAL
005C1324  F8DF 7528		ldr r7, [pc, #+1320] ; 0x20416108
005C1328  6038     		str r0, [r7]

#231						MOVE		1,JDecode.Count	{LNXT:107|-1|-1}
(*) @REAL
005C132A  2001     		mov r0, #1 ; 1
005C132C  F8DF 7524		ldr r7, [pc, #+1316] ; 0x2041610C
005C1330  6038     		str r0, [r7]

#232						CAL		JDecode	{LNXT:107|109|-1}
(*) UDINT
005C1332  E92D 0021		stmdb sp!, { r0, r5 }
005C1336  F8DF 5508		ldr r5, [pc, #+1288] ; 0x2041605C
005C133A  F8DF 4408		ldr r4, [pc, #+1032] ; 0x5BC4D8
005C133E  F044 0401		orr r4, r4, #1
005C1342  47A0     		blx r4
005C1344  E8BD 0021		ldmia sp!, { r0, r5 }

#233		
#234						(* JDecode *)
#235						ADR		ValueRxD	{LNXT:109|-1|-1}
(*) UDINT
005C1348  F8DF 04EC		ldr r0, [pc, #+1260] ; 0x20415E3D

#236						ST		JDecode.Object	{LNXT:109|-1|-1}
(*) @STRING
005C134C  F8DF 74F4		ldr r7, [pc, #+1268] ; 0x204160FC
005C1350  6038     		str r0, [r7]

#237						ADR		Json_QtyGood	{LNXT:109|-1|-1}
(*) @STRING
005C1352  F8DF 051C		ldr r0, [pc, #+1308] ; 0x20416140

#238						ST		JDecode.Name	{LNXT:109|-1|-1}
(*) @STRING
005C1356  F8DF 74F0		ldr r7, [pc, #+1264] ; 0x20416100
005C135A  6038     		str r0, [r7]

#239						MOVE		REAL_TYPE,JDecode.VType	{LNXT:109|-1|-1}
(*) @STRING
005C135C  202B     		mov r0, #43 ; 43
005C135E  F8DF 74EC		ldr r7, [pc, #+1260] ; 0x20416104
005C1362  6038     		str r0, [r7]

#240						ADR		dPreSetQtyGood	{LNXT:109|-1|-1}
(*) DINT
005C1364  F8DF 050C		ldr r0, [pc, #+1292] ; 0x2041614C

#241						ST		JDecode.VAddress	{LNXT:109|-1|-1}
(*) @REAL
005C1368  F8DF 74E4		ldr r7, [pc, #+1252] ; 0x20416108
005C136C  6038     		str r0, [r7]

#242						MOVE		1,JDecode.Count	{LNXT:109|-1|-1}
(*) @REAL
005C136E  2001     		mov r0, #1 ; 1
005C1370  F8DF 74E0		ldr r7, [pc, #+1248] ; 0x2041610C
005C1374  6038     		str r0, [r7]

#243						CAL		JDecode	{LNXT:109|111|-1}
(*) UDINT
005C1376  E92D 0021		stmdb sp!, { r0, r5 }
005C137A  F8DF 54C4		ldr r5, [pc, #+1220] ; 0x2041605C
005C137E  F8DF 43C4		ldr r4, [pc, #+964] ; 0x5BC4D8
005C1382  F044 0401		orr r4, r4, #1
005C1386  47A0     		blx r4
005C1388  E8BD 0021		ldmia sp!, { r0, r5 }

#244		
#245						(* JDecode *)
#246						ADR		ValueRxD	{LNXT:111|-1|-1}
(*) UDINT
005C138C  F8DF 04A8		ldr r0, [pc, #+1192] ; 0x20415E3D

#247						ST		JDecode.Object	{LNXT:111|-1|-1}
(*) @STRING
005C1390  F8DF 74B0		ldr r7, [pc, #+1200] ; 0x204160FC
005C1394  6038     		str r0, [r7]

#248						ADR		Json_QtyScrap	{LNXT:111|-1|-1}
(*) @STRING
005C1396  F8DF 04E0		ldr r0, [pc, #+1248] ; 0x20416150

#249						ST		JDecode.Name	{LNXT:111|-1|-1}
(*) @STRING
005C139A  F8DF 74AC		ldr r7, [pc, #+1196] ; 0x20416100
005C139E  6038     		str r0, [r7]

#250						MOVE		REAL_TYPE,JDecode.VType	{LNXT:111|-1|-1}
(*) @STRING
005C13A0  202B     		mov r0, #43 ; 43
005C13A2  F8DF 74A8		ldr r7, [pc, #+1192] ; 0x20416104
005C13A6  6038     		str r0, [r7]

#251						ADR		dPreSetQtyScrap	{LNXT:111|-1|-1}
(*) DINT
005C13A8  F8DF 04D0		ldr r0, [pc, #+1232] ; 0x2041615C

#252						ST		JDecode.VAddress	{LNXT:111|-1|-1}
(*) @REAL
005C13AC  F8DF 74A0		ldr r7, [pc, #+1184] ; 0x20416108
005C13B0  6038     		str r0, [r7]

#253						MOVE		1,JDecode.Count	{LNXT:111|-1|-1}
(*) @REAL
005C13B2  2001     		mov r0, #1 ; 1
005C13B4  F8DF 749C		ldr r7, [pc, #+1180] ; 0x2041610C
005C13B8  6038     		str r0, [r7]

#254						CAL		JDecode	{LNXT:111|113|-1}
(*) UDINT
005C13BA  E92D 0021		stmdb sp!, { r0, r5 }
005C13BE  F8DF 5480		ldr r5, [pc, #+1152] ; 0x2041605C
005C13C2  F8DF 4380		ldr r4, [pc, #+896] ; 0x5BC4D8
005C13C6  F044 0401		orr r4, r4, #1
005C13CA  47A0     		blx r4
005C13CC  E8BD 0021		ldmia sp!, { r0, r5 }

#255		
#256						(* JDecode *)
#257						ADR		ValueRxD	{LNXT:113|-1|-1}
(*) UDINT
005C13D0  F8DF 0464		ldr r0, [pc, #+1124] ; 0x20415E3D

#258						ST		JDecode.Object	{LNXT:113|-1|-1}
(*) @STRING
005C13D4  F8DF 746C		ldr r7, [pc, #+1132] ; 0x204160FC
005C13D8  6038     		str r0, [r7]

#259						ADR		Json_MaterialDefinition	{LNXT:113|-1|-1}
(*) @STRING
005C13DA  F8DF 04A4		ldr r0, [pc, #+1188] ; 0x20416160

#260						ST		JDecode.Name	{LNXT:113|-1|-1}
(*) @STRING
005C13DE  F8DF 7468		ldr r7, [pc, #+1128] ; 0x20416100
005C13E2  6038     		str r0, [r7]

#261						MOVE		STRING_TYPE,JDecode.VType	{LNXT:113|-1|-1}
(*) @STRING
005C13E4  2032     		mov r0, #50 ; 50
005C13E6  F8DF 7464		ldr r7, [pc, #+1124] ; 0x20416104
005C13EA  6038     		str r0, [r7]

#262						ADR		sMaterialDefinition_2001	{LNXT:113|-1|-1}
(*) DINT
005C13EC  F8DF 0384		ldr r0, [pc, #+900] ; 0x20415B58

#263						ST		JDecode.VAddress	{LNXT:113|-1|-1}
(*) @STRING
005C13F0  F8DF 745C		ldr r7, [pc, #+1116] ; 0x20416108
005C13F4  6038     		str r0, [r7]

#264						MOVE		1,JDecode.Count	{LNXT:113|-1|-1}
(*) @STRING
005C13F6  2001     		mov r0, #1 ; 1
005C13F8  F8DF 7458		ldr r7, [pc, #+1112] ; 0x2041610C
005C13FC  6038     		str r0, [r7]

#265						MOVE		SIZE#sMaterialDefinition_2001,JDecode.Size	{LNXT:113|-1|-1}
(*) UDINT
005C13FE  2021     		mov r0, #33 ; 33
005C1400  F8DF 7454		ldr r7, [pc, #+1108] ; 0x20416110
005C1404  6038     		str r0, [r7]

#266						CAL		JDecode	{LNXT:113|115|-1}
(*) UDINT
005C1406  E92D 0021		stmdb sp!, { r0, r5 }
005C140A  F8DF 5434		ldr r5, [pc, #+1076] ; 0x2041605C
005C140E  F8DF 4334		ldr r4, [pc, #+820] ; 0x5BC4D8
005C1412  F044 0401		orr r4, r4, #1
005C1416  47A0     		blx r4
005C1418  E8BD 0021		ldmia sp!, { r0, r5 }

#267		
#268						(* JDecode *)
#269						ADR		ValueRxD	{LNXT:115|-1|-1}
(*) UDINT
005C141C  F8DF 0418		ldr r0, [pc, #+1048] ; 0x20415E3D

#270						ST		JDecode.Object	{LNXT:115|-1|-1}
(*) @STRING
005C1420  F8DF 7420		ldr r7, [pc, #+1056] ; 0x204160FC
005C1424  6038     		str r0, [r7]

#271						ADR		Json_PartProgram	{LNXT:115|-1|-1}
(*) @STRING
005C1426  F8DF 045C		ldr r0, [pc, #+1116] ; 0x20416174

#272						ST		JDecode.Name	{LNXT:115|-1|-1}
(*) @STRING
005C142A  F8DF 741C		ldr r7, [pc, #+1052] ; 0x20416100
005C142E  6038     		str r0, [r7]

#273						MOVE		STRING_TYPE,JDecode.VType	{LNXT:115|-1|-1}
(*) @STRING
005C1430  2032     		mov r0, #50 ; 50
005C1432  F8DF 7418		ldr r7, [pc, #+1048] ; 0x20416104
005C1436  6038     		str r0, [r7]

#274						ADR		sPartProgram_2001	{LNXT:115|-1|-1}
(*) DINT
005C1438  F8DF 032C		ldr r0, [pc, #+812] ; 0x20415AF5

#275						ST		JDecode.VAddress	{LNXT:115|-1|-1}
(*) @STRING
005C143C  F8DF 7410		ldr r7, [pc, #+1040] ; 0x20416108
005C1440  6038     		str r0, [r7]

#276						MOVE		1,JDecode.Count	{LNXT:115|-1|-1}
(*) @STRING
005C1442  2001     		mov r0, #1 ; 1
005C1444  F8DF 740C		ldr r7, [pc, #+1036] ; 0x2041610C
005C1448  6038     		str r0, [r7]

#277						MOVE		SIZE#sPartProgram_2001,JDecode.Size	{LNXT:115|-1|-1}
(*) UDINT
005C144A  2021     		mov r0, #33 ; 33
005C144C  F8DF 7408		ldr r7, [pc, #+1032] ; 0x20416110
005C1450  6038     		str r0, [r7]

#278						CAL		JDecode	{LNXT:115|118|-1}
(*) UDINT
005C1452  E92D 0021		stmdb sp!, { r0, r5 }
005C1456  F8DF 53E8		ldr r5, [pc, #+1000] ; 0x2041605C
005C145A  F8DF 42E8		ldr r4, [pc, #+744] ; 0x5BC4D8
005C145E  F044 0401		orr r4, r4, #1
005C1462  47A0     		blx r4
005C1464  E8BD 0021		ldmia sp!, { r0, r5 }

#279		
#280		
#281						(* IF sPrSr_2001 <> '') AND ((sProductionRequest_OLD_2001 = '') OR (sPrSr_2001 <> sProductionRequest_OLD_2001 *)
#282						LD		sPrSr_2001	{LNXT:118|-1|-1}
(*) UNDEF
005C1468  F8DF 02E8		ldr r0, [pc, #+744] ; 0x20415602

#283						NE		sProductionRequest_OLD_2001	{LNXT:118|-1|-1}
(*) STRING
005C146C  B082     		sub sp, sp, #8
005C146E  F8CD 1000		str r1, [sp]
005C1472  F8DF 12E4		ldr r1, [pc, #+740] ; 0x20415623
005C1476  F8DF 42AC		ldr r4, [pc, #+684] ; 0x4BC63D
005C147A  F044 0401		orr r4, r4, #1
005C147E  47A0     		blx r4
005C1480  F8DD 1000		ldr r1, [sp]
005C1484  B002     		add sp, sp, #8

#284						OR(		sProductionRequest_OLD_2001	{LNXT:118|-1|-1}
(*) BOOL
005C1486  B082     		sub sp, sp, #8
005C1488  F8CD 0000		str r0, [sp]
005C148C  F8DF 02C8		ldr r0, [pc, #+712] ; 0x20415623

#285						EQ		''	{LNXT:118|-1|-1}
(*) STRING
005C1490  B082     		sub sp, sp, #8
005C1492  F8CD 1000		str r1, [sp]
005C1496  F8DF 7298		ldr r7, [pc, #+664] ; 0x5BA43A
005C149A  4639     		mov r1, r7
005C149C  F8DF 4280		ldr r4, [pc, #+640] ; 0x4BC61D
005C14A0  F044 0401		orr r4, r4, #1
005C14A4  47A0     		blx r4
005C14A6  F8DD 1000		ldr r1, [sp]
005C14AA  B002     		add sp, sp, #8

#286						)	{LNXT:118|-1|-1}
(*) BOOL
005C14AC  4607     		mov r7, r0
005C14AE  F8DD 0000		ldr r0, [sp]
005C14B2  B002     		add sp, sp, #8
005C14B4  4338     		orr r0, r0, r7

#287						AND(		sPrSr_2001	{LNXT:118|-1|-1}
(*) BOOL
005C14B6  B082     		sub sp, sp, #8
005C14B8  F8CD 0000		str r0, [sp]
005C14BC  F8DF 0294		ldr r0, [pc, #+660] ; 0x20415602

#288						NE		''	{LNXT:118|-1|-1}
(*) STRING
005C14C0  B082     		sub sp, sp, #8
005C14C2  F8CD 1000		str r1, [sp]
005C14C6  F8DF 7268		ldr r7, [pc, #+616] ; 0x5BA43A
005C14CA  4639     		mov r1, r7
005C14CC  F8DF 4254		ldr r4, [pc, #+596] ; 0x4BC63D
005C14D0  F044 0401		orr r4, r4, #1
005C14D4  47A0     		blx r4
005C14D6  F8DD 1000		ldr r1, [sp]
005C14DA  B002     		add sp, sp, #8

#289						)	{LNXT:118|-1|-1}
(*) BOOL
005C14DC  4607     		mov r7, r0
005C14DE  F8DD 0000		ldr r0, [sp]
005C14E2  B002     		add sp, sp, #8
005C14E4  4038     		and r0, r0, r7

#290						JMPCN	$label6	{LNXT:118|119|127}
(-) BOOL
005C14E6  2800     		cmp r0, #0
005C14E8  D01C     		beq #56 ; 0x005C1524


#291		
#292						(* THEN *)
#293		
#294							(* dCntRT_2001 := dPreSetQty; *)
#295							MOVE		dPreSetQty,dCntRT_2001	{LNXT:119|120|-1}
(*) BOOL
005C14EC  F8DF 737C		ldr r7, [pc, #+892] ; 0x2041613C
005C14F0  6838     		ldr r0, [r7]
005C14F2  F8DF 7258		ldr r7, [pc, #+600] ; 0x204155F8
005C14F6  6038     		str r0, [r7]

#296		
#297							(* dCntSC_2001 := dPreSetQtyScrap; *)
#298							MOVE		dPreSetQtyScrap,dCntSC_2001	{LNXT:120|121|-1}
(*) REAL
005C14F8  F8DF 7380		ldr r7, [pc, #+896] ; 0x2041615C
005C14FC  6838     		ldr r0, [r7]
005C14FE  F8DF 7250		ldr r7, [pc, #+592] ; 0x204155FC
005C1502  6038     		str r0, [r7]

#299		
#300							(* bCntPause_2001:= FALSE; *)
#301							MOVE		FALSE,bCntPause_2001	{LNXT:121|122|-1}
(*) REAL
005C1504  2000     		mov r0, #0 ; 0
005C1506  F8DF 725C		ldr r7, [pc, #+604] ; 0x204159F3
005C150A  7038     		strb r0, [r7]

#302		
#303							(* bCntReset_2001:=FALSE; *)
#304							MOVE		FALSE,bCntReset_2001	{LNXT:122|123|-1}
(*) BOOL
005C150C  2000     		mov r0, #0 ; 0
005C150E  F8DF 724C		ldr r7, [pc, #+588] ; 0x204159F1
005C1512  7038     		strb r0, [r7]

#305		
#306							(* bPreSetCnt_2001 := TRUE; *)
#307							MOVE		TRUE,bPreSetCnt_2001	{LNXT:123|124|-1}
(*) BOOL
005C1514  2001     		mov r0, #1 ; 1
005C1516  F8DF 7248		ldr r7, [pc, #+584] ; 0x204159F2
005C151A  7038     		strb r0, [r7]

#308		
#309							(* bLastMsg_2001 := FALSE; *)
#310							MOVE		FALSE,bLastMsg_2001	{LNXT:124|127|-1}
(*) BOOL
005C151C  2000     		mov r0, #0 ; 0
005C151E  F8DF 7258		ldr r7, [pc, #+600] ; 0x20415B7B
005C1522  7038     		strb r0, [r7]

#311		
#312		$label6:
#313						(* END_IF *)
#314		
#315		
#316						(* IF sPrSr_2001 = ' *)
#317						LD		sPrSr_2001	{LNXT:127|-1|-1}
(*) UNDEF
005C1524  F8DF 022C		ldr r0, [pc, #+556] ; 0x20415602

#318						EQ		''	{LNXT:127|-1|-1}
(*) STRING
005C1528  B082     		sub sp, sp, #8
005C152A  F8CD 1000		str r1, [sp]
005C152E  F8DF 7200		ldr r7, [pc, #+512] ; 0x5BA43A
005C1532  4639     		mov r1, r7
005C1534  F8DF 41E8		ldr r4, [pc, #+488] ; 0x4BC61D
005C1538  F044 0401		orr r4, r4, #1
005C153C  47A0     		blx r4
005C153E  F8DD 1000		ldr r1, [sp]
005C1542  B002     		add sp, sp, #8

#319						JMPCN	$label7	{LNXT:127|128|135}
(-) BOOL
005C1544  2800     		cmp r0, #0
005C1546  D018     		beq #48 ; 0x005C157A


#320		
#321						(* THEN *)
#322		
#323							(* dCntRT_2001 := 0.0; *)
#324							MOVE		0.0,dCntRT_2001	{LNXT:128|129|-1}
(*) BOOL
005C154A  F8DF 71E8		ldr r7, [pc, #+488] ; 0x5BA43C
005C154E  6838     		ldr r0, [r7]
005C1550  F8DF 71F8		ldr r7, [pc, #+504] ; 0x204155F8
005C1554  6038     		str r0, [r7]

#325		
#326							(* dCntSC_2001 := 0.0; *)
#327							MOVE		0.0,dCntSC_2001	{LNXT:129|130|-1}
(*) REAL
005C1556  F8DF 71DC		ldr r7, [pc, #+476] ; 0x5BA43C
005C155A  6838     		ldr r0, [r7]
005C155C  F8DF 71F0		ldr r7, [pc, #+496] ; 0x204155FC
005C1560  6038     		str r0, [r7]

#328		
#329							(* bCntPause_2001:= TRUE; *)
#330							MOVE		TRUE,bCntPause_2001	{LNXT:130|131|-1}
(*) REAL
005C1562  2001     		mov r0, #1 ; 1
005C1564  F8DF 71FC		ldr r7, [pc, #+508] ; 0x204159F3
005C1568  7038     		strb r0, [r7]

#331		
#332							(* bCntReset_2001:=TRUE; *)
#333							MOVE		TRUE,bCntReset_2001	{LNXT:131|132|-1}
(*) BOOL
005C156A  2001     		mov r0, #1 ; 1
005C156C  F8DF 71EC		ldr r7, [pc, #+492] ; 0x204159F1
005C1570  7038     		strb r0, [r7]

#334		
#335							(* bPreSetCnt_2001 := TRUE; *)
#336							MOVE		TRUE,bPreSetCnt_2001	{LNXT:132|135|-1}
(*) BOOL
005C1572  2001     		mov r0, #1 ; 1
005C1574  F8DF 71E8		ldr r7, [pc, #+488] ; 0x204159F2
005C1578  7038     		strb r0, [r7]

#337		
#338		$label7:
#339						(* END_IF *)
#340		
#341						(* sProductionRequest_OLD_2001 := sPrSr_2001; *)
#342						MOVE		sPrSr_2001,sProductionRequest_OLD_2001	{LNXT:135|143|-1}
(*) BOOL
005C157A  F8DF 01D8		ldr r0, [pc, #+472] ; 0x20415602
005C157E  B082     		sub sp, sp, #8
005C1580  F8CD 0000		str r0, [sp]
005C1584  E92D 0006		stmdb sp!, { r1, r2 }
005C1588  2221     		mov r2, #33 ; 33
005C158A  F8DF 11CC		ldr r1, [pc, #+460] ; 0x20415623
005C158E  F8DF 4188		ldr r4, [pc, #+392] ; 0x4BA059
005C1592  F044 0401		orr r4, r4, #1
005C1596  47A0     		blx r4
005C1598  E8BD 0006		ldmia sp!, { r1, r2 }
005C159C  F8DD 0000		ldr r0, [sp]
005C15A0  B002     		add sp, sp, #8

#343		
#344		$label5:
#345					(* END_IF *)
#346		
#347					(* SString:= CONCAT(TopicSub_2001,TopicSubInManualDeclaration); *)
#348					LDP0		TopicSub_2001	{LNXT:143|144|-1}
(-) STRING
#349					CONCAT		TopicSubInManualDeclaration	{LNXT:143|144|-1}
(*) STRING
005C15A2  F8DF 0298		ldr r0, [pc, #+664] ; 0x2041603E
005C15A6  B082     		sub sp, sp, #8
005C15A8  F8CD 1000		str r1, [sp]
005C15AC  F8DF 12D8		ldr r1, [pc, #+728] ; 0x20416181
005C15B0  F8DF 4168		ldr r4, [pc, #+360] ; 0x4BC265
005C15B4  F044 0401		orr r4, r4, #1
005C15B8  47A0     		blx r4
005C15BA  F8DD 1000		ldr r1, [sp]
005C15BE  B002     		add sp, sp, #8

#350					ST		SString	{LNXT:143|144|-1}
(*) STRING
005C15C0  B082     		sub sp, sp, #8
005C15C2  F8CD 0000		str r0, [sp]
005C15C6  E92D 0006		stmdb sp!, { r1, r2 }
005C15CA  223D     		mov r2, #61 ; 61
005C15CC  F8DF 12BC		ldr r1, [pc, #+700] ; 0x20416194
005C15D0  F8DF 4144		ldr r4, [pc, #+324] ; 0x4BA059
005C15D4  F044 0401		orr r4, r4, #1
005C15D8  47A0     		blx r4
005C15DA  E8BD 0006		ldmia sp!, { r1, r2 }
005C15DE  F8DD 0000		ldr r0, [sp]
005C15E2  B002     		add sp, sp, #8

#351		
#352		
#353					(* IF SString = TopicRxD *)
#354					LD		SString	{LNXT:144|-1|-1}
(*) UNDEF
005C15E4  F8DF 02A4		ldr r0, [pc, #+676] ; 0x20416194

#355					EQ		TopicRxD	{LNXT:144|-1|-1}
(*) STRING
005C15E8  B082     		sub sp, sp, #8
005C15EA  F8CD 1000		str r1, [sp]
005C15EE  F8DF 1244		ldr r1, [pc, #+580] ; 0x20415E00
005C15F2  F8DF 412C		ldr r4, [pc, #+300] ; 0x4BC61D
005C15F6  F044 0401		orr r4, r4, #1
005C15FA  47A0     		blx r4
005C15FC  F8DD 1000		ldr r1, [sp]
005C1600  B002     		add sp, sp, #8

#356					JMPCN	$label8	{LNXT:144|146|157}
(-) BOOL
005C1602  2800     		cmp r0, #0
005C1604  D04C     		beq #152 ; 0x005C16A0


#357		
#358					(* THEN *)
#359		
#360						(* bManualDecl := (SysVsscanf(ADR(ValueRxD), ADR('%f'), REAL_TYPE, ADR(dManualDeclaration))); *)
#361						ADR		'%f'	{LNXT:146|147|-1}
(*) BOOL
005C1608  F8DF 011C		ldr r0, [pc, #+284] ; 0x5BA11C

#362						ST		$$TMP3	{LNXT:146|147|-1}
(*) @STRING
005C160C  F8DF 7280		ldr r7, [pc, #+640] ; 0x204161D4
005C1610  6038     		str r0, [r7]

#363						ADR		dManualDeclaration	{LNXT:146|147|-1}
(*) @STRING
005C1612  F8DF 0280		ldr r0, [pc, #+640] ; 0x204161D8

#364						ST		$$TMP4	{LNXT:146|147|-1}
(*) @REAL
005C1616  F8DF 7280		ldr r7, [pc, #+640] ; 0x204161DC
005C161A  6038     		str r0, [r7]

#365						ADR		ValueRxD	{LNXT:146|147|-1}
(*) @REAL
005C161C  F8DF 0218		ldr r0, [pc, #+536] ; 0x20415E3D

#366						SysVsscanf		$$TMP3, REAL_TYPE, $$TMP4	{LNXT:146|147|-1}
(*) @STRING
005C1620  F8DF 726C		ldr r7, [pc, #+620] ; 0x204161D4
005C1624  6839     		ldr r1, [r7]
005C1626  222B     		mov r2, #43 ; 43
005C1628  F8DF 726C		ldr r7, [pc, #+620] ; 0x204161DC
005C162C  683F     		ldr r7, [r7]
005C162E  463B     		mov r3, r7
005C1630  F8DF 40DC		ldr r4, [pc, #+220] ; 0x4A1475
005C1634  F044 0401		orr r4, r4, #1
005C1638  47A0     		blx r4

#367						ST		bManualDecl	{LNXT:146|147|-1}
(*) BOOL
005C163A  F8DF 7170		ldr r7, [pc, #+368] ; 0x20415C4A
005C163E  7038     		strb r0, [r7]

#368		
#369		
#370						(* IF bManualDecl) AND (sProductionRequest_2001 <> ' *)
#371						LD		sProductionRequest_2001	{LNXT:147|-1|-1}
(*) UNDEF
005C1640  F8DF 0128		ldr r0, [pc, #+296] ; 0x20415B16

#372						NE		''	{LNXT:147|-1|-1}
(*) STRING
005C1644  B082     		sub sp, sp, #8
005C1646  F8CD 1000		str r1, [sp]
005C164A  F8DF 70E4		ldr r7, [pc, #+228] ; 0x5BA43A
005C164E  4639     		mov r1, r7
005C1650  F8DF 40D0		ldr r4, [pc, #+208] ; 0x4BC63D
005C1654  F044 0401		orr r4, r4, #1
005C1658  47A0     		blx r4
005C165A  F8DD 1000		ldr r1, [sp]
005C165E  B002     		add sp, sp, #8

#373						AND		bManualDecl	{LNXT:147|-1|-1}
(*) BOOL
005C1660  F8DF 7148		ldr r7, [pc, #+328] ; 0x20415C4A
005C1664  783F     		ldrb r7, [r7]
005C1666  4038     		and r0, r0, r7

#374						JMPCN	$label9	{LNXT:147|148|157}
(-) BOOL
005C1668  2800     		cmp r0, #0
005C166A  D019     		beq #50 ; 0x005C16A0


#375		
#376						(* THEN *)
#377		
#378							(* dCntRT_2001 := dCntRT_2001 + dManualDeclaration; *)
#379							LD		dCntRT_2001	{LNXT:148|149|-1}
(*) UNDEF
005C166E  F8DF 70DC		ldr r7, [pc, #+220] ; 0x204155F8
005C1672  6838     		ldr r0, [r7]

#380							ADD		dManualDeclaration	{LNXT:148|149|-1}
(*) REAL
005C1674  F8DF 721C		ldr r7, [pc, #+540] ; 0x204161D8
005C1678  683F     		ldr r7, [r7]
005C167A  B082     		sub sp, sp, #8
005C167C  F8CD 1000		str r1, [sp]
005C1680  4639     		mov r1, r7
005C1682  F8DF 4090		ldr r4, [pc, #+144] ; 0x4B94D5
005C1686  F044 0401		orr r4, r4, #1
005C168A  47A0     		blx r4
005C168C  F8DD 1000		ldr r1, [sp]
005C1690  B002     		add sp, sp, #8

#381							ST		dCntRT_2001	{LNXT:148|149|-1}
(*) REAL
005C1692  F8DF 70B8		ldr r7, [pc, #+184] ; 0x204155F8
005C1696  6038     		str r0, [r7]

#382		
#383							(* bPreSetCnt_2001 := TRUE; *)
#384							MOVE		TRUE,bPreSetCnt_2001	{LNXT:149|157|-1}
(*) REAL
005C1698  2001     		mov r0, #1 ; 1
005C169A  F8DF 70C4		ldr r7, [pc, #+196] ; 0x204159F2
005C169E  7038     		strb r0, [r7]

#385		
#386		$label9:
#387						(* END_IF *)
#388		
#389		$label8:
#390					(* END_IF *)
#391		
#392					(* SString:= CONCAT(TopicSub_2001,TopicSubInScrapDeclaration); *)
#393					LDP0		TopicSub_2001	{LNXT:157|158|-1}
(-) BOOL
#394					CONCAT		TopicSubInScrapDeclaration	{LNXT:157|158|-1}
(*) BOOL
005C16A0  F8DF 0198		ldr r0, [pc, #+408] ; 0x2041603E
005C16A4  B082     		sub sp, sp, #8
005C16A6  F8CD 1000		str r1, [sp]
005C16AA  F8DF 11F0		ldr r1, [pc, #+496] ; 0x204161E0
005C16AE  F8DF 406C		ldr r4, [pc, #+108] ; 0x4BC265
005C16B2  F044 0401		orr r4, r4, #1
005C16B6  47A0     		blx r4
005C16B8  F8DD 1000		ldr r1, [sp]
005C16BC  B002     		add sp, sp, #8

#395					ST		SString	{LNXT:157|158|-1}
(*) STRING
005C16BE  B082     		sub sp, sp, #8
005C16C0  F8CD 0000		str r0, [sp]
005C16C4  E92D 0006		stmdb sp!, { r1, r2 }
005C16C8  223D     		mov r2, #61 ; 61
005C16CA  F8DF 11C0		ldr r1, [pc, #+448] ; 0x20416194
005C16CE  F8DF 4048		ldr r4, [pc, #+72] ; 0x4BA059
005C16D2  F044 0401		orr r4, r4, #1
005C16D6  47A0     		blx r4
005C16D8  E8BD 0006		ldmia sp!, { r1, r2 }
005C16DC  F8DD 0000		ldr r0, [sp]
005C16E0  B002     		add sp, sp, #8

#396		
#397		
#398					(* IF SString = TopicRxD *)
#399					LD		SString	{LNXT:158|-1|-1}
(*) UNDEF
005C16E2  F8DF 01A8		ldr r0, [pc, #+424] ; 0x20416194

#400					EQ		TopicRxD	{LNXT:158|-1|-1}
(*) STRING
005C16E6  B082     		sub sp, sp, #8
005C16E8  F8CD 1000		str r1, [sp]
005C16EC  F8DF 1144		ldr r1, [pc, #+324] ; 0x20415E00
005C16F0  F8DF 402C		ldr r4, [pc, #+44] ; 0x4BC61D
005C16F4  F044 0401		orr r4, r4, #1
005C16F8  47A0     		blx r4
005C16FA  F8DD 1000		ldr r1, [sp]
005C16FE  B002     		add sp, sp, #8

005C1700  E0D0     		b #416

005C1704  00000201		; 0x00000201
005C1708  0000075B		; 0x0000075B
005C170C  004A04E5		; 0x004A04E5
005C1710  004A1475		; 0x004A1475
005C1714  004B94D5		; 0x004B94D5
005C1718  004BA059		; 0x004BA059
005C171C  004BC265		; 0x004BC265
005C1720  004BC61D		; 0x004BC61D
005C1724  004BC63D		; 0x004BC63D
005C1728  005BA11C		; 0x005BA11C
005C172C  005BA42C		; 0x005BA42C
005C1730  005BA43A		; 0x005BA43A
005C1734  005BA43C		; 0x005BA43C
005C1738  005BA448		; 0x005BA448
005C173C  005BA458		; 0x005BA458
005C1740  005BA46C		; 0x005BA46C
005C1744  005BC4D8		; 0x005BC4D8
005C1748  005BD64A		; 0x005BD64A
005C174C  204155F8		; 0x204155F8
005C1750  204155FC		; 0x204155FC
005C1754  20415602		; 0x20415602
005C1758  20415623		; 0x20415623
005C175C  204159F1		; 0x204159F1
005C1760  204159F2		; 0x204159F2
005C1764  204159F3		; 0x204159F3
005C1768  20415AF5		; 0x20415AF5
005C176C  20415B16		; 0x20415B16
005C1770  20415B37		; 0x20415B37
005C1774  20415B58		; 0x20415B58
005C1778  20415B7B		; 0x20415B7B
005C177C  20415B8C		; 0x20415B8C
005C1780  20415BDC		; 0x20415BDC
005C1784  20415BDD		; 0x20415BDD
005C1788  20415BDE		; 0x20415BDE
005C178C  20415BDF		; 0x20415BDF
005C1790  20415BE0		; 0x20415BE0
005C1794  20415BF0		; 0x20415BF0
005C1798  20415BFB		; 0x20415BFB
005C179C  20415C38		; 0x20415C38
005C17A0  20415C3C		; 0x20415C3C
005C17A4  20415C40		; 0x20415C40
005C17A8  20415C44		; 0x20415C44
005C17AC  20415C4A		; 0x20415C4A
005C17B0  20415C4B		; 0x20415C4B
005C17B4  20415C4C		; 0x20415C4C
005C17B8  20415C50		; 0x20415C50
005C17BC  20415C71		; 0x20415C71
005C17C0  20415C92		; 0x20415C92
005C17C4  20415CB3		; 0x20415CB3
005C17C8  20415CB4		; 0x20415CB4
005C17CC  20415CBC		; 0x20415CBC
005C17D0  20415CC0		; 0x20415CC0
005C17D4  20415CC4		; 0x20415CC4
005C17D8  20415CC8		; 0x20415CC8
005C17DC  20415CCC		; 0x20415CCC
005C17E0  20415CCE		; 0x20415CCE
005C17E4  20415CD0		; 0x20415CD0
005C17E8  20415CD2		; 0x20415CD2
005C17EC  20415CD4		; 0x20415CD4
005C17F0  20415CD8		; 0x20415CD8
005C17F4  20415CDC		; 0x20415CDC
005C17F8  20415D64		; 0x20415D64
005C17FC  20415D65		; 0x20415D65
005C1800  20415D68		; 0x20415D68
005C1804  20415D6C		; 0x20415D6C
005C1808  20415D78		; 0x20415D78
005C180C  20415D7C		; 0x20415D7C
005C1810  20415D80		; 0x20415D80
005C1814  20415D90		; 0x20415D90
005C1818  20415D94		; 0x20415D94
005C181C  20415D98		; 0x20415D98
005C1820  20415D9C		; 0x20415D9C
005C1824  20415DA0		; 0x20415DA0
005C1828  20415DA1		; 0x20415DA1
005C182C  20415DA2		; 0x20415DA2
005C1830  20415DA5		; 0x20415DA5
005C1834  20415E00		; 0x20415E00
005C1838  20415E3D		; 0x20415E3D
005C183C  2041603E		; 0x2041603E
005C1840  2041605C		; 0x2041605C
005C1844  204160FC		; 0x204160FC
005C1848  20416100		; 0x20416100
005C184C  20416104		; 0x20416104
005C1850  20416108		; 0x20416108
005C1854  2041610C		; 0x2041610C
005C1858  20416110		; 0x20416110
005C185C  20416124		; 0x20416124
005C1860  20416128		; 0x20416128
005C1864  2041612C		; 0x2041612C
005C1868  20416134		; 0x20416134
005C186C  2041613C		; 0x2041613C
005C1870  20416140		; 0x20416140
005C1874  2041614C		; 0x2041614C
005C1878  20416150		; 0x20416150
005C187C  2041615C		; 0x2041615C
005C1880  20416160		; 0x20416160
005C1884  20416174		; 0x20416174
005C1888  20416181		; 0x20416181
005C188C  20416194		; 0x20416194
005C1890  204161D4		; 0x204161D4
005C1894  204161D8		; 0x204161D8
005C1898  204161DC		; 0x204161DC
005C189C  204161E0		; 0x204161E0
005C18A0  20419A81		; 0x20419A81

#401					JMPCN	$label10	{LNXT:158|160|173}
(-) BOOL
005C18A4  2800     		cmp r0, #0
005C18A6  D04C     		beq #152 ; 0x005C1942


#402		
#403					(* THEN *)
#404		
#405						(* bScrapDecl := (SysVsscanf(ADR(ValueRxD), ADR('%f'), REAL_TYPE, ADR(dScrapDeclaration))); *)
#406						ADR		'%f'	{LNXT:160|161|-1}
(*) BOOL
005C18AA  F85F 0184		ldr r0, [pc, #-388] ; 0x5BA11C

#407						ST		$$TMP3	{LNXT:160|161|-1}
(*) @STRING
005C18AE  F85F 7020		ldr r7, [pc, #-32] ; 0x204161D4
005C18B2  6038     		str r0, [r7]

#408						ADR		dScrapDeclaration	{LNXT:160|161|-1}
(*) @STRING
005C18B4  F8DF 0814		ldr r0, [pc, #+2068] ; 0x204161F4

#409						ST		$$TMP4	{LNXT:160|161|-1}
(*) @REAL
005C18B8  F85F 7024		ldr r7, [pc, #-36] ; 0x204161DC
005C18BC  6038     		str r0, [r7]

#410						ADR		ValueRxD	{LNXT:160|161|-1}
(*) @REAL
005C18BE  F85F 0088		ldr r0, [pc, #-136] ; 0x20415E3D

#411						SysVsscanf		$$TMP3, REAL_TYPE, $$TMP4	{LNXT:160|161|-1}
(*) @STRING
005C18C2  F85F 7034		ldr r7, [pc, #-52] ; 0x204161D4
005C18C6  6839     		ldr r1, [r7]
005C18C8  222B     		mov r2, #43 ; 43
005C18CA  F85F 7034		ldr r7, [pc, #-52] ; 0x204161DC
005C18CE  683F     		ldr r7, [r7]
005C18D0  463B     		mov r3, r7
005C18D2  F85F 41C4		ldr r4, [pc, #-452] ; 0x4A1475
005C18D6  F044 0401		orr r4, r4, #1
005C18DA  47A0     		blx r4

#412						ST		bScrapDecl	{LNXT:160|161|-1}
(*) BOOL
005C18DC  F8DF 77E8		ldr r7, [pc, #+2024] ; 0x20416059
005C18E0  7038     		strb r0, [r7]

#413		
#414		
#415						(* IF bScrapDecl) AND (sProductionRequest_2001 <> ' *)
#416						LD		sProductionRequest_2001	{LNXT:161|-1|-1}
(*) UNDEF
005C18E2  F85F 0178		ldr r0, [pc, #-376] ; 0x20415B16

#417						NE		''	{LNXT:161|-1|-1}
(*) STRING
005C18E6  B082     		sub sp, sp, #8
005C18E8  F8CD 1000		str r1, [sp]
005C18EC  F85F 71C0		ldr r7, [pc, #-448] ; 0x5BA43A
005C18F0  4639     		mov r1, r7
005C18F2  F85F 41D0		ldr r4, [pc, #-464] ; 0x4BC63D
005C18F6  F044 0401		orr r4, r4, #1
005C18FA  47A0     		blx r4
005C18FC  F8DD 1000		ldr r1, [sp]
005C1900  B002     		add sp, sp, #8

#418						AND		bScrapDecl	{LNXT:161|-1|-1}
(*) BOOL
005C1902  F8DF 77C4		ldr r7, [pc, #+1988] ; 0x20416059
005C1906  783F     		ldrb r7, [r7]
005C1908  4038     		and r0, r0, r7

#419						JMPCN	$label11	{LNXT:161|162|173}
(-) BOOL
005C190A  2800     		cmp r0, #0
005C190C  D019     		beq #50 ; 0x005C1942


#420		
#421						(* THEN *)
#422		
#423							(* dCntSC_2001 := dCntSC_2001 + dScrapDeclaration; *)
#424							LD		dCntSC_2001	{LNXT:162|163|-1}
(*) UNDEF
005C1910  F85F 71C4		ldr r7, [pc, #-452] ; 0x204155FC
005C1914  6838     		ldr r0, [r7]

#425							ADD		dScrapDeclaration	{LNXT:162|163|-1}
(*) REAL
005C1916  F8DF 77B4		ldr r7, [pc, #+1972] ; 0x204161F4
005C191A  683F     		ldr r7, [r7]
005C191C  B082     		sub sp, sp, #8
005C191E  F8CD 1000		str r1, [sp]
005C1922  4639     		mov r1, r7
005C1924  F85F 4214		ldr r4, [pc, #-532] ; 0x4B94D5
005C1928  F044 0401		orr r4, r4, #1
005C192C  47A0     		blx r4
005C192E  F8DD 1000		ldr r1, [sp]
005C1932  B002     		add sp, sp, #8

#426							ST		dCntSC_2001	{LNXT:162|163|-1}
(*) REAL
005C1934  F85F 71E8		ldr r7, [pc, #-488] ; 0x204155FC
005C1938  6038     		str r0, [r7]

#427		
#428							(* bPreSetCnt_2001 := TRUE; *)
#429							MOVE		TRUE,bPreSetCnt_2001	{LNXT:163|173|-1}
(*) REAL
005C193A  2001     		mov r0, #1 ; 1
005C193C  F85F 71E0		ldr r7, [pc, #-480] ; 0x204159F2
005C1940  7038     		strb r0, [r7]

#430		
#431		$label11:
#432						(* END_IF *)
#433		
#434		$label10:
#435					(* END_IF *)
#436		
#437		$label4:
#438				(* END_IF *)
#439		
#440				(* SString:= CONCAT(PrefixTopicState,sIdMachine_2001); *)
#441				LDP0		PrefixTopicState	{LNXT:173|174|-1}
(-) BOOL
#442				CONCAT		sIdMachine_2001	{LNXT:173|174|-1}
(*) BOOL
005C1942  F8DF 078C		ldr r0, [pc, #+1932] ; 0x204161F8
005C1946  B082     		sub sp, sp, #8
005C1948  F8CD 1000		str r1, [sp]
005C194C  F8DF 1784		ldr r1, [pc, #+1924] ; 0x2041620E
005C1950  F85F 4238		ldr r4, [pc, #-568] ; 0x4BC265
005C1954  F044 0401		orr r4, r4, #1
005C1958  47A0     		blx r4
005C195A  F8DD 1000		ldr r1, [sp]
005C195E  B002     		add sp, sp, #8

#443				ST		SString	{LNXT:173|174|-1}
(*) STRING
005C1960  B082     		sub sp, sp, #8
005C1962  F8CD 0000		str r0, [sp]
005C1966  E92D 0006		stmdb sp!, { r1, r2 }
005C196A  223D     		mov r2, #61 ; 61
005C196C  F85F 10E4		ldr r1, [pc, #-228] ; 0x20416194
005C1970  F85F 425C		ldr r4, [pc, #-604] ; 0x4BA059
005C1974  F044 0401		orr r4, r4, #1
005C1978  47A0     		blx r4
005C197A  E8BD 0006		ldmia sp!, { r1, r2 }
005C197E  F8DD 0000		ldr r0, [sp]
005C1982  B002     		add sp, sp, #8

#444		
#445				(* SString:= CONCAT(SString,PrefixTopicSubInSetupMode); *)
#446				LDP0		SString	{LNXT:174|175|-1}
(-) STRING
#447				CONCAT		PrefixTopicSubInSetupMode	{LNXT:174|175|-1}
(*) STRING
005C1984  F85F 00FC		ldr r0, [pc, #-252] ; 0x20416194
005C1988  B082     		sub sp, sp, #8
005C198A  F8CD 1000		str r1, [sp]
005C198E  F8DF 1748		ldr r1, [pc, #+1864] ; 0x20416214
005C1992  F85F 4278		ldr r4, [pc, #-632] ; 0x4BC265
005C1996  F044 0401		orr r4, r4, #1
005C199A  47A0     		blx r4
005C199C  F8DD 1000		ldr r1, [sp]
005C19A0  B002     		add sp, sp, #8

#448				ST		SString	{LNXT:174|175|-1}
(*) STRING
005C19A2  B082     		sub sp, sp, #8
005C19A4  F8CD 0000		str r0, [sp]
005C19A8  E92D 0006		stmdb sp!, { r1, r2 }
005C19AC  223D     		mov r2, #61 ; 61
005C19AE  F85F 1124		ldr r1, [pc, #-292] ; 0x20416194
005C19B2  F85F 429C		ldr r4, [pc, #-668] ; 0x4BA059
005C19B6  F044 0401		orr r4, r4, #1
005C19BA  47A0     		blx r4
005C19BC  E8BD 0006		ldmia sp!, { r1, r2 }
005C19C0  F8DD 0000		ldr r0, [sp]
005C19C4  B002     		add sp, sp, #8

#449		
#450				(* SString:= CONCAT(SString,sIdMachine_2001); *)
#451				LDP0		SString	{LNXT:175|176|-1}
(-) STRING
#452				CONCAT		sIdMachine_2001	{LNXT:175|176|-1}
(*) STRING
005C19C6  F85F 013C		ldr r0, [pc, #-316] ; 0x20416194
005C19CA  B082     		sub sp, sp, #8
005C19CC  F8CD 1000		str r1, [sp]
005C19D0  F8DF 1700		ldr r1, [pc, #+1792] ; 0x2041620E
005C19D4  F85F 42BC		ldr r4, [pc, #-700] ; 0x4BC265
005C19D8  F044 0401		orr r4, r4, #1
005C19DC  47A0     		blx r4
005C19DE  F8DD 1000		ldr r1, [sp]
005C19E2  B002     		add sp, sp, #8

#453				ST		SString	{LNXT:175|176|-1}
(*) STRING
005C19E4  B082     		sub sp, sp, #8
005C19E6  F8CD 0000		str r0, [sp]
005C19EA  E92D 0006		stmdb sp!, { r1, r2 }
005C19EE  223D     		mov r2, #61 ; 61
005C19F0  F85F 1168		ldr r1, [pc, #-360] ; 0x20416194
005C19F4  F85F 42E0		ldr r4, [pc, #-736] ; 0x4BA059
005C19F8  F044 0401		orr r4, r4, #1
005C19FC  47A0     		blx r4
005C19FE  E8BD 0006		ldmia sp!, { r1, r2 }
005C1A02  F8DD 0000		ldr r0, [sp]
005C1A06  B002     		add sp, sp, #8

#454		
#455				(* SString:= CONCAT(SString,SuffixTopicSubInSetupMode); *)
#456				LDP0		SString	{LNXT:176|177|-1}
(-) STRING
#457				CONCAT		SuffixTopicSubInSetupMode	{LNXT:176|177|-1}
(*) STRING
005C1A08  F85F 0180		ldr r0, [pc, #-384] ; 0x20416194
005C1A0C  B082     		sub sp, sp, #8
005C1A0E  F8CD 1000		str r1, [sp]
005C1A12  F8DF 16C8		ldr r1, [pc, #+1736] ; 0x20416218
005C1A16  F85F 42FC		ldr r4, [pc, #-764] ; 0x4BC265
005C1A1A  F044 0401		orr r4, r4, #1
005C1A1E  47A0     		blx r4
005C1A20  F8DD 1000		ldr r1, [sp]
005C1A24  B002     		add sp, sp, #8

#458				ST		SString	{LNXT:176|177|-1}
(*) STRING
005C1A26  B082     		sub sp, sp, #8
005C1A28  F8CD 0000		str r0, [sp]
005C1A2C  E92D 0006		stmdb sp!, { r1, r2 }
005C1A30  223D     		mov r2, #61 ; 61
005C1A32  F85F 11A8		ldr r1, [pc, #-424] ; 0x20416194
005C1A36  F85F 4320		ldr r4, [pc, #-800] ; 0x4BA059
005C1A3A  F044 0401		orr r4, r4, #1
005C1A3E  47A0     		blx r4
005C1A40  E8BD 0006		ldmia sp!, { r1, r2 }
005C1A44  F8DD 0000		ldr r0, [sp]
005C1A48  B002     		add sp, sp, #8

#459		
#460		
#461				(* IF SString = TopicRxD *)
#462				LD		SString	{LNXT:177|-1|-1}
(*) UNDEF
005C1A4A  F85F 01C0		ldr r0, [pc, #-448] ; 0x20416194

#463				EQ		TopicRxD	{LNXT:177|-1|-1}
(*) STRING
005C1A4E  B082     		sub sp, sp, #8
005C1A50  F8CD 1000		str r1, [sp]
005C1A54  F85F 1224		ldr r1, [pc, #-548] ; 0x20415E00
005C1A58  F85F 433C		ldr r4, [pc, #-828] ; 0x4BC61D
005C1A5C  F044 0401		orr r4, r4, #1
005C1A60  47A0     		blx r4
005C1A62  F8DD 1000		ldr r1, [sp]
005C1A66  B002     		add sp, sp, #8

#464				JMPCN	$label12	{LNXT:177|179|190}
(-) BOOL
005C1A68  2800     		cmp r0, #0
005C1A6A  D01D     		beq #58 ; 0x005C1AA8


#465		
#466				(* THEN *)
#467		
#468		
#469					(* IF ValueRxD = '1 *)
#470					LD		ValueRxD	{LNXT:179|-1|-1}
(*) UNDEF
005C1A6E  F85F 0238		ldr r0, [pc, #-568] ; 0x20415E3D

#471					EQ		'1'	{LNXT:179|-1|-1}
(*) STRING
005C1A72  B082     		sub sp, sp, #8
005C1A74  F8CD 1000		str r1, [sp]
005C1A78  F8DF 7638		ldr r7, [pc, #+1592] ; 0x5BA48C
005C1A7C  4639     		mov r1, r7
005C1A7E  F85F 4360		ldr r4, [pc, #-864] ; 0x4BC61D
005C1A82  F044 0401		orr r4, r4, #1
005C1A86  47A0     		blx r4
005C1A88  F8DD 1000		ldr r1, [sp]
005C1A8C  B002     		add sp, sp, #8

#472					JMPCN	$label13	{LNXT:179|180|182}
(-) BOOL
005C1A8E  2800     		cmp r0, #0
005C1A90  D006     		beq #12 ; 0x005C1AA0


#473		
#474					(* THEN *)
#475		
#476						(* bSetup_2001 := TRUE; *)
#477						MOVE		TRUE,bSetup_2001	{LNXT:180|190|-1}
(*) BOOL
005C1A94  2001     		mov r0, #1 ; 1
005C1A96  F8DF 7620		ldr r7, [pc, #+1568] ; 0x20415AF4
005C1A9A  7038     		strb r0, [r7]

#478						JMP		$label14	{LNXT:179|180|182}
(-) BOOL
005C1A9C  E004     		b #8 ; 0x005C1AA8


#479		$label13:
#480		
#481					(* ELSE *)
#482		
#483						(* bSetup_2001 := FALSE; *)
#484						MOVE		FALSE,bSetup_2001	{LNXT:182|190|-1}
(*) BOOL
005C1AA0  2000     		mov r0, #0 ; 0
005C1AA2  F8DF 7614		ldr r7, [pc, #+1556] ; 0x20415AF4
005C1AA6  7038     		strb r0, [r7]

#485		
#486		$label14:
#487					(* END_IF *)
#488		
#489		$label12:
#490				(* END_IF *)
#491		
#492				(* SString:= CONCAT(PrefixTopicState,sIdMachine_2001); *)
#493				LDP0		PrefixTopicState	{LNXT:190|191|-1}
(-) BOOL
#494				CONCAT		sIdMachine_2001	{LNXT:190|191|-1}
(*) BOOL
005C1AA8  F8DF 0624		ldr r0, [pc, #+1572] ; 0x204161F8
005C1AAC  B082     		sub sp, sp, #8
005C1AAE  F8CD 1000		str r1, [sp]
005C1AB2  F8DF 1620		ldr r1, [pc, #+1568] ; 0x2041620E
005C1AB6  F85F 439C		ldr r4, [pc, #-924] ; 0x4BC265
005C1ABA  F044 0401		orr r4, r4, #1
005C1ABE  47A0     		blx r4
005C1AC0  F8DD 1000		ldr r1, [sp]
005C1AC4  B002     		add sp, sp, #8

#495				ST		SString	{LNXT:190|191|-1}
(*) STRING
005C1AC6  B082     		sub sp, sp, #8
005C1AC8  F8CD 0000		str r0, [sp]
005C1ACC  E92D 0006		stmdb sp!, { r1, r2 }
005C1AD0  223D     		mov r2, #61 ; 61
005C1AD2  F85F 1248		ldr r1, [pc, #-584] ; 0x20416194
005C1AD6  F85F 43C0		ldr r4, [pc, #-960] ; 0x4BA059
005C1ADA  F044 0401		orr r4, r4, #1
005C1ADE  47A0     		blx r4
005C1AE0  E8BD 0006		ldmia sp!, { r1, r2 }
005C1AE4  F8DD 0000		ldr r0, [sp]
005C1AE8  B002     		add sp, sp, #8

#496		
#497				(* SString:= CONCAT(SString,PrefixTopicSubInSetupMode); *)
#498				LDP0		SString	{LNXT:191|192|-1}
(-) STRING
#499				CONCAT		PrefixTopicSubInSetupMode	{LNXT:191|192|-1}
(*) STRING
005C1AEA  F85F 0260		ldr r0, [pc, #-608] ; 0x20416194
005C1AEE  B082     		sub sp, sp, #8
005C1AF0  F8CD 1000		str r1, [sp]
005C1AF4  F8DF 15E0		ldr r1, [pc, #+1504] ; 0x20416214
005C1AF8  F85F 43E0		ldr r4, [pc, #-992] ; 0x4BC265
005C1AFC  F044 0401		orr r4, r4, #1
005C1B00  47A0     		blx r4
005C1B02  F8DD 1000		ldr r1, [sp]
005C1B06  B002     		add sp, sp, #8

#500				ST		SString	{LNXT:191|192|-1}
(*) STRING
005C1B08  B082     		sub sp, sp, #8
005C1B0A  F8CD 0000		str r0, [sp]
005C1B0E  E92D 0006		stmdb sp!, { r1, r2 }
005C1B12  223D     		mov r2, #61 ; 61
005C1B14  F85F 128C		ldr r1, [pc, #-652] ; 0x20416194
005C1B18  F85F 4404		ldr r4, [pc, #-1028] ; 0x4BA059
005C1B1C  F044 0401		orr r4, r4, #1
005C1B20  47A0     		blx r4
005C1B22  E8BD 0006		ldmia sp!, { r1, r2 }
005C1B26  F8DD 0000		ldr r0, [sp]
005C1B2A  B002     		add sp, sp, #8

#501		
#502				(* SString:= CONCAT(SString,sIdMachine_2001); *)
#503				LDP0		SString	{LNXT:192|193|-1}
(-) STRING
#504				CONCAT		sIdMachine_2001	{LNXT:192|193|-1}
(*) STRING
005C1B2C  F85F 02A4		ldr r0, [pc, #-676] ; 0x20416194
005C1B30  B082     		sub sp, sp, #8
005C1B32  F8CD 1000		str r1, [sp]
005C1B36  F8DF 159C		ldr r1, [pc, #+1436] ; 0x2041620E
005C1B3A  F85F 4420		ldr r4, [pc, #-1056] ; 0x4BC265
005C1B3E  F044 0401		orr r4, r4, #1
005C1B42  47A0     		blx r4
005C1B44  F8DD 1000		ldr r1, [sp]
005C1B48  B002     		add sp, sp, #8

#505				ST		SString	{LNXT:192|193|-1}
(*) STRING
005C1B4A  B082     		sub sp, sp, #8
005C1B4C  F8CD 0000		str r0, [sp]
005C1B50  E92D 0006		stmdb sp!, { r1, r2 }
005C1B54  223D     		mov r2, #61 ; 61
005C1B56  F85F 12CC		ldr r1, [pc, #-716] ; 0x20416194
005C1B5A  F85F 4444		ldr r4, [pc, #-1092] ; 0x4BA059
005C1B5E  F044 0401		orr r4, r4, #1
005C1B62  47A0     		blx r4
005C1B64  E8BD 0006		ldmia sp!, { r1, r2 }
005C1B68  F8DD 0000		ldr r0, [sp]
005C1B6C  B002     		add sp, sp, #8

#506		
#507				(* SString:= CONCAT(SString,SuffixTopicSubInLockMode); *)
#508				LDP0		SString	{LNXT:193|194|-1}
(-) STRING
#509				CONCAT		SuffixTopicSubInLockMode	{LNXT:193|194|-1}
(*) STRING
005C1B6E  F85F 02E4		ldr r0, [pc, #-740] ; 0x20416194
005C1B72  B082     		sub sp, sp, #8
005C1B74  F8CD 1000		str r1, [sp]
005C1B78  F8DF 1564		ldr r1, [pc, #+1380] ; 0x2041622B
005C1B7C  F85F 4464		ldr r4, [pc, #-1124] ; 0x4BC265
005C1B80  F044 0401		orr r4, r4, #1
005C1B84  47A0     		blx r4
005C1B86  F8DD 1000		ldr r1, [sp]
005C1B8A  B002     		add sp, sp, #8

#510				ST		SString	{LNXT:193|194|-1}
(*) STRING
005C1B8C  B082     		sub sp, sp, #8
005C1B8E  F8CD 0000		str r0, [sp]
005C1B92  E92D 0006		stmdb sp!, { r1, r2 }
005C1B96  223D     		mov r2, #61 ; 61
005C1B98  F85F 1310		ldr r1, [pc, #-784] ; 0x20416194
005C1B9C  F85F 4488		ldr r4, [pc, #-1160] ; 0x4BA059
005C1BA0  F044 0401		orr r4, r4, #1
005C1BA4  47A0     		blx r4
005C1BA6  E8BD 0006		ldmia sp!, { r1, r2 }
005C1BAA  F8DD 0000		ldr r0, [sp]
005C1BAE  B002     		add sp, sp, #8

#511		
#512		
#513				(* IF SString = TopicRxD *)
#514				LD		SString	{LNXT:194|-1|-1}
(*) UNDEF
005C1BB0  F85F 0328		ldr r0, [pc, #-808] ; 0x20416194

#515				EQ		TopicRxD	{LNXT:194|-1|-1}
(*) STRING
005C1BB4  B082     		sub sp, sp, #8
005C1BB6  F8CD 1000		str r1, [sp]
005C1BBA  F85F 1388		ldr r1, [pc, #-904] ; 0x20415E00
005C1BBE  F85F 44A0		ldr r4, [pc, #-1184] ; 0x4BC61D
005C1BC2  F044 0401		orr r4, r4, #1
005C1BC6  47A0     		blx r4
005C1BC8  F8DD 1000		ldr r1, [sp]
005C1BCC  B002     		add sp, sp, #8

#516				JMPCN	$label15	{LNXT:194|196|216}
(-) BOOL
005C1BCE  2800     		cmp r0, #0
005C1BD0  D01D     		beq #58 ; 0x005C1C0E


#517		
#518				(* THEN *)
#519		
#520		
#521					(* IF ValueRxD = '1 *)
#522					LD		ValueRxD	{LNXT:196|-1|-1}
(*) UNDEF
005C1BD4  F85F 03A0		ldr r0, [pc, #-928] ; 0x20415E3D

#523					EQ		'1'	{LNXT:196|-1|-1}
(*) STRING
005C1BD8  B082     		sub sp, sp, #8
005C1BDA  F8CD 1000		str r1, [sp]
005C1BDE  F8DF 74D4		ldr r7, [pc, #+1236] ; 0x5BA48C
005C1BE2  4639     		mov r1, r7
005C1BE4  F85F 44C8		ldr r4, [pc, #-1224] ; 0x4BC61D
005C1BE8  F044 0401		orr r4, r4, #1
005C1BEC  47A0     		blx r4
005C1BEE  F8DD 1000		ldr r1, [sp]
005C1BF2  B002     		add sp, sp, #8

#524					JMPCN	$label16	{LNXT:196|197|199}
(-) BOOL
005C1BF4  2800     		cmp r0, #0
005C1BF6  D006     		beq #12 ; 0x005C1C06


#525		
#526					(* THEN *)
#527		
#528						(* bCntPause_2001:= TRUE; *)
#529						MOVE		TRUE,bCntPause_2001	{LNXT:197|216|-1}
(*) BOOL
005C1BFA  2001     		mov r0, #1 ; 1
005C1BFC  F85F 749C		ldr r7, [pc, #-1180] ; 0x204159F3
005C1C00  7038     		strb r0, [r7]

#530						JMP		$label17	{LNXT:196|197|199}
(-) BOOL
005C1C02  E004     		b #8 ; 0x005C1C0E


#531		$label16:
#532		
#533					(* ELSE *)
#534		
#535						(* bCntPause_2001:= FALSE; *)
#536						MOVE		FALSE,bCntPause_2001	{LNXT:199|216|-1}
(*) BOOL
005C1C06  2000     		mov r0, #0 ; 0
005C1C08  F85F 74A8		ldr r7, [pc, #-1192] ; 0x204159F3
005C1C0C  7038     		strb r0, [r7]

#537		
#538		$label17:
#539					(* END_IF *)
#540		
#541		$label15:
#542				(* END_IF *)
#543		
#544		$label3:
#545			(* END_IF *)
#546		
#547		
#548			(* CASE CaseNr OF *)
#549		
#550			(* 0: *)
#551			LD		CaseNr	{LNXT:224|-1|-1}
(*) UNDEF
005C1C0E  F85F 7460		ldr r7, [pc, #-1120] ; 0x20415C4B
005C1C12  7838     		ldrb r0, [r7]

#552			EQ		0	{LNXT:224|-1|-1}
(*) USINT
005C1C14  2800     		cmp r0, #0
005C1C16  BF18 2000		nemov r0, #0
005C1C1A  BF08 2001		eqmov r0, #1

#553			JMPC		$label19	{LNXT:224|225|232}
(-) BOOL
005C1C1E  2800     		cmp r0, #0
005C1C20  F040 809C		bne #312 ; 0x005C1D5C


#554		
#555			(* 1: *)
#556			LD		CaseNr	{LNXT:232|-1|-1}
(*) UNDEF
005C1C24  F85F 7478		ldr r7, [pc, #-1144] ; 0x20415C4B
005C1C28  7838     		ldrb r0, [r7]

#557			EQ		1	{LNXT:232|-1|-1}
(*) USINT
005C1C2A  2801     		cmp r0, #1
005C1C2C  BF18 2000		nemov r0, #0
005C1C30  BF08 2001		eqmov r0, #1

#558			JMPC		$label20	{LNXT:232|233|237}
(-) BOOL
005C1C34  2800     		cmp r0, #0
005C1C36  F040 80B6		bne #364 ; 0x005C1DA6


#559		
#560			(* 2: *)
#561			LD		CaseNr	{LNXT:237|-1|-1}
(*) UNDEF
005C1C3A  F85F 748C		ldr r7, [pc, #-1164] ; 0x20415C4B
005C1C3E  7838     		ldrb r0, [r7]

#562			EQ		2	{LNXT:237|-1|-1}
(*) USINT
005C1C40  2802     		cmp r0, #2
005C1C42  BF18 2000		nemov r0, #0
005C1C46  BF08 2001		eqmov r0, #1

#563			JMPC		$label21	{LNXT:237|239|244}
(-) BOOL
005C1C4A  2800     		cmp r0, #0
005C1C4C  F040 80C5		bne #394 ; 0x005C1DDA


#564		
#565			(* 3: *)
#566			LD		CaseNr	{LNXT:244|-1|-1}
(*) UNDEF
005C1C50  F85F 74A4		ldr r7, [pc, #-1188] ; 0x20415C4B
005C1C54  7838     		ldrb r0, [r7]

#567			EQ		3	{LNXT:244|-1|-1}
(*) USINT
005C1C56  2803     		cmp r0, #3
005C1C58  BF18 2000		nemov r0, #0
005C1C5C  BF08 2001		eqmov r0, #1

#568			JMPC		$label22	{LNXT:244|245|249}
(-) BOOL
005C1C60  2800     		cmp r0, #0
005C1C62  F040 80ED		bne #474 ; 0x005C1E40


#569		
#570			(* 4: *)
#571			LD		CaseNr	{LNXT:249|-1|-1}
(*) UNDEF
005C1C66  F85F 74B8		ldr r7, [pc, #-1208] ; 0x20415C4B
005C1C6A  7838     		ldrb r0, [r7]

#572			EQ		4	{LNXT:249|-1|-1}
(*) USINT
005C1C6C  2804     		cmp r0, #4
005C1C6E  BF18 2000		nemov r0, #0
005C1C72  BF08 2001		eqmov r0, #1

#573			JMPC		$label23	{LNXT:249|251|256}
(-) BOOL
005C1C76  2800     		cmp r0, #0
005C1C78  F040 80FC		bne #504 ; 0x005C1E74


#574		
#575			(* 5: *)
#576			LD		CaseNr	{LNXT:256|-1|-1}
(*) UNDEF
005C1C7C  F85F 74D0		ldr r7, [pc, #-1232] ; 0x20415C4B
005C1C80  7838     		ldrb r0, [r7]

#577			EQ		5	{LNXT:256|-1|-1}
(*) USINT
005C1C82  2805     		cmp r0, #5
005C1C84  BF18 2000		nemov r0, #0
005C1C88  BF08 2001		eqmov r0, #1

#578			JMPC		$label24	{LNXT:256|257|261}
(-) BOOL
005C1C8C  2800     		cmp r0, #0
005C1C8E  F040 8124		bne #584 ; 0x005C1EDA


#579		
#580			(* 6: *)
#581			LD		CaseNr	{LNXT:261|-1|-1}
(*) UNDEF
005C1C92  F85F 74E4		ldr r7, [pc, #-1252] ; 0x20415C4B
005C1C96  7838     		ldrb r0, [r7]

#582			EQ		6	{LNXT:261|-1|-1}
(*) USINT
005C1C98  2806     		cmp r0, #6
005C1C9A  BF18 2000		nemov r0, #0
005C1C9E  BF08 2001		eqmov r0, #1

#583			JMPC		$label25	{LNXT:261|263|271}
(-) BOOL
005C1CA2  2800     		cmp r0, #0
005C1CA4  F040 8133		bne #614 ; 0x005C1F0E


#584		
#585			(* 7: *)
#586			LD		CaseNr	{LNXT:271|-1|-1}
(*) UNDEF
005C1CA8  F85F 74FC		ldr r7, [pc, #-1276] ; 0x20415C4B
005C1CAC  7838     		ldrb r0, [r7]

#587			EQ		7	{LNXT:271|-1|-1}
(*) USINT
005C1CAE  2807     		cmp r0, #7
005C1CB0  BF18 2000		nemov r0, #0
005C1CB4  BF08 2001		eqmov r0, #1

#588			JMPC		$label26	{LNXT:271|272|276}
(-) BOOL
005C1CB8  2800     		cmp r0, #0
005C1CBA  F040 81BE		bne #892 ; 0x005C203A


#589		
#590			(* 8: *)
#591			LD		CaseNr	{LNXT:276|-1|-1}
(*) UNDEF
005C1CBE  F85F 7510		ldr r7, [pc, #-1296] ; 0x20415C4B
005C1CC2  7838     		ldrb r0, [r7]

#592			EQ		8	{LNXT:276|-1|-1}
(*) USINT
005C1CC4  2808     		cmp r0, #8
005C1CC6  BF18 2000		nemov r0, #0
005C1CCA  BF08 2001		eqmov r0, #1

#593			JMPC		$label27	{LNXT:276|278|286}
(-) BOOL
005C1CCE  2800     		cmp r0, #0
005C1CD0  F040 81CD		bne #922 ; 0x005C206E


#594		
#595			(* 9: *)
#596			LD		CaseNr	{LNXT:286|-1|-1}
(*) UNDEF
005C1CD4  F85F 7528		ldr r7, [pc, #-1320] ; 0x20415C4B
005C1CD8  7838     		ldrb r0, [r7]

#597			EQ		9	{LNXT:286|-1|-1}
(*) USINT
005C1CDA  2809     		cmp r0, #9
005C1CDC  BF18 2000		nemov r0, #0
005C1CE0  BF08 2001		eqmov r0, #1

#598			JMPC		$label28	{LNXT:286|287|297}
(-) BOOL
005C1CE4  2800     		cmp r0, #0
005C1CE6  F040 8272		bne #1252 ; 0x005C21CE


#599		
#600			(* 100: *)
#601			LD		CaseNr	{LNXT:297|-1|-1}
(*) UNDEF
005C1CEA  F85F 753C		ldr r7, [pc, #-1340] ; 0x20415C4B
005C1CEE  7838     		ldrb r0, [r7]

#602			EQ		100	{LNXT:297|-1|-1}
(*) USINT
005C1CF0  2864     		cmp r0, #100
005C1CF2  BF18 2000		nemov r0, #0
005C1CF6  BF08 2001		eqmov r0, #1

#603			JMPC		$label29	{LNXT:297|298|316}
(-) BOOL
005C1CFA  2800     		cmp r0, #0
005C1CFC  F040 827E		bne #1276 ; 0x005C21FC


#604		
#605			(* 101: *)
#606			LD		CaseNr	{LNXT:316|-1|-1}
(*) UNDEF
005C1D00  F85F 7554		ldr r7, [pc, #-1364] ; 0x20415C4B
005C1D04  7838     		ldrb r0, [r7]

#607			EQ		101	{LNXT:316|-1|-1}
(*) USINT
005C1D06  2865     		cmp r0, #101
005C1D08  BF18 2000		nemov r0, #0
005C1D0C  BF08 2001		eqmov r0, #1

#608			JMPC		$label30	{LNXT:316|318|341}
(-) BOOL
005C1D10  2800     		cmp r0, #0
005C1D12  F040 82AF		bne #1374 ; 0x005C2274


#609		
#610			(* 102: *)
#611			LD		CaseNr	{LNXT:341|-1|-1}
(*) UNDEF
005C1D16  F85F 7568		ldr r7, [pc, #-1384] ; 0x20415C4B
005C1D1A  7838     		ldrb r0, [r7]

#612			EQ		102	{LNXT:341|-1|-1}
(*) USINT
005C1D1C  2866     		cmp r0, #102
005C1D1E  BF18 2000		nemov r0, #0
005C1D22  BF08 2001		eqmov r0, #1

#613			JMPC		$label31	{LNXT:341|343|369}
(-) BOOL
005C1D26  2800     		cmp r0, #0
005C1D28  F040 8386		bne #1804 ; 0x005C2438


#614		
#615			(* 103: *)
#616			LD		CaseNr	{LNXT:369|-1|-1}
(*) UNDEF
005C1D2C  F85F 7580		ldr r7, [pc, #-1408] ; 0x20415C4B
005C1D30  7838     		ldrb r0, [r7]

#617			EQ		103	{LNXT:369|-1|-1}
(*) USINT
005C1D32  2867     		cmp r0, #103
005C1D34  BF18 2000		nemov r0, #0
005C1D38  BF08 2001		eqmov r0, #1

#618			JMPC		$label32	{LNXT:369|370|374}
(-) BOOL
005C1D3C  2800     		cmp r0, #0
005C1D3E  F040 84EF		bne #2526 ; 0x005C2720


#619		
#620			(* 104: *)
#621			LD		CaseNr	{LNXT:374|-1|-1}
(*) UNDEF
005C1D42  F85F 7594		ldr r7, [pc, #-1428] ; 0x20415C4B
005C1D46  7838     		ldrb r0, [r7]

#622			EQ		104	{LNXT:374|-1|-1}
(*) USINT
005C1D48  2868     		cmp r0, #104
005C1D4A  BF18 2000		nemov r0, #0
005C1D4E  BF08 2001		eqmov r0, #1

#623			JMPC		$label33	{LNXT:374|376|19}
(-) BOOL
005C1D52  2800     		cmp r0, #0
005C1D54  F040 84FE		bne #2556 ; 0x005C2754


#624			JMP		$label18	{LNXT:374|376|19}
(-) BOOL
005C1D58  F000 BD28		b #2640 ; 0x005C27AC


#625		
#626			(* Istruzioni di ciascun CASE: *)
#627		
#628		$label19:
#629				(* MQTT.Enable:=Enable; *)
#630				MOVE		Enable,MQTT.Enable	{LNXT:225|226|-1}
(*) BOOL
005C1D5C  F85F 759C		ldr r7, [pc, #-1436] ; 0x20415CB3
005C1D60  7838     		ldrb r0, [r7]
005C1D62  F85F 756C		ldr r7, [pc, #-1388] ; 0x20415D64
005C1D66  7038     		strb r0, [r7]

#631		
#632		
#633				(* IF MQTT.Connected) *)
#634				LD		MQTT.Connected	{LNXT:226|-1|-1}
(*) UNDEF
005C1D68  F85F 7544		ldr r7, [pc, #-1348] ; 0x20415DA1
005C1D6C  7838     		ldrb r0, [r7]

#635				NOT	{LNXT:226|-1|-1}
(*) BOOL
005C1D6E  2800     		cmp r0, #0
005C1D70  BF08 2001		eqmov r0, #1
005C1D74  BF18 2000		nemov r0, #0

#636				JMPCN	$label34	{LNXT:226|226|228}
(-) BOOL
005C1D78  2800     		cmp r0, #0
005C1D7A  D002     		beq #4 ; 0x005C1D82


#637		
#638				(* THEN *)
#639		
#640					(* RETURN *)
#641					RET
#642		
(-) BOOL
005C1D7E  F000 BD15		b #2602 ; 0x005C27AC


#643		$label34:
#644				(* END_IF *)
#645		
#646				(* MQTT.Topic:=ADR(TopicSub_2001); *)
#647				ADR		TopicSub_2001	{LNXT:228|229|-1}
(*) BOOL
005C1D82  F85F 0548		ldr r0, [pc, #-1352] ; 0x2041603E

#648				ST		MQTT.Topic	{LNXT:228|229|-1}
(*) @STRING
005C1D86  F8DF 7338		ldr r7, [pc, #+824] ; 0x20415D84
005C1D8A  6038     		str r0, [r7]

#649		
#650				(* MQTT.Subscribe:=TRUE; *)
#651				MOVE		TRUE,MQTT.Subscribe	{LNXT:229|230|-1}
(*) @STRING
005C1D8C  2001     		mov r0, #1 ; 1
005C1D8E  F8DF 732C		ldr r7, [pc, #+812] ; 0x20415D67
005C1D92  7038     		strb r0, [r7]

#652		
#653				(* CaseNr:=CaseNr+1; *)
#654				LD		CaseNr	{LNXT:230|19|-1}
(*) UNDEF
005C1D94  F85F 75E8		ldr r7, [pc, #-1512] ; 0x20415C4B
005C1D98  7838     		ldrb r0, [r7]

#655				ADD		1	{LNXT:230|19|-1}
(-) USINT
005C1D9A  1C40     		add r0, r0, #1

#656				ST		CaseNr	{LNXT:230|19|-1}
(*) USINT
005C1D9C  F85F 75F0		ldr r7, [pc, #-1520] ; 0x20415C4B
005C1DA0  7038     		strb r0, [r7]

#657				JMP		$label18	{LNXT:225|19|-1}
(-) USINT
005C1DA2  F000 BD03		b #2566 ; 0x005C27AC


#658		
#659		$label20:
#660				(* MQTT.Subscribe:=FALSE; *)
#661				MOVE		FALSE,MQTT.Subscribe	{LNXT:233|234|-1}
(*) USINT
005C1DA6  2000     		mov r0, #0 ; 0
005C1DA8  F8DF 7310		ldr r7, [pc, #+784] ; 0x20415D67
005C1DAC  7038     		strb r0, [r7]

#662		
#663		
#664				(* IF MQTT.Subscribed) *)
#665				LD		MQTT.Subscribed	{LNXT:234|-1|-1}
(*) UNDEF
005C1DAE  F8DF 7314		ldr r7, [pc, #+788] ; 0x20415DA4
005C1DB2  7838     		ldrb r0, [r7]

#666				NOT	{LNXT:234|-1|-1}
(*) BOOL
005C1DB4  2800     		cmp r0, #0
005C1DB6  BF08 2001		eqmov r0, #1
005C1DBA  BF18 2000		nemov r0, #0

#667				JMPCN	$label35	{LNXT:234|234|235}
(-) BOOL
005C1DBE  2800     		cmp r0, #0
005C1DC0  D002     		beq #4 ; 0x005C1DC8


#668		
#669				(* THEN *)
#670		
#671					(* RETURN *)
#672					RET
#673		
(-) BOOL
005C1DC4  F000 BCF2		b #2532 ; 0x005C27AC


#674		$label35:
#675				(* END_IF *)
#676		
#677				(* CaseNr:=CaseNr+1; *)
#678				LD		CaseNr	{LNXT:235|19|-1}
(*) UNDEF
005C1DC8  F85F 761C		ldr r7, [pc, #-1564] ; 0x20415C4B
005C1DCC  7838     		ldrb r0, [r7]

#679				ADD		1	{LNXT:235|19|-1}
(-) USINT
005C1DCE  1C40     		add r0, r0, #1

#680				ST		CaseNr	{LNXT:235|19|-1}
(*) USINT
005C1DD0  F85F 7624		ldr r7, [pc, #-1572] ; 0x20415C4B
005C1DD4  7038     		strb r0, [r7]

#681				JMP		$label18	{LNXT:233|19|-1}
(-) USINT
005C1DD6  F000 BCE9		b #2514 ; 0x005C27AC


#682		
#683		$label21:
#684				(* SString:= CONCAT(TopicSub_2001,TopicSubInManualDeclaration); *)
#685				LDP0		TopicSub_2001	{LNXT:239|240|-1}
(-) USINT
#686				CONCAT		TopicSubInManualDeclaration	{LNXT:239|240|-1}
(*) USINT
005C1DDA  F85F 05A0		ldr r0, [pc, #-1440] ; 0x2041603E
005C1DDE  B082     		sub sp, sp, #8
005C1DE0  F8CD 1000		str r1, [sp]
005C1DE4  F85F 1560		ldr r1, [pc, #-1376] ; 0x20416181
005C1DE8  F85F 46D0		ldr r4, [pc, #-1744] ; 0x4BC265
005C1DEC  F044 0401		orr r4, r4, #1
005C1DF0  47A0     		blx r4
005C1DF2  F8DD 1000		ldr r1, [sp]
005C1DF6  B002     		add sp, sp, #8

#687				ST		SString	{LNXT:239|240|-1}
(*) STRING
005C1DF8  B082     		sub sp, sp, #8
005C1DFA  F8CD 0000		str r0, [sp]
005C1DFE  E92D 0006		stmdb sp!, { r1, r2 }
005C1E02  223D     		mov r2, #61 ; 61
005C1E04  F85F 157C		ldr r1, [pc, #-1404] ; 0x20416194
005C1E08  F85F 46F4		ldr r4, [pc, #-1780] ; 0x4BA059
005C1E0C  F044 0401		orr r4, r4, #1
005C1E10  47A0     		blx r4
005C1E12  E8BD 0006		ldmia sp!, { r1, r2 }
005C1E16  F8DD 0000		ldr r0, [sp]
005C1E1A  B002     		add sp, sp, #8

#688		
#689				(* MQTT.Topic:=ADR(SString); *)
#690				ADR		SString	{LNXT:240|241|-1}
(*) STRING
005C1E1C  F85F 0594		ldr r0, [pc, #-1428] ; 0x20416194

#691				ST		MQTT.Topic	{LNXT:240|241|-1}
(*) @STRING
005C1E20  F8DF 729C		ldr r7, [pc, #+668] ; 0x20415D84
005C1E24  6038     		str r0, [r7]

#692		
#693				(* MQTT.Subscribe:=TRUE; *)
#694				MOVE		TRUE,MQTT.Subscribe	{LNXT:241|242|-1}
(*) @STRING
005C1E26  2001     		mov r0, #1 ; 1
005C1E28  F8DF 7290		ldr r7, [pc, #+656] ; 0x20415D67
005C1E2C  7038     		strb r0, [r7]

#695		
#696				(* CaseNr:=CaseNr+1; *)
#697				LD		CaseNr	{LNXT:242|19|-1}
(*) UNDEF
005C1E2E  F85F 7680		ldr r7, [pc, #-1664] ; 0x20415C4B
005C1E32  7838     		ldrb r0, [r7]

#698				ADD		1	{LNXT:242|19|-1}
(-) USINT
005C1E34  1C40     		add r0, r0, #1

#699				ST		CaseNr	{LNXT:242|19|-1}
(*) USINT
005C1E36  F85F 7688		ldr r7, [pc, #-1672] ; 0x20415C4B
005C1E3A  7038     		strb r0, [r7]

#700				JMP		$label18	{LNXT:239|19|-1}
(-) USINT
005C1E3C  F000 BCB6		b #2412 ; 0x005C27AC


#701		
#702		$label22:
#703				(* MQTT.Subscribe:=FALSE; *)
#704				MOVE		FALSE,MQTT.Subscribe	{LNXT:245|246|-1}
(*) USINT
005C1E40  2000     		mov r0, #0 ; 0
005C1E42  F8DF 7278		ldr r7, [pc, #+632] ; 0x20415D67
005C1E46  7038     		strb r0, [r7]

#705		
#706		
#707				(* IF MQTT.Subscribed) *)
#708				LD		MQTT.Subscribed	{LNXT:246|-1|-1}
(*) UNDEF
005C1E48  F8DF 7278		ldr r7, [pc, #+632] ; 0x20415DA4
005C1E4C  7838     		ldrb r0, [r7]

#709				NOT	{LNXT:246|-1|-1}
(*) BOOL
005C1E4E  2800     		cmp r0, #0
005C1E50  BF08 2001		eqmov r0, #1
005C1E54  BF18 2000		nemov r0, #0

#710				JMPCN	$label36	{LNXT:246|246|247}
(-) BOOL
005C1E58  2800     		cmp r0, #0
005C1E5A  D002     		beq #4 ; 0x005C1E62


#711		
#712				(* THEN *)
#713		
#714					(* RETURN *)
#715					RET
#716		
(-) BOOL
005C1E5E  F000 BCA5		b #2378 ; 0x005C27AC


#717		$label36:
#718				(* END_IF *)
#719		
#720				(* CaseNr:=CaseNr+1; *)
#721				LD		CaseNr	{LNXT:247|19|-1}
(*) UNDEF
005C1E62  F85F 76B4		ldr r7, [pc, #-1716] ; 0x20415C4B
005C1E66  7838     		ldrb r0, [r7]

#722				ADD		1	{LNXT:247|19|-1}
(-) USINT
005C1E68  1C40     		add r0, r0, #1

#723				ST		CaseNr	{LNXT:247|19|-1}
(*) USINT
005C1E6A  F85F 76BC		ldr r7, [pc, #-1724] ; 0x20415C4B
005C1E6E  7038     		strb r0, [r7]

#724				JMP		$label18	{LNXT:245|19|-1}
(-) USINT
005C1E70  F000 BC9C		b #2360 ; 0x005C27AC


#725		
#726		$label23:
#727				(* SString:= CONCAT(TopicSub_2001,TopicSubInScrapDeclaration); *)
#728				LDP0		TopicSub_2001	{LNXT:251|252|-1}
(-) USINT
#729				CONCAT		TopicSubInScrapDeclaration	{LNXT:251|252|-1}
(*) USINT
005C1E74  F85F 063C		ldr r0, [pc, #-1596] ; 0x2041603E
005C1E78  B082     		sub sp, sp, #8
005C1E7A  F8CD 1000		str r1, [sp]
005C1E7E  F85F 15E4		ldr r1, [pc, #-1508] ; 0x204161E0
005C1E82  F85F 4768		ldr r4, [pc, #-1896] ; 0x4BC265
005C1E86  F044 0401		orr r4, r4, #1
005C1E8A  47A0     		blx r4
005C1E8C  F8DD 1000		ldr r1, [sp]
005C1E90  B002     		add sp, sp, #8

#730				ST		SString	{LNXT:251|252|-1}
(*) STRING
005C1E92  B082     		sub sp, sp, #8
005C1E94  F8CD 0000		str r0, [sp]
005C1E98  E92D 0006		stmdb sp!, { r1, r2 }
005C1E9C  223D     		mov r2, #61 ; 61
005C1E9E  F85F 1614		ldr r1, [pc, #-1556] ; 0x20416194
005C1EA2  F85F 478C		ldr r4, [pc, #-1932] ; 0x4BA059
005C1EA6  F044 0401		orr r4, r4, #1
005C1EAA  47A0     		blx r4
005C1EAC  E8BD 0006		ldmia sp!, { r1, r2 }
005C1EB0  F8DD 0000		ldr r0, [sp]
005C1EB4  B002     		add sp, sp, #8

#731		
#732				(* MQTT.Topic:=ADR(SString); *)
#733				ADR		SString	{LNXT:252|253|-1}
(*) STRING
005C1EB6  F85F 062C		ldr r0, [pc, #-1580] ; 0x20416194

#734				ST		MQTT.Topic	{LNXT:252|253|-1}
(*) @STRING
005C1EBA  F8DF 7204		ldr r7, [pc, #+516] ; 0x20415D84
005C1EBE  6038     		str r0, [r7]

#735		
#736				(* MQTT.Subscribe:=TRUE; *)
#737				MOVE		TRUE,MQTT.Subscribe	{LNXT:253|254|-1}
(*) @STRING
005C1EC0  2001     		mov r0, #1 ; 1
005C1EC2  F8DF 71F8		ldr r7, [pc, #+504] ; 0x20415D67
005C1EC6  7038     		strb r0, [r7]

#738		
#739				(* CaseNr:=CaseNr+1; *)
#740				LD		CaseNr	{LNXT:254|19|-1}
(*) UNDEF
005C1EC8  F85F 771C		ldr r7, [pc, #-1820] ; 0x20415C4B
005C1ECC  7838     		ldrb r0, [r7]

#741				ADD		1	{LNXT:254|19|-1}
(-) USINT
005C1ECE  1C40     		add r0, r0, #1

#742				ST		CaseNr	{LNXT:254|19|-1}
(*) USINT
005C1ED0  F85F 7724		ldr r7, [pc, #-1828] ; 0x20415C4B
005C1ED4  7038     		strb r0, [r7]

#743				JMP		$label18	{LNXT:251|19|-1}
(-) USINT
005C1ED6  F000 BC69		b #2258 ; 0x005C27AC


#744		
#745		$label24:
#746				(* MQTT.Subscribe:=FALSE; *)
#747				MOVE		FALSE,MQTT.Subscribe	{LNXT:257|258|-1}
(*) USINT
005C1EDA  2000     		mov r0, #0 ; 0
005C1EDC  F8DF 71DC		ldr r7, [pc, #+476] ; 0x20415D67
005C1EE0  7038     		strb r0, [r7]

#748		
#749		
#750				(* IF MQTT.Subscribed) *)
#751				LD		MQTT.Subscribed	{LNXT:258|-1|-1}
(*) UNDEF
005C1EE2  F8DF 71E0		ldr r7, [pc, #+480] ; 0x20415DA4
005C1EE6  7838     		ldrb r0, [r7]

#752				NOT	{LNXT:258|-1|-1}
(*) BOOL
005C1EE8  2800     		cmp r0, #0
005C1EEA  BF08 2001		eqmov r0, #1
005C1EEE  BF18 2000		nemov r0, #0

#753				JMPCN	$label37	{LNXT:258|258|259}
(-) BOOL
005C1EF2  2800     		cmp r0, #0
005C1EF4  D002     		beq #4 ; 0x005C1EFC


#754		
#755				(* THEN *)
#756		
#757					(* RETURN *)
#758					RET
#759		
(-) BOOL
005C1EF8  F000 BC58		b #2224 ; 0x005C27AC


#760		$label37:
#761				(* END_IF *)
#762		
#763				(* CaseNr:=CaseNr+1; *)
#764				LD		CaseNr	{LNXT:259|19|-1}
(*) UNDEF
005C1EFC  F85F 7750		ldr r7, [pc, #-1872] ; 0x20415C4B
005C1F00  7838     		ldrb r0, [r7]

#765				ADD		1	{LNXT:259|19|-1}
(-) USINT
005C1F02  1C40     		add r0, r0, #1

#766				ST		CaseNr	{LNXT:259|19|-1}
(*) USINT
005C1F04  F85F 7758		ldr r7, [pc, #-1880] ; 0x20415C4B
005C1F08  7038     		strb r0, [r7]

#767				JMP		$label18	{LNXT:257|19|-1}
(-) USINT
005C1F0A  F000 BC4F		b #2206 ; 0x005C27AC


#768		
#769		$label25:
#770				(* SString:= CONCAT(PrefixTopicState,sIdMachine_2001); *)
#771				LDP0		PrefixTopicState	{LNXT:263|264|-1}
(-) USINT
#772				CONCAT		sIdMachine_2001	{LNXT:263|264|-1}
(*) USINT
005C1F0E  F8DF 01C0		ldr r0, [pc, #+448] ; 0x204161F8
005C1F12  B082     		sub sp, sp, #8
005C1F14  F8CD 1000		str r1, [sp]
005C1F18  F8DF 11B8		ldr r1, [pc, #+440] ; 0x2041620E
005C1F1C  F85F 4804		ldr r4, [pc, #-2052] ; 0x4BC265
005C1F20  F044 0401		orr r4, r4, #1
005C1F24  47A0     		blx r4
005C1F26  F8DD 1000		ldr r1, [sp]
005C1F2A  B002     		add sp, sp, #8

#773				ST		SString	{LNXT:263|264|-1}
(*) STRING
005C1F2C  B082     		sub sp, sp, #8
005C1F2E  F8CD 0000		str r0, [sp]
005C1F32  E92D 0006		stmdb sp!, { r1, r2 }
005C1F36  223D     		mov r2, #61 ; 61
005C1F38  F85F 16B0		ldr r1, [pc, #-1712] ; 0x20416194
005C1F3C  F85F 4828		ldr r4, [pc, #-2088] ; 0x4BA059
005C1F40  F044 0401		orr r4, r4, #1
005C1F44  47A0     		blx r4
005C1F46  E8BD 0006		ldmia sp!, { r1, r2 }
005C1F4A  F8DD 0000		ldr r0, [sp]
005C1F4E  B002     		add sp, sp, #8

#774		
#775				(* SString:= CONCAT(SString,PrefixTopicSubInSetupMode); *)
#776				LDP0		SString	{LNXT:264|265|-1}
(-) STRING
#777				CONCAT		PrefixTopicSubInSetupMode	{LNXT:264|265|-1}
(*) STRING
005C1F50  F85F 06C8		ldr r0, [pc, #-1736] ; 0x20416194
005C1F54  B082     		sub sp, sp, #8
005C1F56  F8CD 1000		str r1, [sp]
005C1F5A  F8DF 117C		ldr r1, [pc, #+380] ; 0x20416214
005C1F5E  F85F 4844		ldr r4, [pc, #-2116] ; 0x4BC265
005C1F62  F044 0401		orr r4, r4, #1
005C1F66  47A0     		blx r4
005C1F68  F8DD 1000		ldr r1, [sp]
005C1F6C  B002     		add sp, sp, #8

#778				ST		SString	{LNXT:264|265|-1}
(*) STRING
005C1F6E  B082     		sub sp, sp, #8
005C1F70  F8CD 0000		str r0, [sp]
005C1F74  E92D 0006		stmdb sp!, { r1, r2 }
005C1F78  223D     		mov r2, #61 ; 61
005C1F7A  F85F 16F0		ldr r1, [pc, #-1776] ; 0x20416194
005C1F7E  F85F 4868		ldr r4, [pc, #-2152] ; 0x4BA059
005C1F82  F044 0401		orr r4, r4, #1
005C1F86  47A0     		blx r4
005C1F88  E8BD 0006		ldmia sp!, { r1, r2 }
005C1F8C  F8DD 0000		ldr r0, [sp]
005C1F90  B002     		add sp, sp, #8

#779		
#780				(* SString:= CONCAT(SString,sIdMachine_2001); *)
#781				LDP0		SString	{LNXT:265|266|-1}
(-) STRING
#782				CONCAT		sIdMachine_2001	{LNXT:265|266|-1}
(*) STRING
005C1F92  F85F 0708		ldr r0, [pc, #-1800] ; 0x20416194
005C1F96  B082     		sub sp, sp, #8
005C1F98  F8CD 1000		str r1, [sp]
005C1F9C  F8DF 1134		ldr r1, [pc, #+308] ; 0x2041620E
005C1FA0  F85F 4888		ldr r4, [pc, #-2184] ; 0x4BC265
005C1FA4  F044 0401		orr r4, r4, #1
005C1FA8  47A0     		blx r4
005C1FAA  F8DD 1000		ldr r1, [sp]
005C1FAE  B002     		add sp, sp, #8

#783				ST		SString	{LNXT:265|266|-1}
(*) STRING
005C1FB0  B082     		sub sp, sp, #8
005C1FB2  F8CD 0000		str r0, [sp]
005C1FB6  E92D 0006		stmdb sp!, { r1, r2 }
005C1FBA  223D     		mov r2, #61 ; 61
005C1FBC  F85F 1734		ldr r1, [pc, #-1844] ; 0x20416194
005C1FC0  F85F 48AC		ldr r4, [pc, #-2220] ; 0x4BA059
005C1FC4  F044 0401		orr r4, r4, #1
005C1FC8  47A0     		blx r4
005C1FCA  E8BD 0006		ldmia sp!, { r1, r2 }
005C1FCE  F8DD 0000		ldr r0, [sp]
005C1FD2  B002     		add sp, sp, #8

#784		
#785				(* SString:= CONCAT(SString,SuffixTopicSubInSetupMode); *)
#786				LDP0		SString	{LNXT:266|267|-1}
(-) STRING
#787				CONCAT		SuffixTopicSubInSetupMode	{LNXT:266|267|-1}
(*) STRING
005C1FD4  F85F 074C		ldr r0, [pc, #-1868] ; 0x20416194
005C1FD8  B082     		sub sp, sp, #8
005C1FDA  F8CD 1000		str r1, [sp]
005C1FDE  F8DF 10FC		ldr r1, [pc, #+252] ; 0x20416218
005C1FE2  F85F 48C8		ldr r4, [pc, #-2248] ; 0x4BC265
005C1FE6  F044 0401		orr r4, r4, #1
005C1FEA  47A0     		blx r4
005C1FEC  F8DD 1000		ldr r1, [sp]
005C1FF0  B002     		add sp, sp, #8

#788				ST		SString	{LNXT:266|267|-1}
(*) STRING
005C1FF2  B082     		sub sp, sp, #8
005C1FF4  F8CD 0000		str r0, [sp]
005C1FF8  E92D 0006		stmdb sp!, { r1, r2 }
005C1FFC  223D     		mov r2, #61 ; 61
005C1FFE  F85F 1774		ldr r1, [pc, #-1908] ; 0x20416194
005C2002  F85F 48EC		ldr r4, [pc, #-2284] ; 0x4BA059
005C2006  F044 0401		orr r4, r4, #1
005C200A  47A0     		blx r4
005C200C  E8BD 0006		ldmia sp!, { r1, r2 }
005C2010  F8DD 0000		ldr r0, [sp]
005C2014  B002     		add sp, sp, #8

#789		
#790				(* MQTT.Topic:=ADR(SString); *)
#791				ADR		SString	{LNXT:267|268|-1}
(*) STRING
005C2016  F85F 078C		ldr r0, [pc, #-1932] ; 0x20416194

#792				ST		MQTT.Topic	{LNXT:267|268|-1}
(*) @STRING
005C201A  F8DF 70A4		ldr r7, [pc, #+164] ; 0x20415D84
005C201E  6038     		str r0, [r7]

#793		
#794				(* MQTT.Subscribe:=TRUE; *)
#795				MOVE		TRUE,MQTT.Subscribe	{LNXT:268|269|-1}
(*) @STRING
005C2020  2001     		mov r0, #1 ; 1
005C2022  F8DF 7098		ldr r7, [pc, #+152] ; 0x20415D67
005C2026  7038     		strb r0, [r7]

#796		
#797				(* CaseNr:=CaseNr+1; *)
#798				LD		CaseNr	{LNXT:269|19|-1}
(*) UNDEF
005C2028  F85F 787C		ldr r7, [pc, #-2172] ; 0x20415C4B
005C202C  7838     		ldrb r0, [r7]

#799				ADD		1	{LNXT:269|19|-1}
(-) USINT
005C202E  1C40     		add r0, r0, #1

#800				ST		CaseNr	{LNXT:269|19|-1}
(*) USINT
005C2030  F85F 7884		ldr r7, [pc, #-2180] ; 0x20415C4B
005C2034  7038     		strb r0, [r7]

#801				JMP		$label18	{LNXT:263|19|-1}
(-) USINT
005C2036  E3B9     		b #1906 ; 0x005C27AC


#802		
#803		$label26:
#804				(* MQTT.Subscribe:=FALSE; *)
#805				MOVE		FALSE,MQTT.Subscribe	{LNXT:272|273|-1}
(*) USINT
005C203A  2000     		mov r0, #0 ; 0
005C203C  F8DF 707C		ldr r7, [pc, #+124] ; 0x20415D67
005C2040  7038     		strb r0, [r7]

#806		
#807		
#808				(* IF MQTT.Subscribed) *)
#809				LD		MQTT.Subscribed	{LNXT:273|-1|-1}
(*) UNDEF
005C2042  F8DF 7080		ldr r7, [pc, #+128] ; 0x20415DA4
005C2046  7838     		ldrb r0, [r7]

#810				NOT	{LNXT:273|-1|-1}
(*) BOOL
005C2048  2800     		cmp r0, #0
005C204A  BF08 2001		eqmov r0, #1
005C204E  BF18 2000		nemov r0, #0

#811				JMPCN	$label38	{LNXT:273|273|274}
(-) BOOL
005C2052  2800     		cmp r0, #0
005C2054  D002     		beq #4 ; 0x005C205C


#812		
#813				(* THEN *)
#814		
#815					(* RETURN *)
#816					RET
#817		
(-) BOOL
005C2058  E3A8     		b #1872 ; 0x005C27AC


#818		$label38:
#819				(* END_IF *)
#820		
#821				(* CaseNr:=CaseNr+1; *)
#822				LD		CaseNr	{LNXT:274|19|-1}
(*) UNDEF
005C205C  F85F 78B0		ldr r7, [pc, #-2224] ; 0x20415C4B
005C2060  7838     		ldrb r0, [r7]

#823				ADD		1	{LNXT:274|19|-1}
(-) USINT
005C2062  1C40     		add r0, r0, #1

#824				ST		CaseNr	{LNXT:274|19|-1}
(*) USINT
005C2064  F85F 78B8		ldr r7, [pc, #-2232] ; 0x20415C4B
005C2068  7038     		strb r0, [r7]

#825				JMP		$label18	{LNXT:272|19|-1}
(-) USINT
005C206A  E39F     		b #1854 ; 0x005C27AC


#826		
#827		$label27:
#828				(* SString:= CONCAT(PrefixTopicState,sIdMachine_2001); *)
#829				LDP0		PrefixTopicState	{LNXT:278|279|-1}
(-) USINT
#830				CONCAT		sIdMachine_2001	{LNXT:278|279|-1}
(*) USINT
005C206E  F8DF 0060		ldr r0, [pc, #+96] ; 0x204161F8
005C2072  B082     		sub sp, sp, #8
005C2074  F8CD 1000		str r1, [sp]
005C2078  F8DF 1058		ldr r1, [pc, #+88] ; 0x2041620E
005C207C  F85F 4964		ldr r4, [pc, #-2404] ; 0x4BC265
005C2080  F044 0401		orr r4, r4, #1
005C2084  47A0     		blx r4
005C2086  F8DD 1000		ldr r1, [sp]
005C208A  B002     		add sp, sp, #8

#831				ST		SString	{LNXT:278|279|-1}
(*) STRING
005C208C  B082     		sub sp, sp, #8
005C208E  F8CD 0000		str r0, [sp]
005C2092  E92D 0006		stmdb sp!, { r1, r2 }
005C2096  223D     		mov r2, #61 ; 61
005C2098  F85F 1810		ldr r1, [pc, #-2064] ; 0x20416194
005C209C  F85F 4988		ldr r4, [pc, #-2440] ; 0x4BA059
005C20A0  F044 0401		orr r4, r4, #1
005C20A4  47A0     		blx r4
005C20A6  E8BD 0006		ldmia sp!, { r1, r2 }
005C20AA  F8DD 0000		ldr r0, [sp]
005C20AE  B002     		add sp, sp, #8

005C20B0  E018     		b #48

005C20B4  005BA48C		; 0x005BA48C
005C20B8  20415AF4		; 0x20415AF4
005C20BC  20415D67		; 0x20415D67
005C20C0  20415D84		; 0x20415D84
005C20C4  20415DA4		; 0x20415DA4
005C20C8  20416059		; 0x20416059
005C20CC  204161F4		; 0x204161F4
005C20D0  204161F8		; 0x204161F8
005C20D4  2041620E		; 0x2041620E
005C20D8  20416214		; 0x20416214
005C20DC  20416218		; 0x20416218
005C20E0  2041622B		; 0x2041622B

#832		
#833				(* SString:= CONCAT(SString,PrefixTopicSubInSetupMode); *)
#834				LDP0		SString	{LNXT:279|280|-1}
(-) STRING
#835				CONCAT		PrefixTopicSubInSetupMode	{LNXT:279|280|-1}
(*) STRING
005C20E4  F85F 085C		ldr r0, [pc, #-2140] ; 0x20416194
005C20E8  B082     		sub sp, sp, #8
005C20EA  F8CD 1000		str r1, [sp]
005C20EE  F85F 1018		ldr r1, [pc, #-24] ; 0x20416214
005C20F2  F85F 49D8		ldr r4, [pc, #-2520] ; 0x4BC265
005C20F6  F044 0401		orr r4, r4, #1
005C20FA  47A0     		blx r4
005C20FC  F8DD 1000		ldr r1, [sp]
005C2100  B002     		add sp, sp, #8

#836				ST		SString	{LNXT:279|280|-1}
(*) STRING
005C2102  B082     		sub sp, sp, #8
005C2104  F8CD 0000		str r0, [sp]
005C2108  E92D 0006		stmdb sp!, { r1, r2 }
005C210C  223D     		mov r2, #61 ; 61
005C210E  F85F 1884		ldr r1, [pc, #-2180] ; 0x20416194
005C2112  F85F 49FC		ldr r4, [pc, #-2556] ; 0x4BA059
005C2116  F044 0401		orr r4, r4, #1
005C211A  47A0     		blx r4
005C211C  E8BD 0006		ldmia sp!, { r1, r2 }
005C2120  F8DD 0000		ldr r0, [sp]
005C2124  B002     		add sp, sp, #8

#837		
#838				(* SString:= CONCAT(SString,sIdMachine_2001); *)
#839				LDP0		SString	{LNXT:280|281|-1}
(-) STRING
#840				CONCAT		sIdMachine_2001	{LNXT:280|281|-1}
(*) STRING
005C2126  F85F 089C		ldr r0, [pc, #-2204] ; 0x20416194
005C212A  B082     		sub sp, sp, #8
005C212C  F8CD 1000		str r1, [sp]
005C2130  F85F 1060		ldr r1, [pc, #-96] ; 0x2041620E
005C2134  F85F 4A1C		ldr r4, [pc, #-2588] ; 0x4BC265
005C2138  F044 0401		orr r4, r4, #1
005C213C  47A0     		blx r4
005C213E  F8DD 1000		ldr r1, [sp]
005C2142  B002     		add sp, sp, #8

#841				ST		SString	{LNXT:280|281|-1}
(*) STRING
005C2144  B082     		sub sp, sp, #8
005C2146  F8CD 0000		str r0, [sp]
005C214A  E92D 0006		stmdb sp!, { r1, r2 }
005C214E  223D     		mov r2, #61 ; 61
005C2150  F85F 18C8		ldr r1, [pc, #-2248] ; 0x20416194
005C2154  F85F 4A40		ldr r4, [pc, #-2624] ; 0x4BA059
005C2158  F044 0401		orr r4, r4, #1
005C215C  47A0     		blx r4
005C215E  E8BD 0006		ldmia sp!, { r1, r2 }
005C2162  F8DD 0000		ldr r0, [sp]
005C2166  B002     		add sp, sp, #8

#842		
#843				(* SString:= CONCAT(SString,SuffixTopicSubInLockMode); *)
#844				LDP0		SString	{LNXT:281|282|-1}
(-) STRING
#845				CONCAT		SuffixTopicSubInLockMode	{LNXT:281|282|-1}
(*) STRING
005C2168  F85F 08E0		ldr r0, [pc, #-2272] ; 0x20416194
005C216C  B082     		sub sp, sp, #8
005C216E  F8CD 1000		str r1, [sp]
005C2172  F85F 1094		ldr r1, [pc, #-148] ; 0x2041622B
005C2176  F85F 4A5C		ldr r4, [pc, #-2652] ; 0x4BC265
005C217A  F044 0401		orr r4, r4, #1
005C217E  47A0     		blx r4
005C2180  F8DD 1000		ldr r1, [sp]
005C2184  B002     		add sp, sp, #8

#846				ST		SString	{LNXT:281|282|-1}
(*) STRING
005C2186  B082     		sub sp, sp, #8
005C2188  F8CD 0000		str r0, [sp]
005C218C  E92D 0006		stmdb sp!, { r1, r2 }
005C2190  223D     		mov r2, #61 ; 61
005C2192  F85F 1908		ldr r1, [pc, #-2312] ; 0x20416194
005C2196  F85F 4A80		ldr r4, [pc, #-2688] ; 0x4BA059
005C219A  F044 0401		orr r4, r4, #1
005C219E  47A0     		blx r4
005C21A0  E8BD 0006		ldmia sp!, { r1, r2 }
005C21A4  F8DD 0000		ldr r0, [sp]
005C21A8  B002     		add sp, sp, #8

#847		
#848				(* MQTT.Topic:=ADR(SString); *)
#849				ADR		SString	{LNXT:282|283|-1}
(*) STRING
005C21AA  F85F 0920		ldr r0, [pc, #-2336] ; 0x20416194

#850				ST		MQTT.Topic	{LNXT:282|283|-1}
(*) @STRING
005C21AE  F85F 70F0		ldr r7, [pc, #-240] ; 0x20415D84
005C21B2  6038     		str r0, [r7]

#851		
#852				(* MQTT.Subscribe:=TRUE; *)
#853				MOVE		TRUE,MQTT.Subscribe	{LNXT:283|284|-1}
(*) @STRING
005C21B4  2001     		mov r0, #1 ; 1
005C21B6  F85F 70FC		ldr r7, [pc, #-252] ; 0x20415D67
005C21BA  7038     		strb r0, [r7]

#854		
#855				(* CaseNr:=CaseNr+1; *)
#856				LD		CaseNr	{LNXT:284|19|-1}
(*) UNDEF
005C21BC  F85F 7A10		ldr r7, [pc, #-2576] ; 0x20415C4B
005C21C0  7838     		ldrb r0, [r7]

#857				ADD		1	{LNXT:284|19|-1}
(-) USINT
005C21C2  1C40     		add r0, r0, #1

#858				ST		CaseNr	{LNXT:284|19|-1}
(*) USINT
005C21C4  F85F 7A18		ldr r7, [pc, #-2584] ; 0x20415C4B
005C21C8  7038     		strb r0, [r7]

#859				JMP		$label18	{LNXT:278|19|-1}
(-) USINT
005C21CA  E2EF     		b #1502 ; 0x005C27AC


#860		
#861		$label28:
#862				(* MQTT.Subscribe:=FALSE; *)
#863				MOVE		FALSE,MQTT.Subscribe	{LNXT:287|288|-1}
(*) USINT
005C21CE  2000     		mov r0, #0 ; 0
005C21D0  F85F 7118		ldr r7, [pc, #-280] ; 0x20415D67
005C21D4  7038     		strb r0, [r7]

#864		
#865		
#866				(* IF MQTT.Subscribed) *)
#867				LD		MQTT.Subscribed	{LNXT:288|-1|-1}
(*) UNDEF
005C21D6  F85F 7114		ldr r7, [pc, #-276] ; 0x20415DA4
005C21DA  7838     		ldrb r0, [r7]

#868				NOT	{LNXT:288|-1|-1}
(*) BOOL
005C21DC  2800     		cmp r0, #0
005C21DE  BF08 2001		eqmov r0, #1
005C21E2  BF18 2000		nemov r0, #0

#869				JMPCN	$label39	{LNXT:288|288|289}
(-) BOOL
005C21E6  2800     		cmp r0, #0
005C21E8  D002     		beq #4 ; 0x005C21F0


#870		
#871				(* THEN *)
#872		
#873					(* RETURN *)
#874					RET
#875		
(-) BOOL
005C21EC  E2DE     		b #1468 ; 0x005C27AC


#876		$label39:
#877				(* END_IF *)
#878		
#879				(* CaseNr:=100; *)
#880				MOVE		100,CaseNr	{LNXT:289|19|-1}
(*) BOOL
005C21F0  2064     		mov r0, #100 ; 100
005C21F2  F85F 7A44		ldr r7, [pc, #-2628] ; 0x20415C4B
005C21F6  7038     		strb r0, [r7]

#881				JMP		$label18	{LNXT:287|19|-1}
(-) USINT
005C21F8  E2D8     		b #1456 ; 0x005C27AC


#882		
#883		$label29:
#884		
#885				(* IF IN_PUB_TRIGGER) AND (bStartEnable *)
#886				LD		IN_PUB_TRIGGER	{LNXT:298|-1|-1}
(*) UNDEF
005C21FC  F8DF 75E8		ldr r7, [pc, #+1512] ; 0x20415B7A
005C2200  7838     		ldrb r0, [r7]

#887				AND		bStartEnable	{LNXT:298|-1|-1}
(*) BOOL
005C2202  F8DF 75EC		ldr r7, [pc, #+1516] ; 0x20415B8D
005C2206  783F     		ldrb r7, [r7]
005C2208  4038     		and r0, r0, r7

#888				JMPCN	$label40	{LNXT:298|300|19}
(-) BOOL
005C220A  2800     		cmp r0, #0
005C220C  D030     		beq #96 ; 0x005C2270


#889		
#890				(* THEN *)
#891		
#892					(* IN_PUB_TRIGGER:=FALSE; *)
#893					MOVE		FALSE,IN_PUB_TRIGGER	{LNXT:300|302|-1}
(*) BOOL
005C2210  2000     		mov r0, #0 ; 0
005C2212  F8DF 75D4		ldr r7, [pc, #+1492] ; 0x20415B7A
005C2216  7038     		strb r0, [r7]

#894		
#895		
#896					(* IF TopicPub_Broadcast *)
#897					LD		TopicPub_Broadcast	{LNXT:302|-1|-1}
(*) UNDEF
005C2218  F85F 7AA0		ldr r7, [pc, #-2720] ; 0x20415B8C
005C221C  7838     		ldrb r0, [r7]

#898					JMPCN	$label41	{LNXT:302|303|308}
(-) BOOL
005C221E  2800     		cmp r0, #0
005C2220  D015     		beq #42 ; 0x005C224E


#899		
#900					(* THEN *)
#901		
#902						(* TopicPub_Broadcast := FALSE; *)
#903						MOVE		FALSE,TopicPub_Broadcast	{LNXT:303|304|-1}
(*) BOOL
005C2224  2000     		mov r0, #0 ; 0
005C2226  F85F 7AAC		ldr r7, [pc, #-2732] ; 0x20415B8C
005C222A  7038     		strb r0, [r7]

#904		
#905						(* TopicPub_Broadcast_in_cycle := TRUE; *)
#906						MOVE		TRUE,TopicPub_Broadcast_in_cycle	{LNXT:304|305|-1}
(*) BOOL
005C222C  2001     		mov r0, #1 ; 1
005C222E  F85F 7AA8		ldr r7, [pc, #-2728] ; 0x20415BDE
005C2232  7038     		strb r0, [r7]

#907		
#908						(* TopicPub_Cnt := 0; *)
#909						MOVE		0,TopicPub_Cnt	{LNXT:305|306|-1}
(*) BOOL
005C2234  2000     		mov r0, #0 ; 0
005C2236  F85F 7AAC		ldr r7, [pc, #-2732] ; 0x20415BDF
005C223A  7038     		strb r0, [r7]

#910		
#911						(* CaseNr:=CaseNr+1; *)
#912						LD		CaseNr	{LNXT:306|19|-1}
(*) UNDEF
005C223C  F85F 7A90		ldr r7, [pc, #-2704] ; 0x20415C4B
005C2240  7838     		ldrb r0, [r7]

#913						ADD		1	{LNXT:306|19|-1}
(-) USINT
005C2242  1C40     		add r0, r0, #1

#914						ST		CaseNr	{LNXT:306|19|-1}
(*) USINT
005C2244  F85F 7A98		ldr r7, [pc, #-2712] ; 0x20415C4B
005C2248  7038     		strb r0, [r7]

#915						JMP		$label42	{LNXT:302|303|308}
(-) USINT
005C224A  E011     		b #34 ; 0x005C2270


#916		$label41:
#917		
#918					(* ELSE *)
#919		
#920						(* TopicPub_Broadcast_in_cycle := FALSE; *)
#921						MOVE		FALSE,TopicPub_Broadcast_in_cycle	{LNXT:308|309|-1}
(*) USINT
005C224E  2000     		mov r0, #0 ; 0
005C2250  F85F 7ACC		ldr r7, [pc, #-2764] ; 0x20415BDE
005C2254  7038     		strb r0, [r7]

#922		
#923						(* TopicPub_Cnt := TopicPub_Single; *)
#924						MOVE		TopicPub_Single,TopicPub_Cnt	{LNXT:309|310|-1}
(*) BOOL
005C2256  F85F 7AD8		ldr r7, [pc, #-2776] ; 0x20415BDC
005C225A  7838     		ldrb r0, [r7]
005C225C  F85F 7AD4		ldr r7, [pc, #-2772] ; 0x20415BDF
005C2260  7038     		strb r0, [r7]

#925		
#926						(* CaseNr:=CaseNr+1; *)
#927						LD		CaseNr	{LNXT:310|19|-1}
(*) UNDEF
005C2262  F85F 7AB4		ldr r7, [pc, #-2740] ; 0x20415C4B
005C2266  7838     		ldrb r0, [r7]

#928						ADD		1	{LNXT:310|19|-1}
(-) USINT
005C2268  1C40     		add r0, r0, #1

#929						ST		CaseNr	{LNXT:310|19|-1}
(*) USINT
005C226A  F85F 7ABC		ldr r7, [pc, #-2748] ; 0x20415C4B
005C226E  7038     		strb r0, [r7]

#930		
#931		$label42:
#932					(* END_IF *)
#933		
#934		$label40:
#935				(* END_IF *)
#936				JMP		$label18	{LNXT:1|19|-1}
(-) USINT
005C2270  E29C     		b #1336 ; 0x005C27AC


#937		
#938		$label30:
#939		
#940				(* CASE TopicPub_Cnt OF *)
#941		
#942				(* 0: *)
#943				LD		TopicPub_Cnt	{LNXT:318|-1|-1}
(*) UNDEF
005C2274  F85F 7AEC		ldr r7, [pc, #-2796] ; 0x20415BDF
005C2278  7838     		ldrb r0, [r7]

#944				EQ		0	{LNXT:318|-1|-1}
(*) USINT
005C227A  2800     		cmp r0, #0
005C227C  BF18 2000		nemov r0, #0
005C2280  BF08 2001		eqmov r0, #1

#945				JMPC		$label44	{LNXT:318|319|19}
(-) BOOL
005C2284  2800     		cmp r0, #0
005C2286  D102     		bne #4 ; 0x005C228E


#946				JMP		$label43	{LNXT:318|319|19}
(-) BOOL
005C228A  E0D3     		b #422 ; 0x005C2434


#947		
#948				(* Istruzioni di ciascun CASE: *)
#949		
#950		$label44:
#951		
#952					(* IF bLastMsg_2001 *)
#953					LD		bLastMsg_2001	{LNXT:319|-1|-1}
(*) UNDEF
005C228E  F85F 7B18		ldr r7, [pc, #-2840] ; 0x20415B7B
005C2292  7838     		ldrb r0, [r7]

#954					NOT	{LNXT:319|-1|-1}
(*) BOOL
005C2294  2800     		cmp r0, #0
005C2296  BF08 2001		eqmov r0, #1
005C229A  BF18 2000		nemov r0, #0

#955					JMPCN	$label45	{LNXT:319|320|335}
(-) BOOL
005C229E  2800     		cmp r0, #0
005C22A0  F000 80C4		beq #392 ; 0x005C242C


#956		
#957					(* THEN *)
#958		
#959		
#960						(* IF sPrSr_2001 = ' *)
#961						LD		sPrSr_2001	{LNXT:320|-1|-1}
(*) UNDEF
005C22A4  F85F 0B54		ldr r0, [pc, #-2900] ; 0x20415602

#962						EQ		''	{LNXT:320|-1|-1}
(*) STRING
005C22A8  B082     		sub sp, sp, #8
005C22AA  F8CD 1000		str r1, [sp]
005C22AE  F85F 7B80		ldr r7, [pc, #-2944] ; 0x5BA43A
005C22B2  4639     		mov r1, r7
005C22B4  F85F 4B98		ldr r4, [pc, #-2968] ; 0x4BC61D
005C22B8  F044 0401		orr r4, r4, #1
005C22BC  47A0     		blx r4
005C22BE  F8DD 1000		ldr r1, [sp]
005C22C2  B002     		add sp, sp, #8

#963						JMPCN	$label47	{LNXT:320|321|323}
(-) BOOL
005C22C4  2800     		cmp r0, #0
005C22C6  D004     		beq #8 ; 0x005C22D2


#964		
#965						(* THEN *)
#966		
#967							(* bLastMsg_2001 := TRUE; *)
#968							MOVE		TRUE,bLastMsg_2001	{LNXT:321|323|-1}
(*) BOOL
005C22CA  2001     		mov r0, #1 ; 1
005C22CC  F85F 7B58		ldr r7, [pc, #-2904] ; 0x20415B7B
005C22D0  7038     		strb r0, [r7]

#969		
#970		$label47:
#971						(* END_IF *)
#972		
#973						(* IN_TopicPub      := TopicPubOut_2001; *)
#974						MOVE		TopicPubOut_2001,IN_TopicPub	{LNXT:323|324|-1}
(*) BOOL
005C22D2  F8DF 0534		ldr r0, [pc, #+1332] ; 0x2041623E
005C22D6  B082     		sub sp, sp, #8
005C22D8  F8CD 0000		str r0, [sp]
005C22DC  E92D 0006		stmdb sp!, { r1, r2 }
005C22E0  223D     		mov r2, #61 ; 61
005C22E2  F85F 1B4C		ldr r1, [pc, #-2892] ; 0x20415BFB
005C22E6  F85F 4BD0		ldr r4, [pc, #-3024] ; 0x4BA059
005C22EA  F044 0401		orr r4, r4, #1
005C22EE  47A0     		blx r4
005C22F0  E8BD 0006		ldmia sp!, { r1, r2 }
005C22F4  F8DD 0000		ldr r0, [sp]
005C22F8  B002     		add sp, sp, #8

#975		
#976						(* TopicPub_ST_Val  := dMachineState_2001; *)
#977						MOVE		dMachineState_2001,TopicPub_ST_Val	{LNXT:324|325|-1}
(*) STRING
005C22FA  F8DF 74E8		ldr r7, [pc, #+1256] ; 0x20415600
005C22FE  8838     		ldrh r0, [r7]
005C2300  F85F 7B68		ldr r7, [pc, #-2920] ; 0x20415C38
005C2304  8038     		strh r0, [r7]

#978		
#979						(* TopicPub_CPZ_Val := dCntRT_2001; *)
#980						MOVE		dCntRT_2001,TopicPub_CPZ_Val	{LNXT:325|326|-1}
(*) UINT
005C2306  F85F 7BBC		ldr r7, [pc, #-3004] ; 0x204155F8
005C230A  6838     		ldr r0, [r7]
005C230C  F85F 7B70		ldr r7, [pc, #-2928] ; 0x20415C3C
005C2310  6038     		str r0, [r7]

#981		
#982						(* TopicPub_Scarto_Val := dCntSC_2001; *)
#983						MOVE		dCntSC_2001,TopicPub_Scarto_Val	{LNXT:326|327|-1}
(*) REAL
005C2312  F85F 7BC4		ldr r7, [pc, #-3012] ; 0x204155FC
005C2316  6838     		ldr r0, [r7]
005C2318  F85F 7B78		ldr r7, [pc, #-2936] ; 0x20415C40
005C231C  6038     		str r0, [r7]

#984		
#985						(* TopicPub_IdMachine_Val := sIdMachine_2001; *)
#986						MOVE		sIdMachine_2001,TopicPub_IdMachine_Val	{LNXT:327|328|-1}
(*) REAL
005C231E  F85F 024C		ldr r0, [pc, #-588] ; 0x2041620E
005C2322  B082     		sub sp, sp, #8
005C2324  F8CD 0000		str r0, [sp]
005C2328  E92D 0006		stmdb sp!, { r1, r2 }
005C232C  2206     		mov r2, #6 ; 6
005C232E  F85F 1B88		ldr r1, [pc, #-2952] ; 0x20415C44
005C2332  F85F 4C1C		ldr r4, [pc, #-3100] ; 0x4BA059
005C2336  F044 0401		orr r4, r4, #1
005C233A  47A0     		blx r4
005C233C  E8BD 0006		ldmia sp!, { r1, r2 }
005C2340  F8DD 0000		ldr r0, [sp]
005C2344  B002     		add sp, sp, #8

#987		
#988						(* TopicPub_MacRatePpm_Val:= dMacRatePpm_2001; *)
#989						MOVE		dMacRatePpm_2001,TopicPub_MacRatePpm_Val	{LNXT:328|329|-1}
(*) STRING
005C2346  F8DF 74A4		ldr r7, [pc, #+1188] ; 0x20415B84
005C234A  6838     		ldr r0, [r7]
005C234C  F85F 7B9C		ldr r7, [pc, #-2972] ; 0x20415C4C
005C2350  6038     		str r0, [r7]

#990		
#991						(* TopicPub_PartProgram_Val := sPartProgram_2001; *)
#992						MOVE		sPartProgram_2001,TopicPub_PartProgram_Val	{LNXT:329|330|-1}
(*) REAL
005C2352  F85F 0BEC		ldr r0, [pc, #-3052] ; 0x20415AF5
005C2356  B082     		sub sp, sp, #8
005C2358  F8CD 0000		str r0, [sp]
005C235C  E92D 0006		stmdb sp!, { r1, r2 }
005C2360  2221     		mov r2, #33 ; 33
005C2362  F85F 1BAC		ldr r1, [pc, #-2988] ; 0x20415C50
005C2366  F85F 4C50		ldr r4, [pc, #-3152] ; 0x4BA059
005C236A  F044 0401		orr r4, r4, #1
005C236E  47A0     		blx r4
005C2370  E8BD 0006		ldmia sp!, { r1, r2 }
005C2374  F8DD 0000		ldr r0, [sp]
005C2378  B002     		add sp, sp, #8

#993		
#994						(* TopicPub_ProductionRequest_Val := sProductionRequest_2001; *)
#995						MOVE		sProductionRequest_2001,TopicPub_ProductionRequest_Val	{LNXT:330|331|-1}
(*) STRING
005C237A  F85F 0C10		ldr r0, [pc, #-3088] ; 0x20415B16
005C237E  B082     		sub sp, sp, #8
005C2380  F8CD 0000		str r0, [sp]
005C2384  E92D 0006		stmdb sp!, { r1, r2 }
005C2388  2221     		mov r2, #33 ; 33
005C238A  F85F 1BD0		ldr r1, [pc, #-3024] ; 0x20415C71
005C238E  F85F 4C78		ldr r4, [pc, #-3192] ; 0x4BA059
005C2392  F044 0401		orr r4, r4, #1
005C2396  47A0     		blx r4
005C2398  E8BD 0006		ldmia sp!, { r1, r2 }
005C239C  F8DD 0000		ldr r0, [sp]
005C23A0  B002     		add sp, sp, #8

#996		
#997						(* TopicPub_SegmentRequirement_Val := sSegmentRequirement_2001; *)
#998						MOVE		sSegmentRequirement_2001,TopicPub_SegmentRequirement_Val	{LNXT:331|332|-1}
(*) STRING
005C23A2  F85F 0C34		ldr r0, [pc, #-3124] ; 0x20415B37
005C23A6  B082     		sub sp, sp, #8
005C23A8  F8CD 0000		str r0, [sp]
005C23AC  E92D 0006		stmdb sp!, { r1, r2 }
005C23B0  2221     		mov r2, #33 ; 33
005C23B2  F85F 1BF4		ldr r1, [pc, #-3060] ; 0x20415C92
005C23B6  F85F 4CA0		ldr r4, [pc, #-3232] ; 0x4BA059
005C23BA  F044 0401		orr r4, r4, #1
005C23BE  47A0     		blx r4
005C23C0  E8BD 0006		ldmia sp!, { r1, r2 }
005C23C4  F8DD 0000		ldr r0, [sp]
005C23C8  B002     		add sp, sp, #8

#999		
#1000		
#1001						(* IF sPartProgram_2001 = 'INITSEQUENCE *)
#1002						LD		sPartProgram_2001	{LNXT:332|-1|-1}
(*) UNDEF
005C23CA  F85F 0C64		ldr r0, [pc, #-3172] ; 0x20415AF5

#1003						EQ		'INITSEQUENCE'	{LNXT:332|-1|-1}
(*) STRING
005C23CE  B082     		sub sp, sp, #8
005C23D0  F8CD 1000		str r1, [sp]
005C23D4  F85F 7CAC		ldr r7, [pc, #-3244] ; 0x5BA42C
005C23D8  4639     		mov r1, r7
005C23DA  F85F 4CBC		ldr r4, [pc, #-3260] ; 0x4BC61D
005C23DE  F044 0401		orr r4, r4, #1
005C23E2  47A0     		blx r4
005C23E4  F8DD 1000		ldr r1, [sp]
005C23E8  B002     		add sp, sp, #8

#1004						JMPCN	$label48	{LNXT:332|332|333}
(-) BOOL
005C23EA  2800     		cmp r0, #0
005C23EC  D015     		beq #42 ; 0x005C241A


#1005		
#1006						(* THEN *)
#1007		
#1008							(* sPartProgram_2001 := ''; *)
#1009							MOVE		'',sPartProgram_2001	{LNXT:332|333|-1}
(*) BOOL
005C23F0  F85F 7CC4		ldr r7, [pc, #-3268] ; 0x5BA43A
005C23F4  4638     		mov r0, r7
005C23F6  B082     		sub sp, sp, #8
005C23F8  F8CD 0000		str r0, [sp]
005C23FC  E92D 0006		stmdb sp!, { r1, r2 }
005C2400  2221     		mov r2, #33 ; 33
005C2402  F85F 1C9C		ldr r1, [pc, #-3228] ; 0x20415AF5
005C2406  F85F 4CF0		ldr r4, [pc, #-3312] ; 0x4BA059
005C240A  F044 0401		orr r4, r4, #1
005C240E  47A0     		blx r4
005C2410  E8BD 0006		ldmia sp!, { r1, r2 }
005C2414  F8DD 0000		ldr r0, [sp]
005C2418  B002     		add sp, sp, #8

#1010		
#1011		$label48:
#1012						(* END_IF *)
#1013		
#1014						(* CaseNr:=CaseNr+1; *)
#1015						LD		CaseNr	{LNXT:333|19|-1}
(*) UNDEF
005C241A  F85F 7C6C		ldr r7, [pc, #-3180] ; 0x20415C4B
005C241E  7838     		ldrb r0, [r7]

#1016						ADD		1	{LNXT:333|19|-1}
(-) USINT
005C2420  1C40     		add r0, r0, #1

#1017						ST		CaseNr	{LNXT:333|19|-1}
(*) USINT
005C2422  F85F 7C74		ldr r7, [pc, #-3188] ; 0x20415C4B
005C2426  7038     		strb r0, [r7]

#1018						JMP		$label46	{LNXT:319|320|335}
(-) USINT
005C2428  E004     		b #8 ; 0x005C2434


#1019		$label45:
#1020		
#1021					(* ELSE *)
#1022		
#1023						(* CaseNr:=104; *)
#1024						MOVE		104,CaseNr	{LNXT:335|19|-1}
(*) USINT
005C242C  2068     		mov r0, #104 ; 104
005C242E  F85F 7C80		ldr r7, [pc, #-3200] ; 0x20415C4B
005C2432  7038     		strb r0, [r7]

#1025		
#1026		$label46:
#1027					(* END_IF *)
#1028		
#1029		$label43:
#1030		
#1031				(* END_CASE *)
#1032				JMP		$label18	{LNXT:1|319|-1}
(-) USINT
005C2434  E1BA     		b #884 ; 0x005C27AC


#1033		
#1034		$label31:
#1035				(* MQTT.Topic:=ADR(IN_TopicPub); *)
#1036				ADR		IN_TopicPub	{LNXT:343|349|-1}
(*) USINT
005C2438  F85F 0CA4		ldr r0, [pc, #-3236] ; 0x20415BFB

#1037				ST		MQTT.Topic	{LNXT:343|349|-1}
(*) @STRING
005C243C  F85F 7380		ldr r7, [pc, #-896] ; 0x20415D84
005C2440  6038     		str r0, [r7]

#1038		
#1039				(* i:=Sysmemset(ADR(JSONObject), 0, SIZEOF(JSONObject)); *)
#1040				ADR		JSONObject	{LNXT:349|351|-1}
(*) @STRING
005C2442  F8DF 03C8		ldr r0, [pc, #+968] ; 0x20416259

#1041				Sysmemset		0, SIZE#JSONObject	{LNXT:349|351|-1}
(*) @STRING
005C2446  4607     		mov r7, r0
005C2448  4638     		mov r0, r7
005C244A  2700     		mov r7, #0 ; 0
005C244C  4639     		mov r1, r7
005C244E  F85F 7D4C		ldr r7, [pc, #-3404] ; 0x201
005C2452  463A     		mov r2, r7
005C2454  F8DF 4360		ldr r4, [pc, #+864] ; 0x4A22DD
005C2458  F044 0401		orr r4, r4, #1
005C245C  47A0     		blx r4

#1042				ST		i	{LNXT:349|351|-1}
(*) DWORD
005C245E  F8DF 73B0		ldr r7, [pc, #+944] ; 0x2041645C
005C2462  6038     		str r0, [r7]

#1043		
#1044				(* JEncode *)
#1045				ADR		JSONObject	{LNXT:351|-1|-1}
(*) DWORD
005C2464  F8DF 03A4		ldr r0, [pc, #+932] ; 0x20416259

#1046				ST		JEncode.Object	{LNXT:351|-1|-1}
(*) @STRING
005C2468  F8DF 73AC		ldr r7, [pc, #+940] ; 0x20416470
005C246C  6038     		str r0, [r7]

#1047				MOVE		SIZE#JSONObject,JEncode.OSize	{LNXT:351|-1|-1}
(*) @STRING
005C246E  F85F 7D6C		ldr r7, [pc, #-3436] ; 0x201
005C2472  4638     		mov r0, r7
005C2474  F8DF 73A4		ldr r7, [pc, #+932] ; 0x20416474
005C2478  6038     		str r0, [r7]

#1048				ADR		'Eq'	{LNXT:351|-1|-1}
(*) UDINT
005C247A  F8DF 0344		ldr r0, [pc, #+836] ; 0x5BA490

#1049				ST		JEncode.Name	{LNXT:351|-1|-1}
(*) @STRING
005C247E  F8DF 73A0		ldr r7, [pc, #+928] ; 0x20416478
005C2482  6038     		str r0, [r7]

#1050				MOVE		STRING_TYPE,JEncode.VType	{LNXT:351|-1|-1}
(*) @STRING
005C2484  2032     		mov r0, #50 ; 50
005C2486  F8DF 739C		ldr r7, [pc, #+924] ; 0x2041647C
005C248A  6038     		str r0, [r7]

#1051				ADR		TopicPub_IdMachine_Val	{LNXT:351|-1|-1}
(*) DINT
005C248C  F85F 0CE8		ldr r0, [pc, #-3304] ; 0x20415C44

#1052				ST		JEncode.VAddress	{LNXT:351|-1|-1}
(*) @STRING
005C2490  F8DF 7394		ldr r7, [pc, #+916] ; 0x20416480
005C2494  6038     		str r0, [r7]

#1053				MOVE		1,JEncode.Count	{LNXT:351|-1|-1}
(*) @STRING
005C2496  2001     		mov r0, #1 ; 1
005C2498  F8DF 7390		ldr r7, [pc, #+912] ; 0x20416484
005C249C  6038     		str r0, [r7]

#1054				CAL		JEncode	{LNXT:351|352|-1}
(*) UDINT
005C249E  E92D 0021		stmdb sp!, { r0, r5 }
005C24A2  F8DF 5370		ldr r5, [pc, #+880] ; 0x20416460
005C24A6  F8DF 4338		ldr r4, [pc, #+824] ; 0x5BB9C4
005C24AA  F044 0401		orr r4, r4, #1
005C24AE  47A0     		blx r4
005C24B0  E8BD 0021		ldmia sp!, { r0, r5 }

#1055		
#1056				(* JEncode *)
#1057				ADR		JSONObject	{LNXT:352|-1|-1}
(*) UDINT
005C24B4  F8DF 0354		ldr r0, [pc, #+852] ; 0x20416259

#1058				ST		JEncode.Object	{LNXT:352|-1|-1}
(*) @STRING
005C24B8  F8DF 735C		ldr r7, [pc, #+860] ; 0x20416470
005C24BC  6038     		str r0, [r7]

#1059				MOVE		SIZE#JSONObject,JEncode.OSize	{LNXT:352|-1|-1}
(*) @STRING
005C24BE  F85F 7DBC		ldr r7, [pc, #-3516] ; 0x201
005C24C2  4638     		mov r0, r7
005C24C4  F8DF 7354		ldr r7, [pc, #+852] ; 0x20416474
005C24C8  6038     		str r0, [r7]

#1060				ADR		'Ms'	{LNXT:352|-1|-1}
(*) UDINT
005C24CA  F8DF 02F8		ldr r0, [pc, #+760] ; 0x5BA494

#1061				ST		JEncode.Name	{LNXT:352|-1|-1}
(*) @STRING
005C24CE  F8DF 7350		ldr r7, [pc, #+848] ; 0x20416478
005C24D2  6038     		str r0, [r7]

#1062				MOVE		UINT_TYPE,JEncode.VType	{LNXT:352|-1|-1}
(*) @STRING
005C24D4  2020     		mov r0, #32 ; 32
005C24D6  F8DF 734C		ldr r7, [pc, #+844] ; 0x2041647C
005C24DA  6038     		str r0, [r7]

#1063				ADR		TopicPub_ST_Val	{LNXT:352|-1|-1}
(*) DINT
005C24DC  F85F 0D44		ldr r0, [pc, #-3396] ; 0x20415C38

#1064				ST		JEncode.VAddress	{LNXT:352|-1|-1}
(*) @UINT
005C24E0  F8DF 7344		ldr r7, [pc, #+836] ; 0x20416480
005C24E4  6038     		str r0, [r7]

#1065				MOVE		1,JEncode.Count	{LNXT:352|-1|-1}
(*) @UINT
005C24E6  2001     		mov r0, #1 ; 1
005C24E8  F8DF 7340		ldr r7, [pc, #+832] ; 0x20416484
005C24EC  6038     		str r0, [r7]

#1066				CAL		JEncode	{LNXT:352|353|-1}
(*) UDINT
005C24EE  E92D 0021		stmdb sp!, { r0, r5 }
005C24F2  F8DF 5320		ldr r5, [pc, #+800] ; 0x20416460
005C24F6  F8DF 42E8		ldr r4, [pc, #+744] ; 0x5BB9C4
005C24FA  F044 0401		orr r4, r4, #1
005C24FE  47A0     		blx r4
005C2500  E8BD 0021		ldmia sp!, { r0, r5 }

#1067		
#1068				(* JEncode *)
#1069				ADR		JSONObject	{LNXT:353|-1|-1}
(*) UDINT
005C2504  F8DF 0304		ldr r0, [pc, #+772] ; 0x20416259

#1070				ST		JEncode.Object	{LNXT:353|-1|-1}
(*) @STRING
005C2508  F8DF 730C		ldr r7, [pc, #+780] ; 0x20416470
005C250C  6038     		str r0, [r7]

#1071				MOVE		SIZE#JSONObject,JEncode.OSize	{LNXT:353|-1|-1}
(*) @STRING
005C250E  F85F 7E0C		ldr r7, [pc, #-3596] ; 0x201
005C2512  4638     		mov r0, r7
005C2514  F8DF 7304		ldr r7, [pc, #+772] ; 0x20416474
005C2518  6038     		str r0, [r7]

#1072				ADR		'Qty'	{LNXT:353|-1|-1}
(*) UDINT
005C251A  F8DF 02AC		ldr r0, [pc, #+684] ; 0x5BA498

#1073				ST		JEncode.Name	{LNXT:353|-1|-1}
(*) @STRING
005C251E  F8DF 7300		ldr r7, [pc, #+768] ; 0x20416478
005C2522  6038     		str r0, [r7]

#1074				MOVE		REAL_TYPE,JEncode.VType	{LNXT:353|-1|-1}
(*) @STRING
005C2524  202B     		mov r0, #43 ; 43
005C2526  F8DF 72FC		ldr r7, [pc, #+764] ; 0x2041647C
005C252A  6038     		str r0, [r7]

#1075				ADR		TopicPub_CPZ_Val	{LNXT:353|-1|-1}
(*) DINT
005C252C  F85F 0D90		ldr r0, [pc, #-3472] ; 0x20415C3C

#1076				ST		JEncode.VAddress	{LNXT:353|-1|-1}
(*) @REAL
005C2530  F8DF 72F4		ldr r7, [pc, #+756] ; 0x20416480
005C2534  6038     		str r0, [r7]

#1077				MOVE		1,JEncode.Count	{LNXT:353|-1|-1}
(*) @REAL
005C2536  2001     		mov r0, #1 ; 1
005C2538  F8DF 72F0		ldr r7, [pc, #+752] ; 0x20416484
005C253C  6038     		str r0, [r7]

#1078				CAL		JEncode	{LNXT:353|354|-1}
(*) UDINT
005C253E  E92D 0021		stmdb sp!, { r0, r5 }
005C2542  F8DF 52D0		ldr r5, [pc, #+720] ; 0x20416460
005C2546  F8DF 4298		ldr r4, [pc, #+664] ; 0x5BB9C4
005C254A  F044 0401		orr r4, r4, #1
005C254E  47A0     		blx r4
005C2550  E8BD 0021		ldmia sp!, { r0, r5 }

#1079		
#1080				(* JEncode *)
#1081				ADR		JSONObject	{LNXT:354|-1|-1}
(*) UDINT
005C2554  F8DF 02B4		ldr r0, [pc, #+692] ; 0x20416259

#1082				ST		JEncode.Object	{LNXT:354|-1|-1}
(*) @STRING
005C2558  F8DF 72BC		ldr r7, [pc, #+700] ; 0x20416470
005C255C  6038     		str r0, [r7]

#1083				MOVE		SIZE#JSONObject,JEncode.OSize	{LNXT:354|-1|-1}
(*) @STRING
005C255E  F85F 7E5C		ldr r7, [pc, #-3676] ; 0x201
005C2562  4638     		mov r0, r7
005C2564  F8DF 72B4		ldr r7, [pc, #+692] ; 0x20416474
005C2568  6038     		str r0, [r7]

#1084				ADR		'Sc'	{LNXT:354|-1|-1}
(*) UDINT
005C256A  F8DF 0260		ldr r0, [pc, #+608] ; 0x5BA4A0

#1085				ST		JEncode.Name	{LNXT:354|-1|-1}
(*) @STRING
005C256E  F8DF 72B0		ldr r7, [pc, #+688] ; 0x20416478
005C2572  6038     		str r0, [r7]

#1086				MOVE		REAL_TYPE,JEncode.VType	{LNXT:354|-1|-1}
(*) @STRING
005C2574  202B     		mov r0, #43 ; 43
005C2576  F8DF 72AC		ldr r7, [pc, #+684] ; 0x2041647C
005C257A  6038     		str r0, [r7]

#1087				ADR		TopicPub_Scarto_Val	{LNXT:354|-1|-1}
(*) DINT
005C257C  F85F 0DDC		ldr r0, [pc, #-3548] ; 0x20415C40

#1088				ST		JEncode.VAddress	{LNXT:354|-1|-1}
(*) @REAL
005C2580  F8DF 72A4		ldr r7, [pc, #+676] ; 0x20416480
005C2584  6038     		str r0, [r7]

#1089				MOVE		1,JEncode.Count	{LNXT:354|-1|-1}
(*) @REAL
005C2586  2001     		mov r0, #1 ; 1
005C2588  F8DF 72A0		ldr r7, [pc, #+672] ; 0x20416484
005C258C  6038     		str r0, [r7]

#1090				CAL		JEncode	{LNXT:354|355|-1}
(*) UDINT
005C258E  E92D 0021		stmdb sp!, { r0, r5 }
005C2592  F8DF 5280		ldr r5, [pc, #+640] ; 0x20416460
005C2596  F8DF 4248		ldr r4, [pc, #+584] ; 0x5BB9C4
005C259A  F044 0401		orr r4, r4, #1
005C259E  47A0     		blx r4
005C25A0  E8BD 0021		ldmia sp!, { r0, r5 }

#1091		
#1092				(* JEncode *)
#1093				ADR		JSONObject	{LNXT:355|-1|-1}
(*) UDINT
005C25A4  F8DF 0264		ldr r0, [pc, #+612] ; 0x20416259

#1094				ST		JEncode.Object	{LNXT:355|-1|-1}
(*) @STRING
005C25A8  F8DF 726C		ldr r7, [pc, #+620] ; 0x20416470
005C25AC  6038     		str r0, [r7]

#1095				MOVE		SIZE#JSONObject,JEncode.OSize	{LNXT:355|-1|-1}
(*) @STRING
005C25AE  F85F 7EAC		ldr r7, [pc, #-3756] ; 0x201
005C25B2  4638     		mov r0, r7
005C25B4  F8DF 7264		ldr r7, [pc, #+612] ; 0x20416474
005C25B8  6038     		str r0, [r7]

#1096				ADR		'Mr'	{LNXT:355|-1|-1}
(*) UDINT
005C25BA  F8DF 0214		ldr r0, [pc, #+532] ; 0x5BA4A4

#1097				ST		JEncode.Name	{LNXT:355|-1|-1}
(*) @STRING
005C25BE  F8DF 7260		ldr r7, [pc, #+608] ; 0x20416478
005C25C2  6038     		str r0, [r7]

#1098				MOVE		REAL_TYPE,JEncode.VType	{LNXT:355|-1|-1}
(*) @STRING
005C25C4  202B     		mov r0, #43 ; 43
005C25C6  F8DF 725C		ldr r7, [pc, #+604] ; 0x2041647C
005C25CA  6038     		str r0, [r7]

#1099				ADR		TopicPub_MacRatePpm_Val	{LNXT:355|-1|-1}
(*) DINT
005C25CC  F85F 0E1C		ldr r0, [pc, #-3612] ; 0x20415C4C

#1100				ST		JEncode.VAddress	{LNXT:355|-1|-1}
(*) @REAL
005C25D0  F8DF 7254		ldr r7, [pc, #+596] ; 0x20416480
005C25D4  6038     		str r0, [r7]

#1101				MOVE		1,JEncode.Count	{LNXT:355|-1|-1}
(*) @REAL
005C25D6  2001     		mov r0, #1 ; 1
005C25D8  F8DF 7250		ldr r7, [pc, #+592] ; 0x20416484
005C25DC  6038     		str r0, [r7]

#1102				CAL		JEncode	{LNXT:355|356|-1}
(*) UDINT
005C25DE  E92D 0021		stmdb sp!, { r0, r5 }
005C25E2  F8DF 5230		ldr r5, [pc, #+560] ; 0x20416460
005C25E6  F8DF 41F8		ldr r4, [pc, #+504] ; 0x5BB9C4
005C25EA  F044 0401		orr r4, r4, #1
005C25EE  47A0     		blx r4
005C25F0  E8BD 0021		ldmia sp!, { r0, r5 }

#1103		
#1104				(* JEncode *)
#1105				ADR		JSONObject	{LNXT:356|-1|-1}
(*) UDINT
005C25F4  F8DF 0214		ldr r0, [pc, #+532] ; 0x20416259

#1106				ST		JEncode.Object	{LNXT:356|-1|-1}
(*) @STRING
005C25F8  F8DF 721C		ldr r7, [pc, #+540] ; 0x20416470
005C25FC  6038     		str r0, [r7]

#1107				MOVE		SIZE#JSONObject,JEncode.OSize	{LNXT:356|-1|-1}
(*) @STRING
005C25FE  F85F 7EFC		ldr r7, [pc, #-3836] ; 0x201
005C2602  4638     		mov r0, r7
005C2604  F8DF 7214		ldr r7, [pc, #+532] ; 0x20416474
005C2608  6038     		str r0, [r7]

#1108				ADR		'Pp'	{LNXT:356|-1|-1}
(*) UDINT
005C260A  F8DF 01C8		ldr r0, [pc, #+456] ; 0x5BA4A8

#1109				ST		JEncode.Name	{LNXT:356|-1|-1}
(*) @STRING
005C260E  F8DF 7210		ldr r7, [pc, #+528] ; 0x20416478
005C2612  6038     		str r0, [r7]

#1110				MOVE		STRING_TYPE,JEncode.VType	{LNXT:356|-1|-1}
(*) @STRING
005C2614  2032     		mov r0, #50 ; 50
005C2616  F8DF 720C		ldr r7, [pc, #+524] ; 0x2041647C
005C261A  6038     		str r0, [r7]

#1111				ADR		TopicPub_PartProgram_Val	{LNXT:356|-1|-1}
(*) DINT
005C261C  F85F 0E68		ldr r0, [pc, #-3688] ; 0x20415C50

#1112				ST		JEncode.VAddress	{LNXT:356|-1|-1}
(*) @STRING
005C2620  F8DF 7204		ldr r7, [pc, #+516] ; 0x20416480
005C2624  6038     		str r0, [r7]

#1113				MOVE		1,JEncode.Count	{LNXT:356|-1|-1}
(*) @STRING
005C2626  2001     		mov r0, #1 ; 1
005C2628  F8DF 7200		ldr r7, [pc, #+512] ; 0x20416484
005C262C  6038     		str r0, [r7]

#1114				CAL		JEncode	{LNXT:356|357|-1}
(*) UDINT
005C262E  E92D 0021		stmdb sp!, { r0, r5 }
005C2632  F8DF 51E0		ldr r5, [pc, #+480] ; 0x20416460
005C2636  F8DF 41A8		ldr r4, [pc, #+424] ; 0x5BB9C4
005C263A  F044 0401		orr r4, r4, #1
005C263E  47A0     		blx r4
005C2640  E8BD 0021		ldmia sp!, { r0, r5 }

#1115		
#1116				(* JEncode *)
#1117				ADR		JSONObject	{LNXT:357|-1|-1}
(*) UDINT
005C2644  F8DF 01C4		ldr r0, [pc, #+452] ; 0x20416259

#1118				ST		JEncode.Object	{LNXT:357|-1|-1}
(*) @STRING
005C2648  F8DF 71CC		ldr r7, [pc, #+460] ; 0x20416470
005C264C  6038     		str r0, [r7]

#1119				MOVE		SIZE#JSONObject,JEncode.OSize	{LNXT:357|-1|-1}
(*) @STRING
005C264E  F85F 7F4C		ldr r7, [pc, #-3916] ; 0x201
005C2652  4638     		mov r0, r7
005C2654  F8DF 71C4		ldr r7, [pc, #+452] ; 0x20416474
005C2658  6038     		str r0, [r7]

#1120				ADR		'Pr'	{LNXT:357|-1|-1}
(*) UDINT
005C265A  F8DF 017C		ldr r0, [pc, #+380] ; 0x5BA4AC

#1121				ST		JEncode.Name	{LNXT:357|-1|-1}
(*) @STRING
005C265E  F8DF 71C0		ldr r7, [pc, #+448] ; 0x20416478
005C2662  6038     		str r0, [r7]

#1122				MOVE		STRING_TYPE,JEncode.VType	{LNXT:357|-1|-1}
(*) @STRING
005C2664  2032     		mov r0, #50 ; 50
005C2666  F8DF 71BC		ldr r7, [pc, #+444] ; 0x2041647C
005C266A  6038     		str r0, [r7]

#1123				ADR		TopicPub_ProductionRequest_Val	{LNXT:357|-1|-1}
(*) DINT
005C266C  F85F 0EB4		ldr r0, [pc, #-3764] ; 0x20415C71

#1124				ST		JEncode.VAddress	{LNXT:357|-1|-1}
(*) @STRING
005C2670  F8DF 71B4		ldr r7, [pc, #+436] ; 0x20416480
005C2674  6038     		str r0, [r7]

#1125				MOVE		1,JEncode.Count	{LNXT:357|-1|-1}
(*) @STRING
005C2676  2001     		mov r0, #1 ; 1
005C2678  F8DF 71B0		ldr r7, [pc, #+432] ; 0x20416484
005C267C  6038     		str r0, [r7]

#1126				CAL		JEncode	{LNXT:357|358|-1}
(*) UDINT
005C267E  E92D 0021		stmdb sp!, { r0, r5 }
005C2682  F8DF 5190		ldr r5, [pc, #+400] ; 0x20416460
005C2686  F8DF 4158		ldr r4, [pc, #+344] ; 0x5BB9C4
005C268A  F044 0401		orr r4, r4, #1
005C268E  47A0     		blx r4
005C2690  E8BD 0021		ldmia sp!, { r0, r5 }

#1127		
#1128				(* JEncode *)
#1129				ADR		JSONObject	{LNXT:358|-1|-1}
(*) UDINT
005C2694  F8DF 0174		ldr r0, [pc, #+372] ; 0x20416259

#1130				ST		JEncode.Object	{LNXT:358|-1|-1}
(*) @STRING
005C2698  F8DF 717C		ldr r7, [pc, #+380] ; 0x20416470
005C269C  6038     		str r0, [r7]

#1131				MOVE		SIZE#JSONObject,JEncode.OSize	{LNXT:358|-1|-1}
(*) @STRING
005C269E  F85F 7F9C		ldr r7, [pc, #-3996] ; 0x201
005C26A2  4638     		mov r0, r7
005C26A4  F8DF 7174		ldr r7, [pc, #+372] ; 0x20416474
005C26A8  6038     		str r0, [r7]

#1132				ADR		'Sr'	{LNXT:358|-1|-1}
(*) UDINT
005C26AA  F8DF 0130		ldr r0, [pc, #+304] ; 0x5BA4B0

#1133				ST		JEncode.Name	{LNXT:358|-1|-1}
(*) @STRING
005C26AE  F8DF 7170		ldr r7, [pc, #+368] ; 0x20416478
005C26B2  6038     		str r0, [r7]

#1134				MOVE		STRING_TYPE,JEncode.VType	{LNXT:358|-1|-1}
(*) @STRING
005C26B4  2032     		mov r0, #50 ; 50
005C26B6  F8DF 716C		ldr r7, [pc, #+364] ; 0x2041647C
005C26BA  6038     		str r0, [r7]

#1135				ADR		TopicPub_SegmentRequirement_Val	{LNXT:358|-1|-1}
(*) DINT
005C26BC  F85F 0F00		ldr r0, [pc, #-3840] ; 0x20415C92

#1136				ST		JEncode.VAddress	{LNXT:358|-1|-1}
(*) @STRING
005C26C0  F8DF 7164		ldr r7, [pc, #+356] ; 0x20416480
005C26C4  6038     		str r0, [r7]

#1137				MOVE		1,JEncode.Count	{LNXT:358|-1|-1}
(*) @STRING
005C26C6  2001     		mov r0, #1 ; 1
005C26C8  F8DF 7160		ldr r7, [pc, #+352] ; 0x20416484
005C26CC  6038     		str r0, [r7]

#1138				CAL		JEncode	{LNXT:358|360|-1}
(*) UDINT
005C26CE  E92D 0021		stmdb sp!, { r0, r5 }
005C26D2  F8DF 5140		ldr r5, [pc, #+320] ; 0x20416460
005C26D6  F8DF 4108		ldr r4, [pc, #+264] ; 0x5BB9C4
005C26DA  F044 0401		orr r4, r4, #1
005C26DE  47A0     		blx r4
005C26E0  E8BD 0021		ldmia sp!, { r0, r5 }

#1139		
#1140				(* MQTT.Value:=ADR(JSONObject); *)
#1141				ADR		JSONObject	{LNXT:360|364|-1}
(*) UDINT
005C26E4  F8DF 0124		ldr r0, [pc, #+292] ; 0x20416259

#1142				ST		MQTT.Value	{LNXT:360|364|-1}
(*) @STRING
005C26E8  F8DF 7110		ldr r7, [pc, #+272] ; 0x20415D88
005C26EC  6038     		str r0, [r7]

#1143		
#1144				(* MQTT.VLength:=Sysstrlen(MQTT.Value); *)
#1145				LDP0		MQTT.Value	{LNXT:364|365|-1}
(-) @STRING
#1146				Sysstrlen	{LNXT:364|365|-1}
(*) @STRING
005C26EE  F8DF 710C		ldr r7, [pc, #+268] ; 0x20415D88
005C26F2  683F     		ldr r7, [r7]
005C26F4  4638     		mov r0, r7
005C26F6  F8DF 40C4		ldr r4, [pc, #+196] ; 0x4A2581
005C26FA  F044 0401		orr r4, r4, #1
005C26FE  47A0     		blx r4

#1147				ST		MQTT.VLength	{LNXT:364|365|-1}
(*) UDINT
005C2700  F8DF 70FC		ldr r7, [pc, #+252] ; 0x20415D8C
005C2704  6038     		str r0, [r7]

#1148		
#1149				(* MQTT.Publish:=TRUE; *)
#1150				MOVE		TRUE,MQTT.Publish	{LNXT:365|366|-1}
(*) UDINT
005C2706  2001     		mov r0, #1 ; 1
005C2708  F8DF 70EC		ldr r7, [pc, #+236] ; 0x20415D66
005C270C  7038     		strb r0, [r7]

#1151		
#1152				(* CaseNr:=CaseNr+1; *)
#1153				LD		CaseNr	{LNXT:366|19|-1}
(*) UNDEF
005C270E  F85F 7F60		ldr r7, [pc, #-3936] ; 0x20415C4B
005C2712  7838     		ldrb r0, [r7]

#1154				ADD		1	{LNXT:366|19|-1}
(-) USINT
005C2714  1C40     		add r0, r0, #1

#1155				ST		CaseNr	{LNXT:366|19|-1}
(*) USINT
005C2716  F85F 7F68		ldr r7, [pc, #-3944] ; 0x20415C4B
005C271A  7038     		strb r0, [r7]

#1156				JMP		$label18	{LNXT:343|19|-1}
(-) USINT
005C271C  E046     		b #140 ; 0x005C27AC


#1157		
#1158		$label32:
#1159				(* MQTT.Publish:=FALSE; *)
#1160				MOVE		FALSE,MQTT.Publish	{LNXT:370|371|-1}
(*) USINT
005C2720  2000     		mov r0, #0 ; 0
005C2722  F8DF 70D4		ldr r7, [pc, #+212] ; 0x20415D66
005C2726  7038     		strb r0, [r7]

#1161		
#1162		
#1163				(* IF MQTT.Published) *)
#1164				LD		MQTT.Published	{LNXT:371|-1|-1}
(*) UNDEF
005C2728  F8DF 70D8		ldr r7, [pc, #+216] ; 0x20415DA3
005C272C  7838     		ldrb r0, [r7]

#1165				NOT	{LNXT:371|-1|-1}
(*) BOOL
005C272E  2800     		cmp r0, #0
005C2730  BF08 2001		eqmov r0, #1
005C2734  BF18 2000		nemov r0, #0

#1166				JMPCN	$label49	{LNXT:371|371|372}
(-) BOOL
005C2738  2800     		cmp r0, #0
005C273A  D002     		beq #4 ; 0x005C2742


#1167		
#1168				(* THEN *)
#1169		
#1170					(* RETURN *)
#1171					RET
#1172		
(-) BOOL
005C273E  E035     		b #106 ; 0x005C27AC


#1173		$label49:
#1174				(* END_IF *)
#1175		
#1176				(* CaseNr:=CaseNr+1; *)
#1177				LD		CaseNr	{LNXT:372|19|-1}
(*) UNDEF
005C2742  F85F 7F94		ldr r7, [pc, #-3988] ; 0x20415C4B
005C2746  7838     		ldrb r0, [r7]

#1178				ADD		1	{LNXT:372|19|-1}
(-) USINT
005C2748  1C40     		add r0, r0, #1

#1179				ST		CaseNr	{LNXT:372|19|-1}
(*) USINT
005C274A  F85F 7F9C		ldr r7, [pc, #-3996] ; 0x20415C4B
005C274E  7038     		strb r0, [r7]

#1180				JMP		$label18	{LNXT:370|19|-1}
(-) USINT
005C2750  E02C     		b #88 ; 0x005C27AC


#1181		
#1182		$label33:
#1183		
#1184				(* IF TopicPub_Broadcast_in_cycle *)
#1185				LD		TopicPub_Broadcast_in_cycle	{LNXT:376|-1|-1}
(*) UNDEF
005C2754  F85F 7FD0		ldr r7, [pc, #-4048] ; 0x20415BDE
005C2758  7838     		ldrb r0, [r7]

#1186				JMPCN	$label50	{LNXT:376|378|386}
(-) BOOL
005C275A  2800     		cmp r0, #0
005C275C  D022     		beq #68 ; 0x005C27A4


#1187		
#1188				(* THEN *)
#1189		
#1190		
#1191					(* IF TopicPub_Cnt < 0 *)
#1192					LD		TopicPub_Cnt	{LNXT:378|-1|-1}
(*) UNDEF
005C2760  F85F 7FD8		ldr r7, [pc, #-4056] ; 0x20415BDF
005C2764  7838     		ldrb r0, [r7]

#1193					LT		0	{LNXT:378|-1|-1}
(*) USINT
005C2766  2800     		cmp r0, #0
005C2768  BFA8 2000		gemov r0, #0
005C276C  BFB8 2001		ltmov r0, #1

#1194					JMPCN	$label52	{LNXT:378|379|382}
(-) BOOL
005C2770  2800     		cmp r0, #0
005C2772  D00D     		beq #26 ; 0x005C2790


#1195		
#1196					(* THEN *)
#1197		
#1198						(* TopicPub_Cnt := TopicPub_Cnt + 1; *)
#1199						LD		TopicPub_Cnt	{LNXT:379|380|-1}
(*) UNDEF
005C2776  F85F 7FEC		ldr r7, [pc, #-4076] ; 0x20415BDF
005C277A  7838     		ldrb r0, [r7]

#1200						ADD		1	{LNXT:379|380|-1}
(-) USINT
005C277C  1C40     		add r0, r0, #1

#1201						ST		TopicPub_Cnt	{LNXT:379|380|-1}
(*) USINT
005C277E  F85F 7FF4		ldr r7, [pc, #-4084] ; 0x20415BDF
005C2782  7038     		strb r0, [r7]

#1202		
#1203						(* CaseNr:=101; *)
#1204						MOVE		101,CaseNr	{LNXT:380|19|-1}
(*) USINT
005C2784  2065     		mov r0, #101 ; 101
005C2786  F85F 7FD8		ldr r7, [pc, #-4056] ; 0x20415C4B
005C278A  7038     		strb r0, [r7]

#1205						JMP		$label53	{LNXT:378|379|382}
(-) USINT
005C278C  E008     		b #16 ; 0x005C27A0


#1206		$label52:
#1207		
#1208					(* ELSE *)
#1209		
#1210						(* TopicPub_Broadcast_in_cycle := FALSE; *)
#1211						MOVE		FALSE,TopicPub_Broadcast_in_cycle	{LNXT:382|383|-1}
(*) USINT
005C2790  2000     		mov r0, #0 ; 0
005C2792  F8DF 7060		ldr r7, [pc, #+96] ; 0x20415BDE
005C2796  7038     		strb r0, [r7]

#1212		
#1213						(* CaseNr:=100; *)
#1214						MOVE		100,CaseNr	{LNXT:383|19|-1}
(*) BOOL
005C2798  2064     		mov r0, #100 ; 100
005C279A  F85F 7FEC		ldr r7, [pc, #-4076] ; 0x20415C4B
005C279E  7038     		strb r0, [r7]

#1215		
#1216		$label53:
#1217					(* END_IF *)
#1218					JMP		$label51	{LNXT:376|378|386}
(-) USINT
005C27A0  E004     		b #8 ; 0x005C27AC


#1219		$label50:
#1220		
#1221				(* ELSE *)
#1222		
#1223					(* CaseNr:=100; *)
#1224					MOVE		100,CaseNr	{LNXT:386|19|-1}
(*) USINT
005C27A4  2064     		mov r0, #100 ; 100
005C27A6  F85F 7FF8		ldr r7, [pc, #-4088] ; 0x20415C4B
005C27AA  7038     		strb r0, [r7]

005C27AC  E8BD 0FF0		ldmia sp!, { r4, r5, r6, r7, r8, r9, r10, r11 }
005C27B0  F8DD E000		ldr lr, [sp]
005C27B4  B002     		add sp, sp, #8

005C27B6  4770     		bx lr

005C27B8  004A22DD		; 0x004A22DD
005C27BC  004A2581		; 0x004A2581
005C27C0  005BA490		; 0x005BA490
005C27C4  005BA494		; 0x005BA494
005C27C8  005BA498		; 0x005BA498
005C27CC  005BA4A0		; 0x005BA4A0
005C27D0  005BA4A4		; 0x005BA4A4
005C27D4  005BA4A8		; 0x005BA4A8
005C27D8  005BA4AC		; 0x005BA4AC
005C27DC  005BA4B0		; 0x005BA4B0
005C27E0  005BB9C4		; 0x005BB9C4
005C27E4  20415600		; 0x20415600
005C27E8  20415B7A		; 0x20415B7A
005C27EC  20415B84		; 0x20415B84
005C27F0  20415B8D		; 0x20415B8D
005C27F4  20415BDE		; 0x20415BDE
005C27F8  20415D66		; 0x20415D66
005C27FC  20415D88		; 0x20415D88
005C2800  20415D8C		; 0x20415D8C
005C2804  20415DA3		; 0x20415DA3
005C2808  2041623E		; 0x2041623E
005C280C  20416259		; 0x20416259
005C2810  2041645C		; 0x2041645C
005C2814  20416460		; 0x20416460
005C2818  20416470		; 0x20416470
005C281C  20416474		; 0x20416474
005C2820  20416478		; 0x20416478
005C2824  2041647C		; 0x2041647C
005C2828  20416480		; 0x20416480
005C282C  20416484		; 0x20416484

END_PROGRAM


**************************************************
	Target variable image generation
**************************************************


*** INPUT:
005C2830  B082     		sub sp, sp, #8
005C2832  F8CD E000		str lr, [sp]
005C2836  E92D 0FF0		stmdb sp!, { r4, r5, r6, r7, r8, r9, r10, r11 }

005C283A  E8BD 0FF0		ldmia sp!, { r4, r5, r6, r7, r8, r9, r10, r11 }
005C283E  F8DD E000		ldr lr, [sp]
005C2842  B002     		add sp, sp, #8

005C2844  4770     		bx lr


*** OUTPUT:
005C2846  B082     		sub sp, sp, #8
005C2848  F8CD E000		str lr, [sp]
005C284C  E92D 0FF0		stmdb sp!, { r4, r5, r6, r7, r8, r9, r10, r11 }

005C2850  E8BD 0FF0		ldmia sp!, { r4, r5, r6, r7, r8, r9, r10, r11 }
005C2854  F8DD E000		ldr lr, [sp]
005C2858  B002     		add sp, sp, #8

005C285A  4770     		bx lr



**************************************************
	Task Back init code
**************************************************

005C285C  B082     		sub sp, sp, #8
005C285E  F8CD E000		str lr, [sp]
005C2862  E92D 0FF0		stmdb sp!, { r4, r5, r6, r7, r8, r9, r10, r11 }

Var init: V::MqttProgram.MQTT.LData = 2048
005C2866  F8DF 039C		ldr r0, [pc, #+924] ; 0x800
005C286A  F8DF 739C		ldr r7, [pc, #+924] ; 0x20415D4C
005C286E  6038     		str r0, [r7]

Var init: V::MqttProgram.MQTT.SLgt = 256
005C2870  F8DF 038C		ldr r0, [pc, #+908] ; 0x100
005C2874  F8DF 7394		ldr r7, [pc, #+916] ; 0x20415D60
005C2878  6038     		str r0, [r7]

Var init: V::MqttProgram.TopicSub_2001 = 'NTSM2176/MF40/PLC2RTS/2001'
005C287A  F8DF 7394		ldr r7, [pc, #+916] ; 0x2041603E
005C287E  234E     		mov r3, #0x4E
005C2880  703B     		strb r3, [r7, #+0]
005C2882  2354     		mov r3, #0x54
005C2884  707B     		strb r3, [r7, #+1]
005C2886  2353     		mov r3, #0x53
005C2888  70BB     		strb r3, [r7, #+2]
005C288A  234D     		mov r3, #0x4D
005C288C  70FB     		strb r3, [r7, #+3]
005C288E  2332     		mov r3, #0x32
005C2890  713B     		strb r3, [r7, #+4]
005C2892  2331     		mov r3, #0x31
005C2894  717B     		strb r3, [r7, #+5]
005C2896  2337     		mov r3, #0x37
005C2898  71BB     		strb r3, [r7, #+6]
005C289A  2336     		mov r3, #0x36
005C289C  71FB     		strb r3, [r7, #+7]
005C289E  232F     		mov r3, #0x2F
005C28A0  723B     		strb r3, [r7, #+8]
005C28A2  234D     		mov r3, #0x4D
005C28A4  727B     		strb r3, [r7, #+9]
005C28A6  2346     		mov r3, #0x46
005C28A8  72BB     		strb r3, [r7, #+10]
005C28AA  2334     		mov r3, #0x34
005C28AC  72FB     		strb r3, [r7, #+11]
005C28AE  2330     		mov r3, #0x30
005C28B0  733B     		strb r3, [r7, #+12]
005C28B2  232F     		mov r3, #0x2F
005C28B4  737B     		strb r3, [r7, #+13]
005C28B6  2350     		mov r3, #0x50
005C28B8  73BB     		strb r3, [r7, #+14]
005C28BA  234C     		mov r3, #0x4C
005C28BC  73FB     		strb r3, [r7, #+15]
005C28BE  2343     		mov r3, #0x43
005C28C0  743B     		strb r3, [r7, #+16]
005C28C2  2332     		mov r3, #0x32
005C28C4  747B     		strb r3, [r7, #+17]
005C28C6  2352     		mov r3, #0x52
005C28C8  74BB     		strb r3, [r7, #+18]
005C28CA  2354     		mov r3, #0x54
005C28CC  74FB     		strb r3, [r7, #+19]
005C28CE  2353     		mov r3, #0x53
005C28D0  753B     		strb r3, [r7, #+20]
005C28D2  232F     		mov r3, #0x2F
005C28D4  757B     		strb r3, [r7, #+21]
005C28D6  2332     		mov r3, #0x32
005C28D8  75BB     		strb r3, [r7, #+22]
005C28DA  2330     		mov r3, #0x30
005C28DC  75FB     		strb r3, [r7, #+23]
005C28DE  2330     		mov r3, #0x30
005C28E0  763B     		strb r3, [r7, #+24]
005C28E2  2331     		mov r3, #0x31
005C28E4  767B     		strb r3, [r7, #+25]

Var init: V::MqttProgram.JDecode.VType = 10
005C28E6  F8DF 0314		ldr r0, [pc, #+788] ; 0xA
005C28EA  F8DF 7328		ldr r7, [pc, #+808] ; 0x20416104
005C28EE  6038     		str r0, [r7]

Var init: V::MqttProgram.Json_Pr = 'Pr'
005C28F0  F8DF 7324		ldr r7, [pc, #+804] ; 0x20416124
005C28F4  2350     		mov r3, #0x50
005C28F6  703B     		strb r3, [r7, #+0]
005C28F8  2372     		mov r3, #0x72
005C28FA  707B     		strb r3, [r7, #+1]

Var init: V::MqttProgram.Json_Sr = 'Sr'
005C28FC  F8DF 731C		ldr r7, [pc, #+796] ; 0x20416128
005C2900  2353     		mov r3, #0x53
005C2902  703B     		strb r3, [r7, #+0]
005C2904  2372     		mov r3, #0x72
005C2906  707B     		strb r3, [r7, #+1]

Var init: V::MqttProgram.Json_PrSr = 'PrSr'
005C2908  F8DF 7314		ldr r7, [pc, #+788] ; 0x2041612C
005C290C  2350     		mov r3, #0x50
005C290E  703B     		strb r3, [r7, #+0]
005C2910  2372     		mov r3, #0x72
005C2912  707B     		strb r3, [r7, #+1]
005C2914  2353     		mov r3, #0x53
005C2916  70BB     		strb r3, [r7, #+2]
005C2918  2372     		mov r3, #0x72
005C291A  70FB     		strb r3, [r7, #+3]

Var init: V::MqttProgram.Json_QtyTot = 'QtyTot'
005C291C  F8DF 7304		ldr r7, [pc, #+772] ; 0x20416134
005C2920  2351     		mov r3, #0x51
005C2922  703B     		strb r3, [r7, #+0]
005C2924  2374     		mov r3, #0x74
005C2926  707B     		strb r3, [r7, #+1]
005C2928  2379     		mov r3, #0x79
005C292A  70BB     		strb r3, [r7, #+2]
005C292C  2354     		mov r3, #0x54
005C292E  70FB     		strb r3, [r7, #+3]
005C2930  236F     		mov r3, #0x6F
005C2932  713B     		strb r3, [r7, #+4]
005C2934  2374     		mov r3, #0x74
005C2936  717B     		strb r3, [r7, #+5]

Var init: V::MqttProgram.Json_QtyGood = 'QtyGood'
005C2938  F8DF 72EC		ldr r7, [pc, #+748] ; 0x20416140
005C293C  2351     		mov r3, #0x51
005C293E  703B     		strb r3, [r7, #+0]
005C2940  2374     		mov r3, #0x74
005C2942  707B     		strb r3, [r7, #+1]
005C2944  2379     		mov r3, #0x79
005C2946  70BB     		strb r3, [r7, #+2]
005C2948  2347     		mov r3, #0x47
005C294A  70FB     		strb r3, [r7, #+3]
005C294C  236F     		mov r3, #0x6F
005C294E  713B     		strb r3, [r7, #+4]
005C2950  236F     		mov r3, #0x6F
005C2952  717B     		strb r3, [r7, #+5]
005C2954  2364     		mov r3, #0x64
005C2956  71BB     		strb r3, [r7, #+6]

Var init: V::MqttProgram.Json_QtyScrap = 'QtyScrap'
005C2958  F8DF 72D0		ldr r7, [pc, #+720] ; 0x20416150
005C295C  2351     		mov r3, #0x51
005C295E  703B     		strb r3, [r7, #+0]
005C2960  2374     		mov r3, #0x74
005C2962  707B     		strb r3, [r7, #+1]
005C2964  2379     		mov r3, #0x79
005C2966  70BB     		strb r3, [r7, #+2]
005C2968  2353     		mov r3, #0x53
005C296A  70FB     		strb r3, [r7, #+3]
005C296C  2363     		mov r3, #0x63
005C296E  713B     		strb r3, [r7, #+4]
005C2970  2372     		mov r3, #0x72
005C2972  717B     		strb r3, [r7, #+5]
005C2974  2361     		mov r3, #0x61
005C2976  71BB     		strb r3, [r7, #+6]
005C2978  2370     		mov r3, #0x70
005C297A  71FB     		strb r3, [r7, #+7]

Var init: V::MqttProgram.Json_MaterialDefinition = 'MaterialDefinition'
005C297C  F8DF 72B0		ldr r7, [pc, #+688] ; 0x20416160
005C2980  234D     		mov r3, #0x4D
005C2982  703B     		strb r3, [r7, #+0]
005C2984  2361     		mov r3, #0x61
005C2986  707B     		strb r3, [r7, #+1]
005C2988  2374     		mov r3, #0x74
005C298A  70BB     		strb r3, [r7, #+2]
005C298C  2365     		mov r3, #0x65
005C298E  70FB     		strb r3, [r7, #+3]
005C2990  2372     		mov r3, #0x72
005C2992  713B     		strb r3, [r7, #+4]
005C2994  2369     		mov r3, #0x69
005C2996  717B     		strb r3, [r7, #+5]
005C2998  2361     		mov r3, #0x61
005C299A  71BB     		strb r3, [r7, #+6]
005C299C  236C     		mov r3, #0x6C
005C299E  71FB     		strb r3, [r7, #+7]
005C29A0  2344     		mov r3, #0x44
005C29A2  723B     		strb r3, [r7, #+8]
005C29A4  2365     		mov r3, #0x65
005C29A6  727B     		strb r3, [r7, #+9]
005C29A8  2366     		mov r3, #0x66
005C29AA  72BB     		strb r3, [r7, #+10]
005C29AC  2369     		mov r3, #0x69
005C29AE  72FB     		strb r3, [r7, #+11]
005C29B0  236E     		mov r3, #0x6E
005C29B2  733B     		strb r3, [r7, #+12]
005C29B4  2369     		mov r3, #0x69
005C29B6  737B     		strb r3, [r7, #+13]
005C29B8  2374     		mov r3, #0x74
005C29BA  73BB     		strb r3, [r7, #+14]
005C29BC  2369     		mov r3, #0x69
005C29BE  73FB     		strb r3, [r7, #+15]
005C29C0  236F     		mov r3, #0x6F
005C29C2  743B     		strb r3, [r7, #+16]
005C29C4  236E     		mov r3, #0x6E
005C29C6  747B     		strb r3, [r7, #+17]

Var init: V::MqttProgram.Json_PartProgram = 'PartProgram'
005C29C8  F8DF 7268		ldr r7, [pc, #+616] ; 0x20416174
005C29CC  2350     		mov r3, #0x50
005C29CE  703B     		strb r3, [r7, #+0]
005C29D0  2361     		mov r3, #0x61
005C29D2  707B     		strb r3, [r7, #+1]
005C29D4  2372     		mov r3, #0x72
005C29D6  70BB     		strb r3, [r7, #+2]
005C29D8  2374     		mov r3, #0x74
005C29DA  70FB     		strb r3, [r7, #+3]
005C29DC  2350     		mov r3, #0x50
005C29DE  713B     		strb r3, [r7, #+4]
005C29E0  2372     		mov r3, #0x72
005C29E2  717B     		strb r3, [r7, #+5]
005C29E4  236F     		mov r3, #0x6F
005C29E6  71BB     		strb r3, [r7, #+6]
005C29E8  2367     		mov r3, #0x67
005C29EA  71FB     		strb r3, [r7, #+7]
005C29EC  2372     		mov r3, #0x72
005C29EE  723B     		strb r3, [r7, #+8]
005C29F0  2361     		mov r3, #0x61
005C29F2  727B     		strb r3, [r7, #+9]
005C29F4  236D     		mov r3, #0x6D
005C29F6  72BB     		strb r3, [r7, #+10]

Var init: V::MqttProgram.TopicSubInManualDeclaration = '/ManualDeclaration'
005C29F8  F8DF 723C		ldr r7, [pc, #+572] ; 0x20416181
005C29FC  232F     		mov r3, #0x2F
005C29FE  703B     		strb r3, [r7, #+0]
005C2A00  234D     		mov r3, #0x4D
005C2A02  707B     		strb r3, [r7, #+1]
005C2A04  2361     		mov r3, #0x61
005C2A06  70BB     		strb r3, [r7, #+2]
005C2A08  236E     		mov r3, #0x6E
005C2A0A  70FB     		strb r3, [r7, #+3]
005C2A0C  2375     		mov r3, #0x75
005C2A0E  713B     		strb r3, [r7, #+4]
005C2A10  2361     		mov r3, #0x61
005C2A12  717B     		strb r3, [r7, #+5]
005C2A14  236C     		mov r3, #0x6C
005C2A16  71BB     		strb r3, [r7, #+6]
005C2A18  2344     		mov r3, #0x44
005C2A1A  71FB     		strb r3, [r7, #+7]
005C2A1C  2365     		mov r3, #0x65
005C2A1E  723B     		strb r3, [r7, #+8]
005C2A20  2363     		mov r3, #0x63
005C2A22  727B     		strb r3, [r7, #+9]
005C2A24  236C     		mov r3, #0x6C
005C2A26  72BB     		strb r3, [r7, #+10]
005C2A28  2361     		mov r3, #0x61
005C2A2A  72FB     		strb r3, [r7, #+11]
005C2A2C  2372     		mov r3, #0x72
005C2A2E  733B     		strb r3, [r7, #+12]
005C2A30  2361     		mov r3, #0x61
005C2A32  737B     		strb r3, [r7, #+13]
005C2A34  2374     		mov r3, #0x74
005C2A36  73BB     		strb r3, [r7, #+14]
005C2A38  2369     		mov r3, #0x69
005C2A3A  73FB     		strb r3, [r7, #+15]
005C2A3C  236F     		mov r3, #0x6F
005C2A3E  743B     		strb r3, [r7, #+16]
005C2A40  236E     		mov r3, #0x6E
005C2A42  747B     		strb r3, [r7, #+17]

Var init: V::MqttProgram.TopicSubInScrapDeclaration = '/ScrapDeclaration'
005C2A44  F8DF 71F4		ldr r7, [pc, #+500] ; 0x204161E0
005C2A48  232F     		mov r3, #0x2F
005C2A4A  703B     		strb r3, [r7, #+0]
005C2A4C  2353     		mov r3, #0x53
005C2A4E  707B     		strb r3, [r7, #+1]
005C2A50  2363     		mov r3, #0x63
005C2A52  70BB     		strb r3, [r7, #+2]
005C2A54  2372     		mov r3, #0x72
005C2A56  70FB     		strb r3, [r7, #+3]
005C2A58  2361     		mov r3, #0x61
005C2A5A  713B     		strb r3, [r7, #+4]
005C2A5C  2370     		mov r3, #0x70
005C2A5E  717B     		strb r3, [r7, #+5]
005C2A60  2344     		mov r3, #0x44
005C2A62  71BB     		strb r3, [r7, #+6]
005C2A64  2365     		mov r3, #0x65
005C2A66  71FB     		strb r3, [r7, #+7]
005C2A68  2363     		mov r3, #0x63
005C2A6A  723B     		strb r3, [r7, #+8]
005C2A6C  236C     		mov r3, #0x6C
005C2A6E  727B     		strb r3, [r7, #+9]
005C2A70  2361     		mov r3, #0x61
005C2A72  72BB     		strb r3, [r7, #+10]
005C2A74  2372     		mov r3, #0x72
005C2A76  72FB     		strb r3, [r7, #+11]
005C2A78  2361     		mov r3, #0x61
005C2A7A  733B     		strb r3, [r7, #+12]
005C2A7C  2374     		mov r3, #0x74
005C2A7E  737B     		strb r3, [r7, #+13]
005C2A80  2369     		mov r3, #0x69
005C2A82  73BB     		strb r3, [r7, #+14]
005C2A84  236F     		mov r3, #0x6F
005C2A86  73FB     		strb r3, [r7, #+15]
005C2A88  236E     		mov r3, #0x6E
005C2A8A  743B     		strb r3, [r7, #+16]

Var init: V::MqttProgram.PrefixTopicState = 'NTSM2176/MF40/STATES/'
005C2A8C  F8DF 71B0		ldr r7, [pc, #+432] ; 0x204161F8
005C2A90  234E     		mov r3, #0x4E
005C2A92  703B     		strb r3, [r7, #+0]
005C2A94  2354     		mov r3, #0x54
005C2A96  707B     		strb r3, [r7, #+1]
005C2A98  2353     		mov r3, #0x53
005C2A9A  70BB     		strb r3, [r7, #+2]
005C2A9C  234D     		mov r3, #0x4D
005C2A9E  70FB     		strb r3, [r7, #+3]
005C2AA0  2332     		mov r3, #0x32
005C2AA2  713B     		strb r3, [r7, #+4]
005C2AA4  2331     		mov r3, #0x31
005C2AA6  717B     		strb r3, [r7, #+5]
005C2AA8  2337     		mov r3, #0x37
005C2AAA  71BB     		strb r3, [r7, #+6]
005C2AAC  2336     		mov r3, #0x36
005C2AAE  71FB     		strb r3, [r7, #+7]
005C2AB0  232F     		mov r3, #0x2F
005C2AB2  723B     		strb r3, [r7, #+8]
005C2AB4  234D     		mov r3, #0x4D
005C2AB6  727B     		strb r3, [r7, #+9]
005C2AB8  2346     		mov r3, #0x46
005C2ABA  72BB     		strb r3, [r7, #+10]
005C2ABC  2334     		mov r3, #0x34
005C2ABE  72FB     		strb r3, [r7, #+11]
005C2AC0  2330     		mov r3, #0x30
005C2AC2  733B     		strb r3, [r7, #+12]
005C2AC4  232F     		mov r3, #0x2F
005C2AC6  737B     		strb r3, [r7, #+13]
005C2AC8  2353     		mov r3, #0x53
005C2ACA  73BB     		strb r3, [r7, #+14]
005C2ACC  2354     		mov r3, #0x54
005C2ACE  73FB     		strb r3, [r7, #+15]
005C2AD0  2341     		mov r3, #0x41
005C2AD2  743B     		strb r3, [r7, #+16]
005C2AD4  2354     		mov r3, #0x54
005C2AD6  747B     		strb r3, [r7, #+17]
005C2AD8  2345     		mov r3, #0x45
005C2ADA  74BB     		strb r3, [r7, #+18]
005C2ADC  2353     		mov r3, #0x53
005C2ADE  74FB     		strb r3, [r7, #+19]
005C2AE0  232F     		mov r3, #0x2F
005C2AE2  753B     		strb r3, [r7, #+20]

Var init: V::MqttProgram.PrefixTopicSubInSetupMode = '/.M'
005C2AE4  F8DF 715C		ldr r7, [pc, #+348] ; 0x20416214
005C2AE8  232F     		mov r3, #0x2F
005C2AEA  703B     		strb r3, [r7, #+0]
005C2AEC  232E     		mov r3, #0x2E
005C2AEE  707B     		strb r3, [r7, #+1]
005C2AF0  234D     		mov r3, #0x4D
005C2AF2  70BB     		strb r3, [r7, #+2]

Var init: V::MqttProgram.SuffixTopicSubInSetupMode = '_Hmi.Sys.SetupMode'
005C2AF4  F8DF 7150		ldr r7, [pc, #+336] ; 0x20416218
005C2AF8  235F     		mov r3, #0x5F
005C2AFA  703B     		strb r3, [r7, #+0]
005C2AFC  2348     		mov r3, #0x48
005C2AFE  707B     		strb r3, [r7, #+1]
005C2B00  236D     		mov r3, #0x6D
005C2B02  70BB     		strb r3, [r7, #+2]
005C2B04  2369     		mov r3, #0x69
005C2B06  70FB     		strb r3, [r7, #+3]
005C2B08  232E     		mov r3, #0x2E
005C2B0A  713B     		strb r3, [r7, #+4]
005C2B0C  2353     		mov r3, #0x53
005C2B0E  717B     		strb r3, [r7, #+5]
005C2B10  2379     		mov r3, #0x79
005C2B12  71BB     		strb r3, [r7, #+6]
005C2B14  2373     		mov r3, #0x73
005C2B16  71FB     		strb r3, [r7, #+7]
005C2B18  232E     		mov r3, #0x2E
005C2B1A  723B     		strb r3, [r7, #+8]
005C2B1C  2353     		mov r3, #0x53
005C2B1E  727B     		strb r3, [r7, #+9]
005C2B20  2365     		mov r3, #0x65
005C2B22  72BB     		strb r3, [r7, #+10]
005C2B24  2374     		mov r3, #0x74
005C2B26  72FB     		strb r3, [r7, #+11]
005C2B28  2375     		mov r3, #0x75
005C2B2A  733B     		strb r3, [r7, #+12]
005C2B2C  2370     		mov r3, #0x70
005C2B2E  737B     		strb r3, [r7, #+13]
005C2B30  234D     		mov r3, #0x4D
005C2B32  73BB     		strb r3, [r7, #+14]
005C2B34  236F     		mov r3, #0x6F
005C2B36  73FB     		strb r3, [r7, #+15]
005C2B38  2364     		mov r3, #0x64
005C2B3A  743B     		strb r3, [r7, #+16]
005C2B3C  2365     		mov r3, #0x65
005C2B3E  747B     		strb r3, [r7, #+17]

Var init: V::MqttProgram.SuffixTopicSubInLockMode = '_Hmi.Sys.Lock'
005C2B40  F8DF 7108		ldr r7, [pc, #+264] ; 0x2041622B
005C2B44  235F     		mov r3, #0x5F
005C2B46  703B     		strb r3, [r7, #+0]
005C2B48  2348     		mov r3, #0x48
005C2B4A  707B     		strb r3, [r7, #+1]
005C2B4C  236D     		mov r3, #0x6D
005C2B4E  70BB     		strb r3, [r7, #+2]
005C2B50  2369     		mov r3, #0x69
005C2B52  70FB     		strb r3, [r7, #+3]
005C2B54  232E     		mov r3, #0x2E
005C2B56  713B     		strb r3, [r7, #+4]
005C2B58  2353     		mov r3, #0x53
005C2B5A  717B     		strb r3, [r7, #+5]
005C2B5C  2379     		mov r3, #0x79
005C2B5E  71BB     		strb r3, [r7, #+6]
005C2B60  2373     		mov r3, #0x73
005C2B62  71FB     		strb r3, [r7, #+7]
005C2B64  232E     		mov r3, #0x2E
005C2B66  723B     		strb r3, [r7, #+8]
005C2B68  234C     		mov r3, #0x4C
005C2B6A  727B     		strb r3, [r7, #+9]
005C2B6C  236F     		mov r3, #0x6F
005C2B6E  72BB     		strb r3, [r7, #+10]
005C2B70  2363     		mov r3, #0x63
005C2B72  72FB     		strb r3, [r7, #+11]
005C2B74  236B     		mov r3, #0x6B
005C2B76  733B     		strb r3, [r7, #+12]

Var init: V::MqttProgram.TopicPubOut_2001 = 'NTSM2176/MF40/RTS2PLC/2001'
005C2B78  F8DF 70D4		ldr r7, [pc, #+212] ; 0x2041623E
005C2B7C  234E     		mov r3, #0x4E
005C2B7E  703B     		strb r3, [r7, #+0]
005C2B80  2354     		mov r3, #0x54
005C2B82  707B     		strb r3, [r7, #+1]
005C2B84  2353     		mov r3, #0x53
005C2B86  70BB     		strb r3, [r7, #+2]
005C2B88  234D     		mov r3, #0x4D
005C2B8A  70FB     		strb r3, [r7, #+3]
005C2B8C  2332     		mov r3, #0x32
005C2B8E  713B     		strb r3, [r7, #+4]
005C2B90  2331     		mov r3, #0x31
005C2B92  717B     		strb r3, [r7, #+5]
005C2B94  2337     		mov r3, #0x37
005C2B96  71BB     		strb r3, [r7, #+6]
005C2B98  2336     		mov r3, #0x36
005C2B9A  71FB     		strb r3, [r7, #+7]
005C2B9C  232F     		mov r3, #0x2F
005C2B9E  723B     		strb r3, [r7, #+8]
005C2BA0  234D     		mov r3, #0x4D
005C2BA2  727B     		strb r3, [r7, #+9]
005C2BA4  2346     		mov r3, #0x46
005C2BA6  72BB     		strb r3, [r7, #+10]
005C2BA8  2334     		mov r3, #0x34
005C2BAA  72FB     		strb r3, [r7, #+11]
005C2BAC  2330     		mov r3, #0x30
005C2BAE  733B     		strb r3, [r7, #+12]
005C2BB0  232F     		mov r3, #0x2F
005C2BB2  737B     		strb r3, [r7, #+13]
005C2BB4  2352     		mov r3, #0x52
005C2BB6  73BB     		strb r3, [r7, #+14]
005C2BB8  2354     		mov r3, #0x54
005C2BBA  73FB     		strb r3, [r7, #+15]
005C2BBC  2353     		mov r3, #0x53
005C2BBE  743B     		strb r3, [r7, #+16]
005C2BC0  2332     		mov r3, #0x32
005C2BC2  747B     		strb r3, [r7, #+17]
005C2BC4  2350     		mov r3, #0x50
005C2BC6  74BB     		strb r3, [r7, #+18]
005C2BC8  234C     		mov r3, #0x4C
005C2BCA  74FB     		strb r3, [r7, #+19]
005C2BCC  2343     		mov r3, #0x43
005C2BCE  753B     		strb r3, [r7, #+20]
005C2BD0  232F     		mov r3, #0x2F
005C2BD2  757B     		strb r3, [r7, #+21]
005C2BD4  2332     		mov r3, #0x32
005C2BD6  75BB     		strb r3, [r7, #+22]
005C2BD8  2330     		mov r3, #0x30
005C2BDA  75FB     		strb r3, [r7, #+23]
005C2BDC  2330     		mov r3, #0x30
005C2BDE  763B     		strb r3, [r7, #+24]
005C2BE0  2331     		mov r3, #0x31
005C2BE2  767B     		strb r3, [r7, #+25]

Var init: V::MqttProgram.JEncode.VType = 10
005C2BE4  F8DF 0014		ldr r0, [pc, #+20] ; 0xA
005C2BE8  F8DF 7068		ldr r7, [pc, #+104] ; 0x2041647C
005C2BEC  6038     		str r0, [r7]

005C2BEE  E8BD 0FF0		ldmia sp!, { r4, r5, r6, r7, r8, r9, r10, r11 }
005C2BF2  F8DD E000		ldr lr, [sp]
005C2BF6  B002     		add sp, sp, #8

005C2BF8  4770     		bx lr

005C2BFC  0000000A		; 0x0000000A
005C2C00  00000100		; 0x00000100
005C2C04  00000800		; 0x00000800
005C2C08  20415D4C		; 0x20415D4C
005C2C0C  20415D60		; 0x20415D60
005C2C10  2041603E		; 0x2041603E
005C2C14  20416104		; 0x20416104
005C2C18  20416124		; 0x20416124
005C2C1C  20416128		; 0x20416128
005C2C20  2041612C		; 0x2041612C
005C2C24  20416134		; 0x20416134
005C2C28  20416140		; 0x20416140
005C2C2C  20416150		; 0x20416150
005C2C30  20416160		; 0x20416160
005C2C34  20416174		; 0x20416174
005C2C38  20416181		; 0x20416181
005C2C3C  204161E0		; 0x204161E0
005C2C40  204161F8		; 0x204161F8
005C2C44  20416214		; 0x20416214
005C2C48  20416218		; 0x20416218
005C2C4C  2041622B		; 0x2041622B
005C2C50  2041623E		; 0x2041623E
005C2C54  2041647C		; 0x2041647C

**************************************************
	List program: $$ElsistInit
**************************************************

PROGRAM $$ElsistInit

        VAR
dummy : BOOL;
	END_VAR

END_PROGRAM

005C2C70  B082     		sub sp, sp, #8
005C2C72  F8CD E000		str lr, [sp]
005C2C76  E92D 0FF0		stmdb sp!, { r4, r5, r6, r7, r8, r9, r10, r11 }

#0		{SRC:$$ElsistInit}
#1		(*$WAITSWITCH$*)
#2		
#3			(* dummy:=XUnifiedLibInit(TRUE); *)
#4			LDP0		TRUE	{LNXT:2|2|-1}
(-) UDINT
#5			XUnifiedLibInit	{LNXT:2|2|-1}
(*) UDINT
005C2C7A  B082     		sub sp, sp, #8
005C2C7C  2701     		mov r7, #1 ; 1
005C2C7E  F8CD 7000		str r7, [sp]
005C2C82  F8DF 401C		ldr r4, [pc, #+28] ; 0x5BB068
005C2C86  F044 0401		orr r4, r4, #1
005C2C8A  47A0     		blx r4
005C2C8C  B002     		add sp, sp, #8

#6			ST		dummy	{LNXT:2|2|-1}
(*) BOOL
005C2C8E  F8DF 7014		ldr r7, [pc, #+20] ; 0x204159F0
005C2C92  7038     		strb r0, [r7]

005C2C94  E8BD 0FF0		ldmia sp!, { r4, r5, r6, r7, r8, r9, r10, r11 }
005C2C98  F8DD E000		ldr lr, [sp]
005C2C9C  B002     		add sp, sp, #8

005C2C9E  4770     		bx lr

005C2CA0  005BB068		; 0x005BB068
005C2CA4  204159F0		; 0x204159F0

END_PROGRAM


**************************************************
	Target variable image generation
**************************************************


*** INPUT:
005C2CA8  4770     		bx lr


*** OUTPUT:
005C2CAA  4770     		bx lr



**************************************************
	Task Boot init code
**************************************************

005C2CAC  B082     		sub sp, sp, #8
005C2CAE  F8CD E000		str lr, [sp]
005C2CB2  E92D 0FF0		stmdb sp!, { r4, r5, r6, r7, r8, r9, r10, r11 }

005C2CB6  E8BD 0FF0		ldmia sp!, { r4, r5, r6, r7, r8, r9, r10, r11 }
005C2CBA  F8DD E000		ldr lr, [sp]
005C2CBE  B002     		add sp, sp, #8

005C2CC0  4770     		bx lr

**************************************************
	List program: MasterProgram
**************************************************

PROGRAM MasterProgram

        VAR
mac_word : WORD;
IBit : ARRAY[0..15] OF BOOL;	{ DE:"Input bits" }
OByte : ARRAY[0..1] OF BYTE;	{ DE:"Output byte" }
BCmp : BitToByte;	{ DE:"Bit compress" }
YCom : ByteToWord;	{ DE:"Byte compress" }
diff : ULINT;
	END_VAR

END_PROGRAM

005C2CD0  B082     		sub sp, sp, #8
005C2CD2  F8CD E000		str lr, [sp]
005C2CD6  E92D 0FF0		stmdb sp!, { r4, r5, r6, r7, r8, r9, r10, r11 }

#0		{SRC:MasterProgram}
#1		(*$WAITSWITCH$*)
#2		
#3		
#4			(* IF SysFirstLoop *)
#5			LD		SysFirstLoop	{LNXT:10|-1|-1}
(*) UNDEF
005C2CDA  F8DF 77B4		ldr r7, [pc, #+1972] ; 0x20419A81
005C2CDE  7838     		ldrb r0, [r7]

#6			JMPCN	$label0	{LNXT:10|12|46}
(-) BOOL
005C2CE0  2800     		cmp r0, #0
005C2CE2  F000 80CE		beq #412 ; 0x005C2E82


#7		
#8			(* THEN *)
#9		
#10				(* FAR_Machine_2001.IN_FILTER_RUN_STATE_ON_mSec := 500; *)
#11				MOVE		500,FAR_Machine_2001.IN_FILTER_RUN_STATE_ON_mSec	{LNXT:12|13|-1}
(*) BOOL
005C2CE6  F44F 70FA		mov r0, #500 ; 500
005C2CEA  F8DF 76B0		ldr r7, [pc, #+1712] ; 0x20415AC6
005C2CEE  8038     		strh r0, [r7]

#12		
#13				(* FAR_Machine_2001.IN_FILTER_RUN_STATE_OFF_mSec := 500; *)
#14				MOVE		500,FAR_Machine_2001.IN_FILTER_RUN_STATE_OFF_mSec	{LNXT:13|14|-1}
(*) WORD
005C2CF0  F44F 70FA		mov r0, #500 ; 500
005C2CF4  F8DF 76A8		ldr r7, [pc, #+1704] ; 0x20415AC8
005C2CF8  8038     		strh r0, [r7]

#15		
#16				(* FAR_Machine_2001.IN_FILTER_CNT_A_ON_mSec     := 10; *)
#17				MOVE		10,FAR_Machine_2001.IN_FILTER_CNT_A_ON_mSec	{LNXT:14|15|-1}
(*) WORD
005C2CFA  200A     		mov r0, #10 ; 10
005C2CFC  F8DF 76A4		ldr r7, [pc, #+1700] ; 0x20415ACA
005C2D00  8038     		strh r0, [r7]

#18		
#19				(* FAR_Machine_2001.IN_FILTER_CNT_A_OFF_mSec     := 10; *)
#20				MOVE		10,FAR_Machine_2001.IN_FILTER_CNT_A_OFF_mSec	{LNXT:15|16|-1}
(*) WORD
005C2D02  200A     		mov r0, #10 ; 10
005C2D04  F8DF 76A0		ldr r7, [pc, #+1696] ; 0x20415ACC
005C2D08  8038     		strh r0, [r7]

#21		
#22				(* FAR_Machine_2001.IN_FILTER_CNT_B_ON_mSec     := 10; *)
#23				MOVE		10,FAR_Machine_2001.IN_FILTER_CNT_B_ON_mSec	{LNXT:16|17|-1}
(*) WORD
005C2D0A  200A     		mov r0, #10 ; 10
005C2D0C  F8DF 769C		ldr r7, [pc, #+1692] ; 0x20415ACE
005C2D10  8038     		strh r0, [r7]

#24		
#25				(* FAR_Machine_2001.IN_FILTER_CNT_B_OFF_mSec     := 10; *)
#26				MOVE		10,FAR_Machine_2001.IN_FILTER_CNT_B_OFF_mSec	{LNXT:17|18|-1}
(*) WORD
005C2D12  200A     		mov r0, #10 ; 10
005C2D14  F8DF 7698		ldr r7, [pc, #+1688] ; 0x20415AD0
005C2D18  8038     		strh r0, [r7]

#27		
#28				(* FAR_Machine_2001.IN_CNT_A_STEP_UP := 1; *)
#29				MOVE		1,FAR_Machine_2001.IN_CNT_A_STEP_UP	{LNXT:18|19|-1}
(*) WORD
005C2D1A  2001     		mov r0, #1 ; 1
005C2D1C  F8DF 4620		ldr r4, [pc, #+1568] ; 0x4B946D
005C2D20  F044 0401		orr r4, r4, #1
005C2D24  47A0     		blx r4
005C2D26  F8DF 7698		ldr r7, [pc, #+1688] ; 0x20415ADC
005C2D2A  6038     		str r0, [r7]

#30		
#31				(* FAR_Machine_2001.IN_CNT_B_STEP_UP := 1; *)
#32				MOVE		1,FAR_Machine_2001.IN_CNT_B_STEP_UP	{LNXT:19|21|-1}
(*) REAL
005C2D2C  2001     		mov r0, #1 ; 1
005C2D2E  F8DF 4610		ldr r4, [pc, #+1552] ; 0x4B946D
005C2D32  F044 0401		orr r4, r4, #1
005C2D36  47A0     		blx r4
005C2D38  F8DF 7688		ldr r7, [pc, #+1672] ; 0x20415AE0
005C2D3C  6038     		str r0, [r7]

#33		
#34				(* FAR_Machine_2001.IN_WARNING_DELAY_Sec     := 180; *)
#35				MOVE		180,FAR_Machine_2001.IN_WARNING_DELAY_Sec	{LNXT:21|22|-1}
(*) REAL
005C2D3E  20B4     		mov r0, #180 ; 180
005C2D40  F8DF 7670		ldr r7, [pc, #+1648] ; 0x20415AD2
005C2D44  8038     		strh r0, [r7]

#36		
#37				(* bCntReset_2001 := FALSE; *)
#38				MOVE		FALSE,bCntReset_2001	{LNXT:22|23|-1}
(*) WORD
005C2D46  2000     		mov r0, #0 ; 0
005C2D48  F8DF 763C		ldr r7, [pc, #+1596] ; 0x204159F1
005C2D4C  7038     		strb r0, [r7]

#39		
#40				(* bCntPause_2001 := FALSE; *)
#41				MOVE		FALSE,bCntPause_2001	{LNXT:23|24|-1}
(*) BOOL
005C2D4E  2000     		mov r0, #0 ; 0
005C2D50  F8DF 763C		ldr r7, [pc, #+1596] ; 0x204159F3
005C2D54  7038     		strb r0, [r7]

#42		
#43				(* bPreSetCnt_2001:= TRUE; *)
#44				MOVE		TRUE,bPreSetCnt_2001	{LNXT:24|25|-1}
(*) BOOL
005C2D56  2001     		mov r0, #1 ; 1
005C2D58  F8DF 7630		ldr r7, [pc, #+1584] ; 0x204159F2
005C2D5C  7038     		strb r0, [r7]

#45		
#46				(* bSetup_2001 := FALSE; *)
#47				MOVE		FALSE,bSetup_2001	{LNXT:25|27|-1}
(*) BOOL
005C2D5E  2000     		mov r0, #0 ; 0
005C2D60  F8DF 7674		ldr r7, [pc, #+1652] ; 0x20415AF4
005C2D64  7038     		strb r0, [r7]

#48		
#49				(* sPartProgram_2001 := 'INITSEQUENCE'; *)
#50				MOVE		'INITSEQUENCE',sPartProgram_2001	{LNXT:27|28|-1}
(*) BOOL
005C2D66  F8DF 75F0		ldr r7, [pc, #+1520] ; 0x5BA42C
005C2D6A  4638     		mov r0, r7
005C2D6C  B082     		sub sp, sp, #8
005C2D6E  F8CD 0000		str r0, [sp]
005C2D72  E92D 0006		stmdb sp!, { r1, r2 }
005C2D76  2221     		mov r2, #33 ; 33
005C2D78  F8DF 1660		ldr r1, [pc, #+1632] ; 0x20415AF5
005C2D7C  F8DF 45D0		ldr r4, [pc, #+1488] ; 0x4BA059
005C2D80  F044 0401		orr r4, r4, #1
005C2D84  47A0     		blx r4
005C2D86  E8BD 0006		ldmia sp!, { r1, r2 }
005C2D8A  F8DD 0000		ldr r0, [sp]
005C2D8E  B002     		add sp, sp, #8

#51		
#52				(* sProductionRequest_2001 := ''; *)
#53				MOVE		'',sProductionRequest_2001	{LNXT:28|30|-1}
(*) STRING
005C2D90  F8DF 75C8		ldr r7, [pc, #+1480] ; 0x5BA43A
005C2D94  4638     		mov r0, r7
005C2D96  B082     		sub sp, sp, #8
005C2D98  F8CD 0000		str r0, [sp]
005C2D9C  E92D 0006		stmdb sp!, { r1, r2 }
005C2DA0  2221     		mov r2, #33 ; 33
005C2DA2  F8DF 163C		ldr r1, [pc, #+1596] ; 0x20415B16
005C2DA6  F8DF 45A8		ldr r4, [pc, #+1448] ; 0x4BA059
005C2DAA  F044 0401		orr r4, r4, #1
005C2DAE  47A0     		blx r4
005C2DB0  E8BD 0006		ldmia sp!, { r1, r2 }
005C2DB4  F8DD 0000		ldr r0, [sp]
005C2DB8  B002     		add sp, sp, #8

#54		
#55				(* sSegmentRequirement_2001 := ''; *)
#56				MOVE		'',sSegmentRequirement_2001	{LNXT:30|31|-1}
(*) STRING
005C2DBA  F8DF 75A0		ldr r7, [pc, #+1440] ; 0x5BA43A
005C2DBE  4638     		mov r0, r7
005C2DC0  B082     		sub sp, sp, #8
005C2DC2  F8CD 0000		str r0, [sp]
005C2DC6  E92D 0006		stmdb sp!, { r1, r2 }
005C2DCA  2221     		mov r2, #33 ; 33
005C2DCC  F8DF 1614		ldr r1, [pc, #+1556] ; 0x20415B37
005C2DD0  F8DF 457C		ldr r4, [pc, #+1404] ; 0x4BA059
005C2DD4  F044 0401		orr r4, r4, #1
005C2DD8  47A0     		blx r4
005C2DDA  E8BD 0006		ldmia sp!, { r1, r2 }
005C2DDE  F8DD 0000		ldr r0, [sp]
005C2DE2  B002     		add sp, sp, #8

#57		
#58				(* sMaterialDefinition_2001 := ''; *)
#59				MOVE		'',sMaterialDefinition_2001	{LNXT:31|32|-1}
(*) STRING
005C2DE4  F8DF 7574		ldr r7, [pc, #+1396] ; 0x5BA43A
005C2DE8  4638     		mov r0, r7
005C2DEA  B082     		sub sp, sp, #8
005C2DEC  F8CD 0000		str r0, [sp]
005C2DF0  E92D 0006		stmdb sp!, { r1, r2 }
005C2DF4  2221     		mov r2, #33 ; 33
005C2DF6  F8DF 15F0		ldr r1, [pc, #+1520] ; 0x20415B58
005C2DFA  F8DF 4554		ldr r4, [pc, #+1364] ; 0x4BA059
005C2DFE  F044 0401		orr r4, r4, #1
005C2E02  47A0     		blx r4
005C2E04  E8BD 0006		ldmia sp!, { r1, r2 }
005C2E08  F8DD 0000		ldr r0, [sp]
005C2E0C  B002     		add sp, sp, #8

#60		
#61				(* SampleTime_2001 := (SysDateGetNs() / 1000000); *)
#62				SysDateGetNs	{LNXT:32|33|-1}
(*) STRING
005C2E0E  F8DF 4528		ldr r4, [pc, #+1320] ; 0x4A2105
005C2E12  F044 0401		orr r4, r4, #1
005C2E16  47A0     		blx r4

#63				DIV		1000000	{LNXT:32|33|-1}
(*) ULINT
005C2E18  F8DF 7518		ldr r7, [pc, #+1304] ; 0xF4240
005C2E1C  463F     		mov r7, r7
005C2E1E  46B9     		mov r9, r7
005C2E20  F04F 0A00		mov r10, #0
005C2E24  464A     		mov r2, r9
005C2E26  4653     		mov r3, r10
005C2E28  F8DF 4510		ldr r4, [pc, #+1296] ; 0x4B933D
005C2E2C  F044 0401		orr r4, r4, #1
005C2E30  47A0     		blx r4

#64				ST		SampleTime_2001	{LNXT:32|33|-1}
(*) ULINT
005C2E32  F8DF 75C4		ldr r7, [pc, #+1476] ; 0x20415B7C
005C2E36  E92D 0180		stmdb sp!, { r7, r8 }
005C2E3A  463F     		mov r7, r7
005C2E3C  C703     		stm _TMP!, {_PAR0, _PAR1}
005C2E3E  E8BD 0180		ldmia sp!, { r7, r8 }

#65		
#66				(* SampleTimeTrBool_2001 := FALSE; *)
#67				MOVE		FALSE,SampleTimeTrBool_2001	{LNXT:33|34|-1}
(*) ULINT
005C2E42  2000     		mov r0, #0 ; 0
005C2E44  F8DF 75A4		ldr r7, [pc, #+1444] ; 0x20415B79
005C2E48  7038     		strb r0, [r7]

#68		
#69				(* dMacRatePpm_2001 := 0.0; *)
#70				MOVE		0.0,dMacRatePpm_2001	{LNXT:34|35|-1}
(*) BOOL
005C2E4A  F8DF 7514		ldr r7, [pc, #+1300] ; 0x5BA43C
005C2E4E  6838     		ldr r0, [r7]
005C2E50  F8DF 75A8		ldr r7, [pc, #+1448] ; 0x20415B84
005C2E54  6038     		str r0, [r7]

#71		
#72				(* OLD_COUNTER_2001 := dCntRT_2001; *)
#73				MOVE		dCntRT_2001,OLD_COUNTER_2001	{LNXT:35|36|-1}
(*) REAL
005C2E56  F8DF 7524		ldr r7, [pc, #+1316] ; 0x204155F8
005C2E5A  6838     		ldr r0, [r7]
005C2E5C  F8DF 75A0		ldr r7, [pc, #+1440] ; 0x20415B88
005C2E60  6038     		str r0, [r7]

#74		
#75				(* bLastMsg_2001 := FALSE; *)
#76				MOVE		FALSE,bLastMsg_2001	{LNXT:36|39|-1}
(*) REAL
005C2E62  2000     		mov r0, #0 ; 0
005C2E64  F8DF 758C		ldr r7, [pc, #+1420] ; 0x20415B7B
005C2E68  7038     		strb r0, [r7]

#77		
#78				(* IN_PUB_TRIGGER:=TRUE; *)
#79				MOVE		TRUE,IN_PUB_TRIGGER	{LNXT:39|40|-1}
(*) BOOL
005C2E6A  2001     		mov r0, #1 ; 1
005C2E6C  F8DF 7580		ldr r7, [pc, #+1408] ; 0x20415B7A
005C2E70  7038     		strb r0, [r7]

#80		
#81				(* TopicPub_Broadcast := TRUE; *)
#82				MOVE		TRUE,TopicPub_Broadcast	{LNXT:40|41|-1}
(*) BOOL
005C2E72  2001     		mov r0, #1 ; 1
005C2E74  F8DF 758C		ldr r7, [pc, #+1420] ; 0x20415B8C
005C2E78  7038     		strb r0, [r7]

#83		
#84				(* bStartEnable := FALSE; *)
#85				MOVE		FALSE,bStartEnable	{LNXT:41|46|-1}
(*) BOOL
005C2E7A  2000     		mov r0, #0 ; 0
005C2E7C  F8DF 7588		ldr r7, [pc, #+1416] ; 0x20415B8D
005C2E80  7038     		strb r0, [r7]

#86		
#87		$label0:
#88			(* END_IF *)
#89		
#90			(* tStartDelay5sec *)
#91			MOVE		5000,tStartDelay5sec.PT	{LNXT:46|-1|-1}
(*) BOOL
005C2E82  F8DF 74AC		ldr r7, [pc, #+1196] ; 0x1388
005C2E86  4638     		mov r0, r7
005C2E88  F8DF 7590		ldr r7, [pc, #+1424] ; 0x20415B98
005C2E8C  6038     		str r0, [r7]

#92			CAL		tStartDelay5sec	{LNXT:46|47|-1}
(*) UDINT
005C2E8E  E92D 0021		stmdb sp!, { r0, r5 }
005C2E92  F8DF 5580		ldr r5, [pc, #+1408] ; 0x20415B90
005C2E96  F8DF 44DC		ldr r4, [pc, #+1244] ; 0x5BA848
005C2E9A  F044 0401		orr r4, r4, #1
005C2E9E  47A0     		blx r4
005C2EA0  E8BD 0021		ldmia sp!, { r0, r5 }

#93		
#94			(* tStartDelay5sec.IN:=(NOT bStartEnable); *)
#95			LD		bStartEnable	{LNXT:47|48|-1}
(*) UNDEF
005C2EA4  F8DF 7560		ldr r7, [pc, #+1376] ; 0x20415B8D
005C2EA8  7838     		ldrb r0, [r7]

#96			NOT	{LNXT:47|48|-1}
(*) BOOL
005C2EAA  2800     		cmp r0, #0
005C2EAC  BF08 2001		eqmov r0, #1
005C2EB0  BF18 2000		nemov r0, #0

#97			ST		tStartDelay5sec.IN	{LNXT:47|48|-1}
(*) BOOL
005C2EB4  F8DF 7560		ldr r7, [pc, #+1376] ; 0x20415B94
005C2EB8  7038     		strb r0, [r7]

#98		
#99		
#100			(* IF tStartDelay5sec.Q *)
#101			LD		tStartDelay5sec.Q	{LNXT:48|-1|-1}
(*) UNDEF
005C2EBA  F8DF 7564		ldr r7, [pc, #+1380] ; 0x20415B9C
005C2EBE  7838     		ldrb r0, [r7]

#102			JMPCN	$label1	{LNXT:48|48|65}
(-) BOOL
005C2EC0  2800     		cmp r0, #0
005C2EC2  D004     		beq #8 ; 0x005C2ECE


#103		
#104			(* THEN *)
#105		
#106				(* bStartEnable := TRUE; *)
#107				MOVE		TRUE,bStartEnable	{LNXT:48|65|-1}
(*) BOOL
005C2EC6  2001     		mov r0, #1 ; 1
005C2EC8  F8DF 753C		ldr r7, [pc, #+1340] ; 0x20415B8D
005C2ECC  7038     		strb r0, [r7]

#108		
#109		$label1:
#110			(* END_IF *)
#111		
#112			(* BCmp.b0:=TRUE; *)
#113			MOVE		TRUE,BCmp.b0	{LNXT:65|66|-1}
(*) BOOL
005C2ECE  2001     		mov r0, #1 ; 1
005C2ED0  F8DF 7550		ldr r7, [pc, #+1360] ; 0x20415BA4
005C2ED4  7038     		strb r0, [r7]

#114		
#115			(* BCmp.b1:=(bCntPause_2001 OR bSetup_2001); *)
#116			LD		bCntPause_2001	{LNXT:66|67|-1}
(*) UNDEF
005C2ED6  F8DF 74B8		ldr r7, [pc, #+1208] ; 0x204159F3
005C2EDA  7838     		ldrb r0, [r7]

#117			OR		bSetup_2001	{LNXT:66|67|-1}
(*) BOOL
005C2EDC  F8DF 74F8		ldr r7, [pc, #+1272] ; 0x20415AF4
005C2EE0  783F     		ldrb r7, [r7]
005C2EE2  4338     		orr r0, r0, r7

#118			ST		BCmp.b1	{LNXT:66|67|-1}
(*) BOOL
005C2EE4  F8DF 7540		ldr r7, [pc, #+1344] ; 0x20415BA5
005C2EE8  7038     		strb r0, [r7]

#119		
#120			(* BCmp.b2:=bCntReset_2001; *)
#121			MOVE		bCntReset_2001,BCmp.b2	{LNXT:67|68|-1}
(*) BOOL
005C2EEA  F8DF 749C		ldr r7, [pc, #+1180] ; 0x204159F1
005C2EEE  7838     		ldrb r0, [r7]
005C2EF0  F8DF 7538		ldr r7, [pc, #+1336] ; 0x20415BA6
005C2EF4  7038     		strb r0, [r7]

#122		
#123			(* BCmp.b3:=bPreSetCnt_2001; *)
#124			MOVE		bPreSetCnt_2001,BCmp.b3	{LNXT:68|69|-1}
(*) BOOL
005C2EF6  F8DF 7494		ldr r7, [pc, #+1172] ; 0x204159F2
005C2EFA  7838     		ldrb r0, [r7]
005C2EFC  F8DF 7530		ldr r7, [pc, #+1328] ; 0x20415BA7
005C2F00  7038     		strb r0, [r7]

#125		
#126			(* BCmp.b4:=FALSE; *)
#127			MOVE		FALSE,BCmp.b4	{LNXT:69|70|-1}
(*) BOOL
005C2F02  2000     		mov r0, #0 ; 0
005C2F04  F8DF 752C		ldr r7, [pc, #+1324] ; 0x20415BA8
005C2F08  7038     		strb r0, [r7]

#128		
#129			(* BCmp.b5:=FALSE; *)
#130			MOVE		FALSE,BCmp.b5	{LNXT:70|71|-1}
(*) BOOL
005C2F0A  2000     		mov r0, #0 ; 0
005C2F0C  F8DF 7528		ldr r7, [pc, #+1320] ; 0x20415BA9
005C2F10  7038     		strb r0, [r7]

#131		
#132			(* BCmp.b6:=FALSE; *)
#133			MOVE		FALSE,BCmp.b6	{LNXT:71|72|-1}
(*) BOOL
005C2F12  2000     		mov r0, #0 ; 0
005C2F14  F8DF 7524		ldr r7, [pc, #+1316] ; 0x20415BAA
005C2F18  7038     		strb r0, [r7]

#134		
#135			(* BCmp.b7:=FALSE; *)
#136			MOVE		FALSE,BCmp.b7	{LNXT:72|73|-1}
(*) BOOL
005C2F1A  2000     		mov r0, #0 ; 0
005C2F1C  F8DF 7520		ldr r7, [pc, #+1312] ; 0x20415BAB
005C2F20  7038     		strb r0, [r7]

#137		
#138			(* BCmp *)
#139			CAL		BCmp	{LNXT:73|74|-1}
(*) BOOL
005C2F22  E92D 0021		stmdb sp!, { r0, r5 }
005C2F26  F8DF 54FC		ldr r5, [pc, #+1276] ; 0x20415BA4
005C2F2A  F8DF 443C		ldr r4, [pc, #+1084] ; 0x5BA596
005C2F2E  F044 0401		orr r4, r4, #1
005C2F32  47A0     		blx r4
005C2F34  E8BD 0021		ldmia sp!, { r0, r5 }

#140		
#141			(* OByte[0]:=BCmp.Out; *)
#142			MOVE		BCmp.Out,OByte[0]	{LNXT:74|77|-1}
(*) BOOL
005C2F38  F8DF 7508		ldr r7, [pc, #+1288] ; 0x20415BAC
005C2F3C  7838     		ldrb r0, [r7]
005C2F3E  F8DF 74CC		ldr r7, [pc, #+1228] ; 0x20415B8E
005C2F42  7038     		strb r0, [r7]

#143		
#144			(* BCmp.b0:=(NOT I_STATO_2001); *)
#145			LD		I_STATO_2001	{LNXT:77|78|-1}
(*) UNDEF
005C2F44  F8DF 7550		ldr r7, [pc, #+1360] ; 0x2041AFC1
005C2F48  7838     		ldrb r0, [r7]

#146			NOT	{LNXT:77|78|-1}
(*) BOOL
005C2F4A  2800     		cmp r0, #0
005C2F4C  BF08 2001		eqmov r0, #1
005C2F50  BF18 2000		nemov r0, #0

#147			ST		BCmp.b0	{LNXT:77|78|-1}
(*) BOOL
005C2F54  F8DF 74CC		ldr r7, [pc, #+1228] ; 0x20415BA4
005C2F58  7038     		strb r0, [r7]

#148		
#149			(* BCmp.b1:=I_CONTA_2001; *)
#150			MOVE		I_CONTA_2001,BCmp.b1	{LNXT:78|79|-1}
(*) BOOL
005C2F5A  F8DF 7538		ldr r7, [pc, #+1336] ; 0x2041AFC0
005C2F5E  7838     		ldrb r0, [r7]
005C2F60  F8DF 74C4		ldr r7, [pc, #+1220] ; 0x20415BA5
005C2F64  7038     		strb r0, [r7]

#151		
#152			(* BCmp.b2:=FALSE; *)
#153			MOVE		FALSE,BCmp.b2	{LNXT:79|80|-1}
(*) BOOL
005C2F66  2000     		mov r0, #0 ; 0
005C2F68  F8DF 74C0		ldr r7, [pc, #+1216] ; 0x20415BA6
005C2F6C  7038     		strb r0, [r7]

#154		
#155			(* BCmp.b3:=FALSE; *)
#156			MOVE		FALSE,BCmp.b3	{LNXT:80|81|-1}
(*) BOOL
005C2F6E  2000     		mov r0, #0 ; 0
005C2F70  F8DF 74BC		ldr r7, [pc, #+1212] ; 0x20415BA7
005C2F74  7038     		strb r0, [r7]

#157		
#158			(* BCmp.b4:=FALSE; *)
#159			MOVE		FALSE,BCmp.b4	{LNXT:81|82|-1}
(*) BOOL
005C2F76  2000     		mov r0, #0 ; 0
005C2F78  F8DF 74B8		ldr r7, [pc, #+1208] ; 0x20415BA8
005C2F7C  7038     		strb r0, [r7]

#160		
#161			(* BCmp.b5:=FALSE; *)
#162			MOVE		FALSE,BCmp.b5	{LNXT:82|83|-1}
(*) BOOL
005C2F7E  2000     		mov r0, #0 ; 0
005C2F80  F8DF 74B4		ldr r7, [pc, #+1204] ; 0x20415BA9
005C2F84  7038     		strb r0, [r7]

#163		
#164			(* BCmp.b6:=FALSE; *)
#165			MOVE		FALSE,BCmp.b6	{LNXT:83|84|-1}
(*) BOOL
005C2F86  2000     		mov r0, #0 ; 0
005C2F88  F8DF 74B0		ldr r7, [pc, #+1200] ; 0x20415BAA
005C2F8C  7038     		strb r0, [r7]

#166		
#167			(* BCmp.b7:=FALSE; *)
#168			MOVE		FALSE,BCmp.b7	{LNXT:84|85|-1}
(*) BOOL
005C2F8E  2000     		mov r0, #0 ; 0
005C2F90  F8DF 74AC		ldr r7, [pc, #+1196] ; 0x20415BAB
005C2F94  7038     		strb r0, [r7]

#169		
#170			(* BCmp *)
#171			CAL		BCmp	{LNXT:85|86|-1}
(*) BOOL
005C2F96  E92D 0021		stmdb sp!, { r0, r5 }
005C2F9A  F8DF 5488		ldr r5, [pc, #+1160] ; 0x20415BA4
005C2F9E  F8DF 43C8		ldr r4, [pc, #+968] ; 0x5BA596
005C2FA2  F044 0401		orr r4, r4, #1
005C2FA6  47A0     		blx r4
005C2FA8  E8BD 0021		ldmia sp!, { r0, r5 }

#172		
#173			(* OByte[1]:=BCmp.Out; *)
#174			MOVE		BCmp.Out,OByte[1]	{LNXT:86|88|-1}
(*) BOOL
005C2FAC  F8DF 7494		ldr r7, [pc, #+1172] ; 0x20415BAC
005C2FB0  7838     		ldrb r0, [r7]
005C2FB2  F8DF 745C		ldr r7, [pc, #+1116] ; 0x20415B8F
005C2FB6  7038     		strb r0, [r7]

#175		
#176			(* YCom *)
#177			MOVE		OByte[1],YCom.MSB	{LNXT:88|-1|-1}
(*) BYTE
005C2FB8  F8DF 7454		ldr r7, [pc, #+1108] ; 0x20415B8F
005C2FBC  7838     		ldrb r0, [r7]
005C2FBE  F8DF 7488		ldr r7, [pc, #+1160] ; 0x20415BB0
005C2FC2  7038     		strb r0, [r7]

#178			MOVE		OByte[0],YCom.LSB	{LNXT:88|-1|-1}
(*) BYTE
005C2FC4  F8DF 7444		ldr r7, [pc, #+1092] ; 0x20415B8E
005C2FC8  7838     		ldrb r0, [r7]
005C2FCA  F8DF 7480		ldr r7, [pc, #+1152] ; 0x20415BB1
005C2FCE  7038     		strb r0, [r7]

#179			CAL		YCom	{LNXT:88|89|-1}
(*) BYTE
005C2FD0  E92D 0021		stmdb sp!, { r0, r5 }
005C2FD4  F8DF 5470		ldr r5, [pc, #+1136] ; 0x20415BB0
005C2FD8  F8DF 4390		ldr r4, [pc, #+912] ; 0x5BA784
005C2FDC  F044 0401		orr r4, r4, #1
005C2FE0  47A0     		blx r4
005C2FE2  E8BD 0021		ldmia sp!, { r0, r5 }

#180		
#181			(* mac_word:=YCom.Out; *)
#182			MOVE		YCom.Out,mac_word	{LNXT:89|91|-1}
(*) BYTE
005C2FE6  F8DF 7468		ldr r7, [pc, #+1128] ; 0x20415BB2
005C2FEA  8838     		ldrh r0, [r7]
005C2FEC  F8DF 7464		ldr r7, [pc, #+1124] ; 0x20415BB4
005C2FF0  8038     		strh r0, [r7]

#183		
#184			(* FAR_Machine_2001.IN_MACHINE_DT_Word       := mac_word; *)
#185			MOVE		mac_word,FAR_Machine_2001.IN_MACHINE_DT_Word	{LNXT:91|92|-1}
(*) WORD
005C2FF2  F8DF 7460		ldr r7, [pc, #+1120] ; 0x20415BB4
005C2FF6  8838     		ldrh r0, [r7]
005C2FF8  F8DF 739C		ldr r7, [pc, #+924] ; 0x20415AC4
005C2FFC  8038     		strh r0, [r7]

#186		
#187			(* FAR_Machine_2001.IN_PRESET_CNT_A_dUInt    := dCntRT_2001; *)
#188			MOVE		dCntRT_2001,FAR_Machine_2001.IN_PRESET_CNT_A_dUInt	{LNXT:92|93|-1}
(*) WORD
005C2FFE  F8DF 737C		ldr r7, [pc, #+892] ; 0x204155F8
005C3002  6838     		ldr r0, [r7]
005C3004  F8DF 73B0		ldr r7, [pc, #+944] ; 0x20415AD4
005C3008  6038     		str r0, [r7]

#189		
#190			(* FAR_Machine_2001.IN_PRESET_CNT_B_dUInt    := dCntSC_2001; *)
#191			MOVE		dCntSC_2001,FAR_Machine_2001.IN_PRESET_CNT_B_dUInt	{LNXT:93|94|-1}
(*) REAL
005C300A  F8DF 7374		ldr r7, [pc, #+884] ; 0x204155FC
005C300E  6838     		ldr r0, [r7]
005C3010  F8DF 73A8		ldr r7, [pc, #+936] ; 0x20415AD8
005C3014  6038     		str r0, [r7]

#192		
#193			(* FAR_Machine_2001 *)
#194			CAL		FAR_Machine_2001	{LNXT:94|96|-1}
(*) REAL
005C3016  E92D 0021		stmdb sp!, { r0, r5 }
005C301A  F8DF 5378		ldr r5, [pc, #+888] ; 0x204159F4
005C301E  F8DF 4358		ldr r4, [pc, #+856] ; 0x5BB1E0
005C3022  F044 0401		orr r4, r4, #1
005C3026  47A0     		blx r4
005C3028  E8BD 0021		ldmia sp!, { r0, r5 }

#195		
#196			(* dCntRT_2001           := FAR_Machine_2001.OUT_COUNTER_A_dUInt; *)
#197			MOVE		FAR_Machine_2001.OUT_COUNTER_A_dUInt,dCntRT_2001	{LNXT:96|97|-1}
(*) REAL
005C302C  F8DF 73A0		ldr r7, [pc, #+928] ; 0x20415AE8
005C3030  6838     		ldr r0, [r7]
005C3032  F8DF 7348		ldr r7, [pc, #+840] ; 0x204155F8
005C3036  6038     		str r0, [r7]

#198		
#199			(* RUN_STATE_bool_2001   := FAR_Machine_2001.OUT_RUN_STATE_bool; *)
#200			MOVE		FAR_Machine_2001.OUT_RUN_STATE_bool,RUN_STATE_bool_2001	{LNXT:97|98|-1}
(*) REAL
005C3038  F8DF 7390		ldr r7, [pc, #+912] ; 0x20415AE5
005C303C  7838     		ldrb r0, [r7]
005C303E  F8DF 7418		ldr r7, [pc, #+1048] ; 0x20415BB6
005C3042  7038     		strb r0, [r7]

#201		
#202			(* STROBE_bool_2001      := FAR_Machine_2001.OUT_STROBE_bool; *)
#203			MOVE		FAR_Machine_2001.OUT_STROBE_bool,STROBE_bool_2001	{LNXT:98|99|-1}
(*) BOOL
005C3044  F8DF 7380		ldr r7, [pc, #+896] ; 0x20415AE4
005C3048  7838     		ldrb r0, [r7]
005C304A  F8DF 7410		ldr r7, [pc, #+1040] ; 0x20415BB7
005C304E  7038     		strb r0, [r7]

#204		
#205			(* WARNING_2001          := FAR_Machine_2001.OUT_WARNING_bool; *)
#206			MOVE		FAR_Machine_2001.OUT_WARNING_bool,WARNING_2001	{LNXT:99|101|-1}
(*) BOOL
005C3050  F8DF 7380		ldr r7, [pc, #+896] ; 0x20415AF0
005C3054  7838     		ldrb r0, [r7]
005C3056  F8DF 7408		ldr r7, [pc, #+1032] ; 0x20415BB8
005C305A  7038     		strb r0, [r7]

#207		
#208		
#209			(* IF bCntReset_2001 *)
#210			LD		bCntReset_2001	{LNXT:101|-1|-1}
(*) UNDEF
005C305C  F8DF 7328		ldr r7, [pc, #+808] ; 0x204159F1
005C3060  7838     		ldrb r0, [r7]

#211			JMPCN	$label2	{LNXT:101|101|102}
(-) BOOL
005C3062  2800     		cmp r0, #0
005C3064  D006     		beq #12 ; 0x005C3074


#212		
#213			(* THEN *)
#214		
#215				(* OLD_COUNTER_2001 := dCntRT_2001; *)
#216				MOVE		dCntRT_2001,OLD_COUNTER_2001	{LNXT:101|102|-1}
(*) BOOL
005C3068  F8DF 7310		ldr r7, [pc, #+784] ; 0x204155F8
005C306C  6838     		ldr r0, [r7]
005C306E  F8DF 7390		ldr r7, [pc, #+912] ; 0x20415B88
005C3072  6038     		str r0, [r7]

#217		
#218		$label2:
#219			(* END_IF *)
#220		
#221		
#222			(* IF bCntPause_2001 *)
#223			LD		bCntPause_2001	{LNXT:102|-1|-1}
(*) UNDEF
005C3074  F8DF 7318		ldr r7, [pc, #+792] ; 0x204159F3
005C3078  7838     		ldrb r0, [r7]

#224			NOT	{LNXT:102|-1|-1}
(*) BOOL
005C307A  2800     		cmp r0, #0
005C307C  BF08 2001		eqmov r0, #1
005C3080  BF18 2000		nemov r0, #0

#225			JMPCN	$label3	{LNXT:102|104|117}
(-) BOOL
005C3084  2800     		cmp r0, #0
005C3086  F000 80AF		beq #350 ; 0x005C31E8


#226		
#227			(* THEN *)
#228		
#229		
#230				(* IF dCntRT_2001 <> OLD_COUNTER_2001 *)
#231				LD		dCntRT_2001	{LNXT:104|-1|-1}
(*) UNDEF
005C308A  F8DF 72F0		ldr r7, [pc, #+752] ; 0x204155F8
005C308E  6838     		ldr r0, [r7]

#232				NE		OLD_COUNTER_2001	{LNXT:104|-1|-1}
(*) REAL
005C3090  B082     		sub sp, sp, #8
005C3092  F8CD 1000		str r1, [sp]
005C3096  F8DF 7368		ldr r7, [pc, #+872] ; 0x20415B88
005C309A  6839     		ldr r1, [r7]
005C309C  F8DF 42AC		ldr r4, [pc, #+684] ; 0x4B9595
005C30A0  F044 0401		orr r4, r4, #1
005C30A4  47A0     		blx r4
005C30A6  F8DD 1000		ldr r1, [sp]
005C30AA  B002     		add sp, sp, #8

#233				JMPCN	$label5	{LNXT:104|105|110}
(-) BOOL
005C30AC  2800     		cmp r0, #0
005C30AE  D070     		beq #224 ; 0x005C3192


#234		
#235				(* THEN *)
#236		
#237					(* diff := ((SysDateGetNs() / 1000000) - SampleTime_2001); *)
#238					SysDateGetNs	{LNXT:105|106|-1}
(*) BOOL
005C30B2  F8DF 4284		ldr r4, [pc, #+644] ; 0x4A2105
005C30B6  F044 0401		orr r4, r4, #1
005C30BA  47A0     		blx r4

#239					DIV		1000000	{LNXT:105|106|-1}
(*) ULINT
005C30BC  F8DF 7274		ldr r7, [pc, #+628] ; 0xF4240
005C30C0  463F     		mov r7, r7
005C30C2  46B9     		mov r9, r7
005C30C4  F04F 0A00		mov r10, #0
005C30C8  464A     		mov r2, r9
005C30CA  4653     		mov r3, r10
005C30CC  F8DF 426C		ldr r4, [pc, #+620] ; 0x4B933D
005C30D0  F044 0401		orr r4, r4, #1
005C30D4  47A0     		blx r4

#240					SUB		SampleTime_2001	{LNXT:105|106|-1}
(*) ULINT
005C30D6  F8DF 7320		ldr r7, [pc, #+800] ; 0x20415B7C
005C30DA  F8D7 9000		ldr r9, [r7]
005C30DE  F8D7 A004		ldr r10, [r7, #4]
005C30E2  464F     		mov r7, r9
005C30E4  1BC0     		sub r0, r0, r7
005C30E6  4657     		mov r7, r10
005C30E8  41B9     		sbc r1, r7

#241					ST		diff	{LNXT:105|106|-1}
(*) ULINT
005C30EA  F8DF 7380		ldr r7, [pc, #+896] ; 0x20415BBC
005C30EE  E92D 0180		stmdb sp!, { r7, r8 }
005C30F2  463F     		mov r7, r7
005C30F4  C703     		stm _TMP!, {_PAR0, _PAR1}
005C30F6  E8BD 0180		ldmia sp!, { r7, r8 }

#242		
#243					(* dMacRatePpm_2001 := (TO_REAL(60.0 / TO_REAL(diff / 1000.0))) * FAR_Machine_2001.IN_CNT_A_STEP_UP; *)
#244					LD		60.0	{LNXT:106|107|-1}
(*) UNDEF
005C30FA  F8DF 7268		ldr r7, [pc, #+616] ; 0x5BA440
005C30FE  6838     		ldr r0, [r7]

#245					DIV(		diff	{LNXT:106|107|-1}
(*) REAL
005C3100  B082     		sub sp, sp, #8
005C3102  F8CD 0000		str r0, [sp]
005C3106  F8DF 7364		ldr r7, [pc, #+868] ; 0x20415BBC
005C310A  6838     		ldr r0, [r7]
005C310C  6879     		ldr r1, [r7, #4]

#246					DIV		1000.0	{LNXT:106|107|-1}
(*) ULINT
005C310E  F8DF 4230		ldr r4, [pc, #+560] ; 0x4B946D
005C3112  F044 0401		orr r4, r4, #1
005C3116  47A0     		blx r4
005C3118  F8DF 7238		ldr r7, [pc, #+568] ; 0x5BA2FC
005C311C  683F     		ldr r7, [r7]
005C311E  B082     		sub sp, sp, #8
005C3120  F8CD 1000		str r1, [sp]
005C3124  4639     		mov r1, r7
005C3126  F8DF 4220		ldr r4, [pc, #+544] ; 0x4B950B
005C312A  F044 0401		orr r4, r4, #1
005C312E  47A0     		blx r4
005C3130  F8DD 1000		ldr r1, [sp]
005C3134  B002     		add sp, sp, #8

#247					TO_REAL	{LNXT:106|107|-1}
(-) REAL
#248					)	{LNXT:106|107|-1}
(*) REAL
005C3136  4607     		mov r7, r0
005C3138  F8DD 0000		ldr r0, [sp]
005C313C  B002     		add sp, sp, #8
005C313E  B082     		sub sp, sp, #8
005C3140  F8CD 1000		str r1, [sp]
005C3144  4639     		mov r1, r7
005C3146  F8DF 4200		ldr r4, [pc, #+512] ; 0x4B950B
005C314A  F044 0401		orr r4, r4, #1
005C314E  47A0     		blx r4
005C3150  F8DD 1000		ldr r1, [sp]
005C3154  B002     		add sp, sp, #8

#249					TO_REAL	{LNXT:106|107|-1}
(-) REAL
#250					MUL		FAR_Machine_2001.IN_CNT_A_STEP_UP	{LNXT:106|107|-1}
(*) REAL
005C3156  F8DF 7268		ldr r7, [pc, #+616] ; 0x20415ADC
005C315A  683F     		ldr r7, [r7]
005C315C  B082     		sub sp, sp, #8
005C315E  F8CD 1000		str r1, [sp]
005C3162  4639     		mov r1, r7
005C3164  F8DF 41DC		ldr r4, [pc, #+476] ; 0x4B94F9
005C3168  F044 0401		orr r4, r4, #1
005C316C  47A0     		blx r4
005C316E  F8DD 1000		ldr r1, [sp]
005C3172  B002     		add sp, sp, #8

#251					ST		dMacRatePpm_2001	{LNXT:106|107|-1}
(*) REAL
005C3174  F8DF 7284		ldr r7, [pc, #+644] ; 0x20415B84
005C3178  6038     		str r0, [r7]

#252		
#253					(* OLD_COUNTER_2001 := dCntRT_2001; *)
#254					MOVE		dCntRT_2001,OLD_COUNTER_2001	{LNXT:107|108|-1}
(*) REAL
005C317A  F8DF 7200		ldr r7, [pc, #+512] ; 0x204155F8
005C317E  6838     		ldr r0, [r7]
005C3180  F8DF 727C		ldr r7, [pc, #+636] ; 0x20415B88
005C3184  6038     		str r0, [r7]

#255		
#256					(* SampleTimeTrBool_2001 := FALSE; *)
#257					MOVE		FALSE,SampleTimeTrBool_2001	{LNXT:108|121|-1}
(*) REAL
005C3186  2000     		mov r0, #0 ; 0
005C3188  F8DF 7260		ldr r7, [pc, #+608] ; 0x20415B79
005C318C  7038     		strb r0, [r7]

#258					JMP		$label6	{LNXT:104|105|110}
(-) BOOL
005C318E  E029     		b #82 ; 0x005C31E4


#259		$label5:
#260		
#261				(* ELSE *)
#262		
#263		
#264					(* IF SampleTimeTrBool_2001 *)
#265					LD		SampleTimeTrBool_2001	{LNXT:110|-1|-1}
(*) UNDEF
005C3192  F8DF 7258		ldr r7, [pc, #+600] ; 0x20415B79
005C3196  7838     		ldrb r0, [r7]

#266					NOT	{LNXT:110|-1|-1}
(*) BOOL
005C3198  2800     		cmp r0, #0
005C319A  BF08 2001		eqmov r0, #1
005C319E  BF18 2000		nemov r0, #0

#267					JMPCN	$label7	{LNXT:110|111|121}
(-) BOOL
005C31A2  2800     		cmp r0, #0
005C31A4  D01E     		beq #60 ; 0x005C31E4


#268		
#269					(* THEN *)
#270		
#271						(* SampleTime_2001 := (SysDateGetNs() / 1000000); *)
#272						SysDateGetNs	{LNXT:111|112|-1}
(*) BOOL
005C31A8  F8DF 418C		ldr r4, [pc, #+396] ; 0x4A2105
005C31AC  F044 0401		orr r4, r4, #1
005C31B0  47A0     		blx r4

#273						DIV		1000000	{LNXT:111|112|-1}
(*) ULINT
005C31B2  F8DF 7180		ldr r7, [pc, #+384] ; 0xF4240
005C31B6  463F     		mov r7, r7
005C31B8  46B9     		mov r9, r7
005C31BA  F04F 0A00		mov r10, #0
005C31BE  464A     		mov r2, r9
005C31C0  4653     		mov r3, r10
005C31C2  F8DF 4178		ldr r4, [pc, #+376] ; 0x4B933D
005C31C6  F044 0401		orr r4, r4, #1
005C31CA  47A0     		blx r4

#274						ST		SampleTime_2001	{LNXT:111|112|-1}
(*) ULINT
005C31CC  F8DF 7228		ldr r7, [pc, #+552] ; 0x20415B7C
005C31D0  E92D 0180		stmdb sp!, { r7, r8 }
005C31D4  463F     		mov r7, r7
005C31D6  C703     		stm _TMP!, {_PAR0, _PAR1}
005C31D8  E8BD 0180		ldmia sp!, { r7, r8 }

#275		
#276						(* SampleTimeTrBool_2001 := TRUE; *)
#277						MOVE		TRUE,SampleTimeTrBool_2001	{LNXT:112|121|-1}
(*) ULINT
005C31DC  2001     		mov r0, #1 ; 1
005C31DE  F8DF 720C		ldr r7, [pc, #+524] ; 0x20415B79
005C31E2  7038     		strb r0, [r7]

#278		
#279		$label7:
#280					(* END_IF *)
#281		
#282		$label6:
#283				(* END_IF *)
#284				JMP		$label4	{LNXT:102|104|117}
(-) BOOL
005C31E4  E026     		b #76 ; 0x005C3234


#285		$label3:
#286		
#287			(* ELSE *)
#288		
#289				(* dMacRatePpm_2001 := 0.0; *)
#290				MOVE		0.0,dMacRatePpm_2001	{LNXT:117|118|-1}
(*) BOOL
005C31E8  F8DF 7174		ldr r7, [pc, #+372] ; 0x5BA43C
005C31EC  6838     		ldr r0, [r7]
005C31EE  F8DF 720C		ldr r7, [pc, #+524] ; 0x20415B84
005C31F2  6038     		str r0, [r7]

#291		
#292				(* OLD_COUNTER_2001 := dCntRT_2001; *)
#293				MOVE		dCntRT_2001,OLD_COUNTER_2001	{LNXT:118|119|-1}
(*) REAL
005C31F4  F8DF 7184		ldr r7, [pc, #+388] ; 0x204155F8
005C31F8  6838     		ldr r0, [r7]
005C31FA  F8DF 7204		ldr r7, [pc, #+516] ; 0x20415B88
005C31FE  6038     		str r0, [r7]

#294		
#295				(* SampleTime_2001 := (SysDateGetNs() / 1000000); *)
#296				SysDateGetNs	{LNXT:119|121|-1}
(*) REAL
005C3200  F8DF 4134		ldr r4, [pc, #+308] ; 0x4A2105
005C3204  F044 0401		orr r4, r4, #1
005C3208  47A0     		blx r4

#297				DIV		1000000	{LNXT:119|121|-1}
(*) ULINT
005C320A  F8DF 7128		ldr r7, [pc, #+296] ; 0xF4240
005C320E  463F     		mov r7, r7
005C3210  46B9     		mov r9, r7
005C3212  F04F 0A00		mov r10, #0
005C3216  464A     		mov r2, r9
005C3218  4653     		mov r3, r10
005C321A  F8DF 4120		ldr r4, [pc, #+288] ; 0x4B933D
005C321E  F044 0401		orr r4, r4, #1
005C3222  47A0     		blx r4

#298				ST		SampleTime_2001	{LNXT:119|121|-1}
(*) ULINT
005C3224  F8DF 71D0		ldr r7, [pc, #+464] ; 0x20415B7C
005C3228  E92D 0180		stmdb sp!, { r7, r8 }
005C322C  463F     		mov r7, r7
005C322E  C703     		stm _TMP!, {_PAR0, _PAR1}
005C3230  E8BD 0180		ldmia sp!, { r7, r8 }

#299		
#300		$label4:
#301			(* END_IF *)
#302		
#303		
#304			(* IF RUN_STATE_bool_2001 *)
#305			LD		RUN_STATE_bool_2001	{LNXT:121|-1|-1}
(*) UNDEF
005C3234  F8DF 7220		ldr r7, [pc, #+544] ; 0x20415BB6
005C3238  7838     		ldrb r0, [r7]

#306			JMPCN	$label8	{LNXT:121|121|121}
(-) BOOL
005C323A  2800     		cmp r0, #0
005C323C  D006     		beq #12 ; 0x005C324C


#307		
#308			(* THEN *)
#309		
#310				(* dMachineState_2001 := 1; *)
#311				MOVE		1,dMachineState_2001	{LNXT:121|122|-1}
(*) BOOL
005C3240  2001     		mov r0, #1 ; 1
005C3242  F8DF 7140		ldr r7, [pc, #+320] ; 0x20415600
005C3246  8038     		strh r0, [r7]

#312				JMP		$label9	{LNXT:121|121|121}
(-) UINT
005C3248  E00A     		b #20 ; 0x005C3260


#313		$label8:
#314		
#315			(* ELSE *)
#316		
#317				(* dMachineState_2001 := 0; *)
#318				MOVE		0,dMachineState_2001	{LNXT:121|121|-1}
(*) UINT
005C324C  2000     		mov r0, #0 ; 0
005C324E  F8DF 7134		ldr r7, [pc, #+308] ; 0x20415600
005C3252  8038     		strh r0, [r7]

#319		
#320				(* dMacRatePpm_2001 := 0.0; *)
#321				MOVE		0.0,dMacRatePpm_2001	{LNXT:121|122|-1}
(*) UINT
005C3254  F8DF 7108		ldr r7, [pc, #+264] ; 0x5BA43C
005C3258  6838     		ldr r0, [r7]
005C325A  F8DF 71A0		ldr r7, [pc, #+416] ; 0x20415B84
005C325E  6038     		str r0, [r7]

#322		
#323		$label9:
#324			(* END_IF *)
#325		
#326			(* bCntReset_2001        := FALSE; *)
#327			MOVE		FALSE,bCntReset_2001	{LNXT:122|123|-1}
(*) REAL
005C3260  2000     		mov r0, #0 ; 0
005C3262  F8DF 7124		ldr r7, [pc, #+292] ; 0x204159F1
005C3266  7038     		strb r0, [r7]

#328		
#329			(* bPreSetCnt_2001       := FALSE; *)
#330			MOVE		FALSE,bPreSetCnt_2001	{LNXT:123|136|-1}
(*) BOOL
005C3268  2000     		mov r0, #0 ; 0
005C326A  F8DF 7120		ldr r7, [pc, #+288] ; 0x204159F2
005C326E  7038     		strb r0, [r7]

#331		
#332			(* IN_AUTO_PUB_ENABLE := TRUE; *)
#333			MOVE		TRUE,IN_AUTO_PUB_ENABLE	{LNXT:136|137|-1}
(*) BOOL
005C3270  2001     		mov r0, #1 ; 1
005C3272  F8DF 71F0		ldr r7, [pc, #+496] ; 0x20415BB9
005C3276  7038     		strb r0, [r7]

#334		
#335			(* IN_AUTO_PUB_TIMING_msec := 2000; *)
#336			MOVE		2000,IN_AUTO_PUB_TIMING_msec	{LNXT:137|140|-1}
(*) BOOL
005C3278  F44F 60FA		mov r0, #2000 ; 2000
005C327C  F8DF 71E8		ldr r7, [pc, #+488] ; 0x20415BBA
005C3280  8038     		strh r0, [r7]

#337		
#338			(* SendTON *)
#339			MOVE		IN_AUTO_PUB_TIMING_msec,SendTON.PT	{LNXT:140|-1|-1}
(*) UINT
005C3282  F8DF 71E4		ldr r7, [pc, #+484] ; 0x20415BBA
005C3286  8838     		ldrh r0, [r7]
005C3288  F8DF 71EC		ldr r7, [pc, #+492] ; 0x20415BCC
005C328C  6038     		str r0, [r7]

#340			CAL		SendTON	{LNXT:140|141|-1}
(*) UDINT
005C328E  E92D 0021		stmdb sp!, { r0, r5 }
005C3292  F8DF 51DC		ldr r5, [pc, #+476] ; 0x20415BC4
005C3296  F8DF 40DC		ldr r4, [pc, #+220] ; 0x5BA848
005C329A  F044 0401		orr r4, r4, #1
005C329E  47A0     		blx r4
005C32A0  E8BD 0021		ldmia sp!, { r0, r5 }

#341		
#342			(* SendTON.IN:=(IN_AUTO_PUB_ENABLE AND NOT PubTrigger.Q); *)
#343			LD		PubTrigger.Q	{LNXT:141|142|-1}
(*) UNDEF
005C32A4  F8DF 71E0		ldr r7, [pc, #+480] ; 0x20415BDB
005C32A8  7838     		ldrb r0, [r7]

#344			NOT	{LNXT:141|142|-1}
(*) BOOL
005C32AA  2800     		cmp r0, #0
005C32AC  BF08 2001		eqmov r0, #1
005C32B0  BF18 2000		nemov r0, #0

#345			AND		IN_AUTO_PUB_ENABLE	{LNXT:141|142|-1}
(*) BOOL
005C32B4  F8DF 71AC		ldr r7, [pc, #+428] ; 0x20415BB9
005C32B8  783F     		ldrb r7, [r7]
005C32BA  4038     		and r0, r0, r7

#346			ST		SendTON.IN	{LNXT:141|142|-1}
(*) BOOL
005C32BC  F8DF 71B4		ldr r7, [pc, #+436] ; 0x20415BC8
005C32C0  7038     		strb r0, [r7]

#347		
#348			(* PubTrigger *)
#349			MOVE		SendTON.Q,PubTrigger.CLK	{LNXT:142|-1|-1}
(*) BOOL
005C32C2  F8DF 71B8		ldr r7, [pc, #+440] ; 0x20415BD0
005C32C6  7838     		ldrb r0, [r7]
005C32C8  F8DF 71B8		ldr r7, [pc, #+440] ; 0x20415BDA
005C32CC  7038     		strb r0, [r7]

#350			CAL		PubTrigger	{LNXT:142|144|-1}
(*) BOOL
005C32CE  E92D 0021		stmdb sp!, { r0, r5 }
005C32D2  F8DF 51AC		ldr r5, [pc, #+428] ; 0x20415BD8
005C32D6  F8DF 4098		ldr r4, [pc, #+152] ; 0x5BA7B0
005C32DA  F044 0401		orr r4, r4, #1
005C32DE  47A0     		blx r4
005C32E0  E8BD 0021		ldmia sp!, { r0, r5 }

#351		
#352		
#353			(* IF PubTrigger.Q *)
#354			LD		PubTrigger.Q	{LNXT:144|-1|-1}
(*) UNDEF
005C32E4  F8DF 71A0		ldr r7, [pc, #+416] ; 0x20415BDB
005C32E8  7838     		ldrb r0, [r7]

#355			JMPCN	$label10	{LNXT:144|145|150}
(-) BOOL
005C32EA  2800     		cmp r0, #0
005C32EC  D00C     		beq #24 ; 0x005C3308


#356		
#357			(* THEN *)
#358		
#359				(* SendTON.IN:=(FALSE); *)
#360				MOVE		FALSE,SendTON.IN	{LNXT:145|146|-1}
(*) BOOL
005C32F0  2000     		mov r0, #0 ; 0
005C32F2  F8DF 7180		ldr r7, [pc, #+384] ; 0x20415BC8
005C32F6  7038     		strb r0, [r7]

#361		
#362				(* IN_PUB_TRIGGER:=TRUE; *)
#363				MOVE		TRUE,IN_PUB_TRIGGER	{LNXT:146|147|-1}
(*) BOOL
005C32F8  2001     		mov r0, #1 ; 1
005C32FA  F8DF 70F4		ldr r7, [pc, #+244] ; 0x20415B7A
005C32FE  7038     		strb r0, [r7]

#364		
#365				(* TopicPub_Broadcast := TRUE; *)
#366				MOVE		TRUE,TopicPub_Broadcast	{LNXT:147|150|-1}
(*) BOOL
005C3300  2001     		mov r0, #1 ; 1
005C3302  F8DF 7100		ldr r7, [pc, #+256] ; 0x20415B8C
005C3306  7038     		strb r0, [r7]

#367		
#368		$label10:
#369			(* END_IF *)
#370		
#371		
#372			(* IF STROBE_bool_2001 *)
#373			LD		STROBE_bool_2001	{LNXT:150|-1|-1}
(*) UNDEF
005C3308  F8DF 7150		ldr r7, [pc, #+336] ; 0x20415BB7
005C330C  7838     		ldrb r0, [r7]

#374			JMPCN	$label11	{LNXT:150|151|10}
(-) BOOL
005C330E  2800     		cmp r0, #0
005C3310  D008     		beq #16 ; 0x005C3324


#375		
#376			(* THEN *)
#377		
#378				(* IN_PUB_TRIGGER:=TRUE; *)
#379				MOVE		TRUE,IN_PUB_TRIGGER	{LNXT:151|152|-1}
(*) BOOL
005C3314  2001     		mov r0, #1 ; 1
005C3316  F8DF 70D8		ldr r7, [pc, #+216] ; 0x20415B7A
005C331A  7038     		strb r0, [r7]

#380		
#381				(* TopicPub_Single := 0; *)
#382				MOVE		0,TopicPub_Single	{LNXT:152|10|-1}
(*) BOOL
005C331C  2000     		mov r0, #0 ; 0
005C331E  F8DF 716C		ldr r7, [pc, #+364] ; 0x20415BDC
005C3322  7038     		strb r0, [r7]

005C3324  E8BD 0FF0		ldmia sp!, { r4, r5, r6, r7, r8, r9, r10, r11 }
005C3328  F8DD E000		ldr lr, [sp]
005C332C  B002     		add sp, sp, #8

005C332E  4770     		bx lr

005C3330  00001388		; 0x00001388
005C3334  000F4240		; 0x000F4240
005C3338  004A2105		; 0x004A2105
005C333C  004B933D		; 0x004B933D
005C3340  004B946D		; 0x004B946D
005C3344  004B94F9		; 0x004B94F9
005C3348  004B950B		; 0x004B950B
005C334C  004B9595		; 0x004B9595
005C3350  004BA059		; 0x004BA059
005C3354  005BA2FC		; 0x005BA2FC
005C3358  005BA42C		; 0x005BA42C
005C335C  005BA43A		; 0x005BA43A
005C3360  005BA43C		; 0x005BA43C
005C3364  005BA440		; 0x005BA440
005C3368  005BA596		; 0x005BA596
005C336C  005BA784		; 0x005BA784
005C3370  005BA7B0		; 0x005BA7B0
005C3374  005BA848		; 0x005BA848
005C3378  005BB1E0		; 0x005BB1E0
005C337C  204155F8		; 0x204155F8
005C3380  204155FC		; 0x204155FC
005C3384  20415600		; 0x20415600
005C3388  204159F1		; 0x204159F1
005C338C  204159F2		; 0x204159F2
005C3390  204159F3		; 0x204159F3
005C3394  204159F4		; 0x204159F4
005C3398  20415AC4		; 0x20415AC4
005C339C  20415AC6		; 0x20415AC6
005C33A0  20415AC8		; 0x20415AC8
005C33A4  20415ACA		; 0x20415ACA
005C33A8  20415ACC		; 0x20415ACC
005C33AC  20415ACE		; 0x20415ACE
005C33B0  20415AD0		; 0x20415AD0
005C33B4  20415AD2		; 0x20415AD2
005C33B8  20415AD4		; 0x20415AD4
005C33BC  20415AD8		; 0x20415AD8
005C33C0  20415ADC		; 0x20415ADC
005C33C4  20415AE0		; 0x20415AE0
005C33C8  20415AE4		; 0x20415AE4
005C33CC  20415AE5		; 0x20415AE5
005C33D0  20415AE8		; 0x20415AE8
005C33D4  20415AF0		; 0x20415AF0
005C33D8  20415AF4		; 0x20415AF4
005C33DC  20415AF5		; 0x20415AF5
005C33E0  20415B16		; 0x20415B16
005C33E4  20415B37		; 0x20415B37
005C33E8  20415B58		; 0x20415B58
005C33EC  20415B79		; 0x20415B79
005C33F0  20415B7A		; 0x20415B7A
005C33F4  20415B7B		; 0x20415B7B
005C33F8  20415B7C		; 0x20415B7C
005C33FC  20415B84		; 0x20415B84
005C3400  20415B88		; 0x20415B88
005C3404  20415B8C		; 0x20415B8C
005C3408  20415B8D		; 0x20415B8D
005C340C  20415B8E		; 0x20415B8E
005C3410  20415B8F		; 0x20415B8F
005C3414  20415B90		; 0x20415B90
005C3418  20415B94		; 0x20415B94
005C341C  20415B98		; 0x20415B98
005C3420  20415B9C		; 0x20415B9C
005C3424  20415BA4		; 0x20415BA4
005C3428  20415BA5		; 0x20415BA5
005C342C  20415BA6		; 0x20415BA6
005C3430  20415BA7		; 0x20415BA7
005C3434  20415BA8		; 0x20415BA8
005C3438  20415BA9		; 0x20415BA9
005C343C  20415BAA		; 0x20415BAA
005C3440  20415BAB		; 0x20415BAB
005C3444  20415BAC		; 0x20415BAC
005C3448  20415BB0		; 0x20415BB0
005C344C  20415BB1		; 0x20415BB1
005C3450  20415BB2		; 0x20415BB2
005C3454  20415BB4		; 0x20415BB4
005C3458  20415BB6		; 0x20415BB6
005C345C  20415BB7		; 0x20415BB7
005C3460  20415BB8		; 0x20415BB8
005C3464  20415BB9		; 0x20415BB9
005C3468  20415BBA		; 0x20415BBA
005C346C  20415BBC		; 0x20415BBC
005C3470  20415BC4		; 0x20415BC4
005C3474  20415BC8		; 0x20415BC8
005C3478  20415BCC		; 0x20415BCC
005C347C  20415BD0		; 0x20415BD0
005C3480  20415BD8		; 0x20415BD8
005C3484  20415BDA		; 0x20415BDA
005C3488  20415BDB		; 0x20415BDB
005C348C  20415BDC		; 0x20415BDC
005C3490  20419A81		; 0x20419A81
005C3494  2041AFC0		; 0x2041AFC0
005C3498  2041AFC1		; 0x2041AFC1

END_PROGRAM


**************************************************
	Target variable image generation
**************************************************


*** INPUT:
005C349C  4770     		bx lr


*** OUTPUT:
005C349E  4770     		bx lr



**************************************************
	Task Slow init code
**************************************************

005C34A0  B082     		sub sp, sp, #8
005C34A2  F8CD E000		str lr, [sp]
005C34A6  E92D 0FF0		stmdb sp!, { r4, r5, r6, r7, r8, r9, r10, r11 }

005C34AA  E8BD 0FF0		ldmia sp!, { r4, r5, r6, r7, r8, r9, r10, r11 }
005C34AE  F8DD E000		ldr lr, [sp]
005C34B2  B002     		add sp, sp, #8

005C34B4  4770     		bx lr



**************************************************
	Global init code
**************************************************

005C34D0  B082     		sub sp, sp, #8
005C34D2  F8CD E000		str lr, [sp]
005C34D6  E92D 0FF0		stmdb sp!, { r4, r5, r6, r7, r8, r9, r10, r11 }

Var init: V::FAR_Machine_2001.IN_FILTER_RUN_STATE_ON_mSec = 10
005C34DA  F8DF 007C		ldr r0, [pc, #+124] ; 0xA
005C34DE  F8DF 7084		ldr r7, [pc, #+132] ; 0x20415AC6
005C34E2  8038     		strh r0, [r7]

Var init: V::FAR_Machine_2001.IN_FILTER_RUN_STATE_OFF_mSec = 10
005C34E4  F8DF 0070		ldr r0, [pc, #+112] ; 0xA
005C34E8  F8DF 707C		ldr r7, [pc, #+124] ; 0x20415AC8
005C34EC  8038     		strh r0, [r7]

Var init: V::FAR_Machine_2001.IN_FILTER_CNT_A_ON_mSec = 10
005C34EE  F8DF 0068		ldr r0, [pc, #+104] ; 0xA
005C34F2  F8DF 7078		ldr r7, [pc, #+120] ; 0x20415ACA
005C34F6  8038     		strh r0, [r7]

Var init: V::FAR_Machine_2001.IN_FILTER_CNT_A_OFF_mSec = 10
005C34F8  F8DF 005C		ldr r0, [pc, #+92] ; 0xA
005C34FC  F8DF 7070		ldr r7, [pc, #+112] ; 0x20415ACC
005C3500  8038     		strh r0, [r7]

Var init: V::FAR_Machine_2001.IN_FILTER_CNT_B_ON_mSec = 10
005C3502  F8DF 0054		ldr r0, [pc, #+84] ; 0xA
005C3506  F8DF 706C		ldr r7, [pc, #+108] ; 0x20415ACE
005C350A  8038     		strh r0, [r7]

Var init: V::FAR_Machine_2001.IN_FILTER_CNT_B_OFF_mSec = 10
005C350C  F8DF 0048		ldr r0, [pc, #+72] ; 0xA
005C3510  F8DF 7064		ldr r7, [pc, #+100] ; 0x20415AD0
005C3514  8038     		strh r0, [r7]

Var init: V::FAR_Machine_2001.IN_WARNING_DELAY_Sec = 180
005C3516  F8DF 0044		ldr r0, [pc, #+68] ; 0xB4
005C351A  F8DF 7060		ldr r7, [pc, #+96] ; 0x20415AD2
005C351E  8038     		strh r0, [r7]

Var init: V::FAR_Machine_2001.IN_CNT_A_STEP_UP = 1.0
005C3520  F8DF 703C		ldr r7, [pc, #+60] ; 0x5BA4B4
005C3524  6838     		ldr r0, [r7]

005C3526  F8DF 7058		ldr r7, [pc, #+88] ; 0x20415ADC
005C352A  6038     		str r0, [r7]

Var init: V::FAR_Machine_2001.IN_CNT_B_STEP_UP = 1.0
005C352C  F8DF 7030		ldr r7, [pc, #+48] ; 0x5BA4B4
005C3530  6838     		ldr r0, [r7]

005C3532  F8DF 7050		ldr r7, [pc, #+80] ; 0x20415AE0
005C3536  6038     		str r0, [r7]

Var init: V:MAIN:sIdMachine_2001 = '2001'
005C3538  F8DF 704C		ldr r7, [pc, #+76] ; 0x2041620E
005C353C  2332     		mov r3, #0x32
005C353E  703B     		strb r3, [r7, #+0]
005C3540  2330     		mov r3, #0x30
005C3542  707B     		strb r3, [r7, #+1]
005C3544  2330     		mov r3, #0x30
005C3546  70BB     		strb r3, [r7, #+2]
005C3548  2331     		mov r3, #0x31
005C354A  70FB     		strb r3, [r7, #+3]

005C354C  E8BD 0FF0		ldmia sp!, { r4, r5, r6, r7, r8, r9, r10, r11 }
005C3550  F8DD E000		ldr lr, [sp]
005C3554  B002     		add sp, sp, #8

005C3556  4770     		bx lr

005C3558  0000000A		; 0x0000000A
005C355C  000000B4		; 0x000000B4
005C3560  005BA4B4		; 0x005BA4B4
005C3564  20415AC6		; 0x20415AC6
005C3568  20415AC8		; 0x20415AC8
005C356C  20415ACA		; 0x20415ACA
005C3570  20415ACC		; 0x20415ACC
005C3574  20415ACE		; 0x20415ACE
005C3578  20415AD0		; 0x20415AD0
005C357C  20415AD2		; 0x20415AD2
005C3580  20415ADC		; 0x20415ADC
005C3584  20415AE0		; 0x20415AE0
005C3588  2041620E		; 0x2041620E



**************************************************
	Task $$VirtualTables init code
**************************************************

005C358C  B082     		sub sp, sp, #8
005C358E  F8CD E000		str lr, [sp]
005C3592  E92D 0FF0		stmdb sp!, { r4, r5, r6, r7, r8, r9, r10, r11 }

005C3596  E8BD 0FF0		ldmia sp!, { r4, r5, r6, r7, r8, r9, r10, r11 }
005C359A  F8DD E000		ldr lr, [sp]
005C359E  B002     		add sp, sp, #8

005C35A0  4770     		bx lr



********************************************
MEMORY MAP
********************************************

Code area type:          		       main code
Start code area:          		00000000005BA000h
End code area:            		00000000005C35B0h
Code size:                		000095B0h

Start local data area:    		00000000204159E4h
End local data area:      		0000000020416498h
Local data size:          		00000AB4h

Start retentive data area:		00000000204155F8h
End retentive data area:  		0000000020415644h
Retentive data size:      		0000004Ch

Start bit data area:      		0000000000000000h
End bit data area:        		0000000000000000h
Bit data size:            		00000000h



********************************************
CODE ID:                                2DB7D52A
DEBUG MEMO ID:                          0000A468
FULL MEMO ID:                           000042DC
********************************************
